---
triple:          'arm64-apple-darwin'
binary-path:     project3
relocations:
  - { offsetInCU: 0xA352, offset: 0xA352, size: 0x8, addend: 0x0, symName: __ZNSt3__124__put_character_sequenceB7v160006IcNS_11char_traitsIcEEEERNS_13basic_ostreamIT_T0_EES7_PKS4_m, symObjAddr: 0x2524, symBinAddr: 0x100005E00, symSize: 0x1EC }
  - { offsetInCU: 0xC844, offset: 0xC844, size: 0x8, addend: 0x0, symName: __ZNSt3__16copy_nB7v160006IPKcmPcEENS_9enable_ifIXsr33__is_cpp17_random_access_iteratorIT_EE5valueET1_E4typeES5_T0_S6_, symObjAddr: 0x4114, symBinAddr: 0x1000079F0, symSize: 0x44 }
  - { offsetInCU: 0xE781, offset: 0xE781, size: 0x8, addend: 0x0, symName: __ZNSt3__1eqB7v160006IcNS_11char_traitsIcEENS_9allocatorIcEEEEbRKNS_12basic_stringIT_T0_T1_EEPKS6_, symObjAddr: 0x142C, symBinAddr: 0x100004D08, symSize: 0xAC }
  - { offsetInCU: 0xE7E8, offset: 0xE7E8, size: 0x8, addend: 0x0, symName: __ZNSt3__1plB7v160006IcNS_11char_traitsIcEENS_9allocatorIcEEEENS_12basic_stringIT_T0_T1_EERKS9_S6_, symObjAddr: 0x14D8, symBinAddr: 0x100004DB4, symSize: 0x110 }
  - { offsetInCU: 0xE87A, offset: 0xE87A, size: 0x8, addend: 0x0, symName: __ZNSt3__1neB7v160006IcNS_11char_traitsIcEENS_9allocatorIcEEEEbRKNS_12basic_stringIT_T0_T1_EEPKS6_, symObjAddr: 0x1EDC, symBinAddr: 0x1000057B8, symSize: 0x34 }
  - { offsetInCU: 0xE8D2, offset: 0xE8D2, size: 0x8, addend: 0x0, symName: __ZNSt3__1plB7v160006IcNS_11char_traitsIcEENS_9allocatorIcEEEENS_12basic_stringIT_T0_T1_EEOS9_PKS6_, symObjAddr: 0x1F44, symBinAddr: 0x100005820, symSize: 0x40 }
  - { offsetInCU: 0xE92A, offset: 0xE92A, size: 0x8, addend: 0x0, symName: __ZNSt3__1lsB7v160006INS_11char_traitsIcEEEERNS_13basic_ostreamIcT_EES6_PKc, symObjAddr: 0x2374, symBinAddr: 0x100005C50, symSize: 0x48 }
  - { offsetInCU: 0xE970, offset: 0xE970, size: 0x8, addend: 0x0, symName: __ZNSt3__116__pad_and_outputB7v160006IcNS_11char_traitsIcEEEENS_19ostreambuf_iteratorIT_T0_EES6_PKS4_S8_S8_RNS_8ios_baseES4_, symObjAddr: 0x2760, symBinAddr: 0x10000603C, symSize: 0x240 }
  - { offsetInCU: 0xEA3F, offset: 0xEA3F, size: 0x8, addend: 0x0, symName: __ZNSt3__119__debug_db_insert_cB7v160006INS_12basic_stringIcNS_11char_traitsIcEENS_9allocatorIcEEEEEEvPT_, symObjAddr: 0x2C20, symBinAddr: 0x1000064FC, symSize: 0x10 }
  - { offsetInCU: 0xEA70, offset: 0xEA70, size: 0x8, addend: 0x0, symName: __ZNSt3__112__to_addressB7v160006IcEEPT_S2_, symObjAddr: 0x2CEC, symBinAddr: 0x1000065C8, symSize: 0x14 }
  - { offsetInCU: 0xEAD8, offset: 0xEAD8, size: 0x8, addend: 0x0, symName: __ZNSt3__19use_facetB7v160006INS_5ctypeIcEEEERKT_RKNS_6localeE, symObjAddr: 0x2F9C, symBinAddr: 0x100006878, symSize: 0x2C }
  - { offsetInCU: 0xEFA7, offset: 0xEFA7, size: 0x8, addend: 0x0, symName: __ZNSt3__118__constexpr_strlenB7v160006EPKc, symObjAddr: 0x3034, symBinAddr: 0x100006910, symSize: 0x24 }
  - { offsetInCU: 0xEFD3, offset: 0xEFD3, size: 0x8, addend: 0x0, symName: __ZNSt3__119__libcpp_deallocateB7v160006EPvmm, symObjAddr: 0x3420, symBinAddr: 0x100006CFC, symSize: 0x60 }
  - { offsetInCU: 0xF038, offset: 0xF038, size: 0x8, addend: 0x0, symName: __ZNSt3__124__is_overaligned_for_newB7v160006Em, symObjAddr: 0x3480, symBinAddr: 0x100006D5C, symSize: 0x20 }
  - { offsetInCU: 0xF066, offset: 0xF066, size: 0x8, addend: 0x0, symName: __ZNSt3__127__do_deallocate_handle_sizeB7v160006IJSt11align_val_tEEEvPvmDpT_, symObjAddr: 0x34A0, symBinAddr: 0x100006D7C, symSize: 0x30 }
  - { offsetInCU: 0xF0B9, offset: 0xF0B9, size: 0x8, addend: 0x0, symName: __ZNSt3__127__do_deallocate_handle_sizeB7v160006IJEEEvPvmDpT_, symObjAddr: 0x34D0, symBinAddr: 0x100006DAC, symSize: 0x28 }
  - { offsetInCU: 0xF0F7, offset: 0xF0F7, size: 0x8, addend: 0x0, symName: __ZNSt3__124__libcpp_operator_deleteB7v160006IJPvSt11align_val_tEEEvDpT_, symObjAddr: 0x34F8, symBinAddr: 0x100006DD4, symSize: 0x2C }
  - { offsetInCU: 0xF140, offset: 0xF140, size: 0x8, addend: 0x0, symName: __ZNSt3__124__libcpp_operator_deleteB7v160006IJPvEEEvDpT_, symObjAddr: 0x3524, symBinAddr: 0x100006E00, symSize: 0x24 }
  - { offsetInCU: 0xF175, offset: 0xF175, size: 0x8, addend: 0x0, symName: __ZNSt3__115__debug_db_swapB7v160006INS_12basic_stringIcNS_11char_traitsIcEENS_9allocatorIcEEEEEEvPT_S8_, symObjAddr: 0x366C, symBinAddr: 0x100006F48, symSize: 0x14 }
  - { offsetInCU: 0xF1B4, offset: 0xF1B4, size: 0x8, addend: 0x0, symName: __ZNSt3__120__throw_out_of_rangeB7v160006EPKc, symObjAddr: 0x36C4, symBinAddr: 0x100006FA0, symSize: 0x64 }
  - { offsetInCU: 0xF3CA, offset: 0xF3CA, size: 0x8, addend: 0x0, symName: __ZNSt3__120__throw_length_errorB7v160006EPKc, symObjAddr: 0x3ED8, symBinAddr: 0x1000077B4, symSize: 0x64 }
  - { offsetInCU: 0xF3F2, offset: 0xF3F2, size: 0x8, addend: 0x0, symName: __ZNSt3__117__libcpp_allocateB7v160006Emm, symObjAddr: 0x4064, symBinAddr: 0x100007940, symSize: 0x60 }
  - { offsetInCU: 0xF44C, offset: 0xF44C, size: 0x8, addend: 0x0, symName: __ZNSt3__121__libcpp_operator_newB7v160006IJmSt11align_val_tEEEPvDpT_, symObjAddr: 0x40C4, symBinAddr: 0x1000079A0, symSize: 0x2C }
  - { offsetInCU: 0xF499, offset: 0xF499, size: 0x8, addend: 0x0, symName: __ZNSt3__121__libcpp_operator_newB7v160006IJmEEEPvDpT_, symObjAddr: 0x40F0, symBinAddr: 0x1000079CC, symSize: 0x24 }
  - { offsetInCU: 0xF4D2, offset: 0xF4D2, size: 0x8, addend: 0x0, symName: __ZNSt3__14copyB7v160006IPKcPcEET0_T_S5_S4_, symObjAddr: 0x4158, symBinAddr: 0x100007A34, symSize: 0x40 }
  - { offsetInCU: 0xF52C, offset: 0xF52C, size: 0x8, addend: 0x0, symName: __ZNSt3__16__copyB7v160006INS_17_ClassicAlgPolicyEPKcS3_PcEENS_4pairIT0_T2_EES6_T1_S7_, symObjAddr: 0x4198, symBinAddr: 0x100007A74, symSize: 0x44 }
  - { offsetInCU: 0xF598, offset: 0xF598, size: 0x8, addend: 0x0, symName: __ZNSt3__123__dispatch_copy_or_moveB7v160006INS_17_ClassicAlgPolicyENS_11__copy_loopIS1_EENS_14__copy_trivialEPKcS6_PcEENS_4pairIT2_T4_EES9_T3_SA_, symObjAddr: 0x41DC, symBinAddr: 0x100007AB8, symSize: 0x44 }
  - { offsetInCU: 0xF616, offset: 0xF616, size: 0x8, addend: 0x0, symName: __ZNSt3__121__unwrap_and_dispatchB7v160006INS_10__overloadINS_11__copy_loopINS_17_ClassicAlgPolicyEEENS_14__copy_trivialEEEPKcS8_PcLi0EEENS_4pairIT0_T2_EESB_T1_SC_, symObjAddr: 0x4220, symBinAddr: 0x100007AFC, symSize: 0xB4 }
  - { offsetInCU: 0xF6A4, offset: 0xF6A4, size: 0x8, addend: 0x0, symName: __ZNSt3__114__unwrap_rangeB7v160006IPKcS2_EENS_4pairIT0_S4_EET_S6_, symObjAddr: 0x42D4, symBinAddr: 0x100007BB0, symSize: 0x60 }
  - { offsetInCU: 0xF839, offset: 0xF839, size: 0x8, addend: 0x0, symName: __ZNSt3__113__unwrap_iterB7v160006IPcNS_18__unwrap_iter_implIS1_Lb1EEELi0EEEDTclsrT0_8__unwrapclsr3stdE7declvalIT_EEEES5_, symObjAddr: 0x437C, symBinAddr: 0x100007C58, symSize: 0x24 }
  - { offsetInCU: 0xF87D, offset: 0xF87D, size: 0x8, addend: 0x0, symName: __ZNSt3__19make_pairB7v160006IPKcPcEENS_4pairINS_18__unwrap_ref_decayIT_E4typeENS5_IT0_E4typeEEEOS6_OS9_, symObjAddr: 0x43A0, symBinAddr: 0x100007C7C, symSize: 0x38 }
  - { offsetInCU: 0xF8CC, offset: 0xF8CC, size: 0x8, addend: 0x0, symName: __ZNSt3__114__rewrap_rangeB7v160006IPKcS2_EET_S3_T0_, symObjAddr: 0x43D8, symBinAddr: 0x100007CB4, symSize: 0x2C }
  - { offsetInCU: 0xF918, offset: 0xF918, size: 0x8, addend: 0x0, symName: __ZNSt3__113__rewrap_iterB7v160006IPcS1_NS_18__unwrap_iter_implIS1_Lb1EEEEET_S4_T0_, symObjAddr: 0x4404, symBinAddr: 0x100007CE0, symSize: 0x3C }
  - { offsetInCU: 0xF96D, offset: 0xF96D, size: 0x8, addend: 0x0, symName: __ZNSt3__19make_pairB7v160006IPKcS2_EENS_4pairINS_18__unwrap_ref_decayIT_E4typeENS4_IT0_E4typeEEEOS5_OS8_, symObjAddr: 0x4440, symBinAddr: 0x100007D1C, symSize: 0x38 }
  - { offsetInCU: 0xF9BC, offset: 0xF9BC, size: 0x8, addend: 0x0, symName: __ZNSt3__113__unwrap_iterB7v160006IPKcNS_18__unwrap_iter_implIS2_Lb1EEELi0EEEDTclsrT0_8__unwrapclsr3stdE7declvalIT_EEEES6_, symObjAddr: 0x4478, symBinAddr: 0x100007D54, symSize: 0x24 }
  - { offsetInCU: 0xFB27, offset: 0xFB27, size: 0x8, addend: 0x0, symName: __ZNSt3__112__to_addressB7v160006IKcEEPT_S3_, symObjAddr: 0x4530, symBinAddr: 0x100007E0C, symSize: 0x14 }
  - { offsetInCU: 0xFB5C, offset: 0xFB5C, size: 0x8, addend: 0x0, symName: __ZNSt3__119__copy_trivial_implB7v160006IKccEENS_4pairIPT_PT0_EES4_S4_S6_, symObjAddr: 0x4544, symBinAddr: 0x100007E20, symSize: 0x7C }
  - { offsetInCU: 0xFBC4, offset: 0xFBC4, size: 0x8, addend: 0x0, symName: __ZNSt3__19make_pairB7v160006IRPKcPcEENS_4pairINS_18__unwrap_ref_decayIT_E4typeENS6_IT0_E4typeEEEOS7_OSA_, symObjAddr: 0x45C0, symBinAddr: 0x100007E9C, symSize: 0x38 }
  - { offsetInCU: 0xFC66, offset: 0xFC66, size: 0x8, addend: 0x0, symName: __ZNSt3__113__rewrap_iterB7v160006IPKcS2_NS_18__unwrap_iter_implIS2_Lb1EEEEET_S5_T0_, symObjAddr: 0x46FC, symBinAddr: 0x100007FD8, symSize: 0x3C }
  - { offsetInCU: 0xFCEE, offset: 0xFCEE, size: 0x8, addend: 0x0, symName: __ZNSt3__16fill_nB7v160006IPcmcEET_S2_T0_RKT1_, symObjAddr: 0x4880, symBinAddr: 0x10000815C, symSize: 0x44 }
  - { offsetInCU: 0xFD51, offset: 0xFD51, size: 0x8, addend: 0x0, symName: __ZNSt3__18__fill_nB7v160006IPcmcEET_S2_T0_RKT1_, symObjAddr: 0x48C4, symBinAddr: 0x1000081A0, symSize: 0x64 }
  - { offsetInCU: 0xFDB4, offset: 0xFDB4, size: 0x8, addend: 0x0, symName: __ZNSt3__121__convert_to_integralB7v160006Em, symObjAddr: 0x4928, symBinAddr: 0x100008204, symSize: 0x14 }
  - { offsetInCU: 0xFDE0, offset: 0xFDE0, size: 0x8, addend: 0x0, symName: __ZNSt3__119__debug_db_insert_cB7v160006INS_6vectorIP5TokenNS_9allocatorIS3_EEEEEEvPT_, symObjAddr: 0x49D0, symBinAddr: 0x1000082AC, symSize: 0x10 }
  - { offsetInCU: 0xFE11, offset: 0xFE11, size: 0x8, addend: 0x0, symName: __ZNSt3__112__to_addressB7v160006IP5TokenEEPT_S4_, symObjAddr: 0x4D08, symBinAddr: 0x1000085E4, symSize: 0x14 }
  - { offsetInCU: 0xFE46, offset: 0xFE46, size: 0x8, addend: 0x0, symName: __ZNSt3__13maxB7v160006ImEERKT_S3_S3_, symObjAddr: 0x5104, symBinAddr: 0x1000089E0, symSize: 0x2C }
  - { offsetInCU: 0xFE89, offset: 0xFE89, size: 0x8, addend: 0x0, symName: __ZNSt3__13minB7v160006ImEERKT_S3_S3_, symObjAddr: 0x5130, symBinAddr: 0x100008A0C, symSize: 0x2C }
  - { offsetInCU: 0x100B6, offset: 0x100B6, size: 0x8, addend: 0x0, symName: __ZNSt3__13minB7v160006ImNS_6__lessImmEEEERKT_S5_S5_T0_, symObjAddr: 0x51BC, symBinAddr: 0x100008A98, symSize: 0x54 }
  - { offsetInCU: 0x1014B, offset: 0x1014B, size: 0x8, addend: 0x0, symName: __ZNSt3__13maxB7v160006ImNS_6__lessImmEEEERKT_S5_S5_T0_, symObjAddr: 0x52F8, symBinAddr: 0x100008BD4, symSize: 0x54 }
  - { offsetInCU: 0x101A5, offset: 0x101A5, size: 0x8, addend: 0x0, symName: __ZNSt3__119__allocate_at_leastB7v160006INS_9allocatorIP5TokenEEEENS_19__allocation_resultINS_16allocator_traitsIT_E7pointerEEERS7_m, symObjAddr: 0x545C, symBinAddr: 0x100008D38, symSize: 0x40 }
  - { offsetInCU: 0x101E8, offset: 0x101E8, size: 0x8, addend: 0x0, symName: __ZNSt3__142__uninitialized_allocator_move_if_noexceptB7v160006INS_9allocatorIP5TokenEENS_16reverse_iteratorIPS3_EES7_S3_vEET1_RT_T0_SB_S8_, symObjAddr: 0x56C8, symBinAddr: 0x100008FA4, symSize: 0x78 }
  - { offsetInCU: 0x10265, offset: 0x10265, size: 0x8, addend: 0x0, symName: __ZNSt3__14swapB7v160006IPP5TokenEENS_9enable_ifIXaasr21is_move_constructibleIT_EE5valuesr18is_move_assignableIS5_EE5valueEvE4typeERS5_S8_, symObjAddr: 0x578C, symBinAddr: 0x100009068, symSize: 0x3C }
  - { offsetInCU: 0x102B6, offset: 0x102B6, size: 0x8, addend: 0x0, symName: __ZNSt3__125__debug_db_invalidate_allB7v160006INS_6vectorIP5TokenNS_9allocatorIS3_EEEEEEvPT_, symObjAddr: 0x5874, symBinAddr: 0x100009150, symSize: 0x10 }
  - { offsetInCU: 0x102E7, offset: 0x102E7, size: 0x8, addend: 0x0, symName: __ZNSt3__14moveB7v160006INS_16reverse_iteratorIPP5TokenEES5_EET0_T_S7_S6_, symObjAddr: 0x58CC, symBinAddr: 0x1000091A8, symSize: 0x78 }
  - { offsetInCU: 0x10341, offset: 0x10341, size: 0x8, addend: 0x0, symName: __ZNSt3__16__moveB7v160006INS_17_ClassicAlgPolicyENS_16reverse_iteratorIPP5TokenEES6_S6_EENS_4pairIT0_T2_EES8_T1_S9_, symObjAddr: 0x5944, symBinAddr: 0x100009220, symSize: 0x64 }
  - { offsetInCU: 0x103AD, offset: 0x103AD, size: 0x8, addend: 0x0, symName: __ZNSt3__123__dispatch_copy_or_moveB7v160006INS_17_ClassicAlgPolicyENS_11__move_loopIS1_EENS_14__move_trivialENS_16reverse_iteratorIPP5TokenEES9_S9_EENS_4pairIT2_T4_EESB_T3_SC_, symObjAddr: 0x59A8, symBinAddr: 0x100009284, symSize: 0x64 }
  - { offsetInCU: 0x1042B, offset: 0x1042B, size: 0x8, addend: 0x0, symName: __ZNSt3__121__unwrap_and_dispatchB7v160006INS_10__overloadINS_11__move_loopINS_17_ClassicAlgPolicyEEENS_14__move_trivialEEENS_16reverse_iteratorIPP5TokenEESB_SB_Li0EEENS_4pairIT0_T2_EESD_T1_SE_, symObjAddr: 0x5A0C, symBinAddr: 0x1000092E8, symSize: 0x12C }
  - { offsetInCU: 0x104BB, offset: 0x104BB, size: 0x8, addend: 0x0, symName: __ZNSt3__114__unwrap_rangeB7v160006INS_16reverse_iteratorIPP5TokenEES5_EENS_4pairIT0_S7_EET_S9_, symObjAddr: 0x5B38, symBinAddr: 0x100009414, symSize: 0x84 }
  - { offsetInCU: 0x10636, offset: 0x10636, size: 0x8, addend: 0x0, symName: __ZNSt3__113__unwrap_iterB7v160006INS_16reverse_iteratorIPP5TokenEENS_18__unwrap_iter_implIS5_Lb0EEELi0EEEDTclsrT0_8__unwrapclsr3stdE7declvalIT_EEEES9_, symObjAddr: 0x5C5C, symBinAddr: 0x100009538, symSize: 0x44 }
  - { offsetInCU: 0x1067A, offset: 0x1067A, size: 0x8, addend: 0x0, symName: __ZNSt3__19make_pairB7v160006INS_16reverse_iteratorIPP5TokenEES5_EENS_4pairINS_18__unwrap_ref_decayIT_E4typeENS7_IT0_E4typeEEEOS8_OSB_, symObjAddr: 0x5CA0, symBinAddr: 0x10000957C, symSize: 0x38 }
  - { offsetInCU: 0x106C9, offset: 0x106C9, size: 0x8, addend: 0x0, symName: __ZNSt3__114__rewrap_rangeB7v160006INS_16reverse_iteratorIPP5TokenEES5_EET_S6_T0_, symObjAddr: 0x5CD8, symBinAddr: 0x1000095B4, symSize: 0x5C }
  - { offsetInCU: 0x10715, offset: 0x10715, size: 0x8, addend: 0x0, symName: __ZNSt3__113__rewrap_iterB7v160006INS_16reverse_iteratorIPP5TokenEES5_NS_18__unwrap_iter_implIS5_Lb0EEEEET_S8_T0_, symObjAddr: 0x5D34, symBinAddr: 0x100009610, symSize: 0x74 }
  - { offsetInCU: 0x1076A, offset: 0x1076A, size: 0x8, addend: 0x0, symName: __ZNSt3__1neB7v160006IPP5TokenS3_EEbRKNS_16reverse_iteratorIT_EERKNS4_IT0_EE, symObjAddr: 0x5DA8, symBinAddr: 0x100009684, symSize: 0x48 }
  - { offsetInCU: 0x10D82, offset: 0x10D82, size: 0x8, addend: 0x0, symName: __ZSt28__throw_bad_array_new_lengthB7v160006v, symObjAddr: 0x4030, symBinAddr: 0x10000790C, symSize: 0x34 }
  - { offsetInCU: 0x118E2, offset: 0x118E2, size: 0x8, addend: 0x0, symName: __ZNSt3__16vectorIP5TokenNS_9allocatorIS2_EEE26__swap_out_circular_bufferERNS_14__split_bufferIS2_RS4_EE, symObjAddr: 0x4F04, symBinAddr: 0x1000087E0, symSize: 0x118 }
  - { offsetInCU: 0x1199D, offset: 0x1199D, size: 0x8, addend: 0x0, symName: __Z7isalnumi, symObjAddr: 0x1118, symBinAddr: 0x1000049F4, symSize: 0x28 }
  - { offsetInCU: 0x119C9, offset: 0x119C9, size: 0x8, addend: 0x0, symName: __Z7isalphai, symObjAddr: 0x1AE0, symBinAddr: 0x1000053BC, symSize: 0x28 }
  - { offsetInCU: 0x11A89, offset: 0x11A89, size: 0x8, addend: 0x0, symName: __Z7isspacei, symObjAddr: 0x10F0, symBinAddr: 0x1000049CC, symSize: 0x28 }
  - { offsetInCU: 0x13FE4, offset: 0x13FE4, size: 0x8, addend: 0x0, symName: __ZN5Lexer7advanceEv, symObjAddr: 0x0, symBinAddr: 0x1000038DC, symSize: 0x2C }
  - { offsetInCU: 0x1400C, offset: 0x1400C, size: 0x8, addend: 0x0, symName: __ZN11InputStream7getNextEv, symObjAddr: 0x2C, symBinAddr: 0x100003908, symSize: 0x60 }
  - { offsetInCU: 0x14032, offset: 0x14032, size: 0x8, addend: 0x0, symName: __ZN5Lexer15getCurrentTokenEv, symObjAddr: 0x8C, symBinAddr: 0x100003968, symSize: 0x44 }
  - { offsetInCU: 0x1405A, offset: 0x1405A, size: 0x8, addend: 0x0, symName: __ZNSt3__16vectorIP5TokenNS_9allocatorIS2_EEE2atEm, symObjAddr: 0xD0, symBinAddr: 0x1000039AC, symSize: 0x60 }
  - { offsetInCU: 0x1409B, offset: 0x1409B, size: 0x8, addend: 0x0, symName: __ZN5TokenC1ERKS_, symObjAddr: 0x130, symBinAddr: 0x100003A0C, symSize: 0x34 }
  - { offsetInCU: 0x140D0, offset: 0x140D0, size: 0x8, addend: 0x0, symName: __ZN5Lexer13peekNextTokenEv, symObjAddr: 0x164, symBinAddr: 0x100003A40, symSize: 0x50 }
  - { offsetInCU: 0x140F8, offset: 0x140F8, size: 0x8, addend: 0x0, symName: __ZN5Lexer10startStateEv, symObjAddr: 0x1B4, symBinAddr: 0x100003A90, symSize: 0x2A8 }
  - { offsetInCU: 0x14120, offset: 0x14120, size: 0x8, addend: 0x0, symName: __ZNSt3__112basic_stringIcNS_11char_traitsIcEENS_9allocatorIcEEEaSB7v160006EPKc, symObjAddr: 0x488, symBinAddr: 0x100003D64, symSize: 0x2C }
  - { offsetInCU: 0x14155, offset: 0x14155, size: 0x8, addend: 0x0, symName: __ZN11InputStream13getLineNumberEv, symObjAddr: 0x4B4, symBinAddr: 0x100003D90, symSize: 0x18 }
  - { offsetInCU: 0x1417B, offset: 0x1417B, size: 0x8, addend: 0x0, symName: __ZN5Lexer9parseCharEc, symObjAddr: 0x4CC, symBinAddr: 0x100003DA8, symSize: 0x124 }
  - { offsetInCU: 0x141B1, offset: 0x141B1, size: 0x8, addend: 0x0, symName: __ZN5Lexer9checkDashEv, symObjAddr: 0x5F0, symBinAddr: 0x100003ECC, symSize: 0x170 }
  - { offsetInCU: 0x141D9, offset: 0x141D9, size: 0x8, addend: 0x0, symName: __ZNSt3__112basic_stringIcNS_11char_traitsIcEENS_9allocatorIcEEEpLB7v160006Ec, symObjAddr: 0x760, symBinAddr: 0x10000403C, symSize: 0x34 }
  - { offsetInCU: 0x1420E, offset: 0x1420E, size: 0x8, addend: 0x0, symName: __ZN5Lexer5getIDEv, symObjAddr: 0x794, symBinAddr: 0x100004070, symSize: 0x1B4 }
  - { offsetInCU: 0x14236, offset: 0x14236, size: 0x8, addend: 0x0, symName: __ZN5Lexer9getStringEv, symObjAddr: 0x948, symBinAddr: 0x100004224, symSize: 0xF4 }
  - { offsetInCU: 0x1425E, offset: 0x1425E, size: 0x8, addend: 0x0, symName: __ZN5Lexer16checkEndOfStringEv, symObjAddr: 0xA3C, symBinAddr: 0x100004318, symSize: 0x10C }
  - { offsetInCU: 0x14286, offset: 0x14286, size: 0x8, addend: 0x0, symName: __ZN5Lexer10getCommentEv, symObjAddr: 0xB48, symBinAddr: 0x100004424, symSize: 0x150 }
  - { offsetInCU: 0x142AE, offset: 0x142AE, size: 0x8, addend: 0x0, symName: __ZN5Lexer15getMultiCommentEv, symObjAddr: 0xC98, symBinAddr: 0x100004574, symSize: 0x104 }
  - { offsetInCU: 0x142D6, offset: 0x142D6, size: 0x8, addend: 0x0, symName: __ZN5Lexer14getVerticalBarEv, symObjAddr: 0xD9C, symBinAddr: 0x100004678, symSize: 0x12C }
  - { offsetInCU: 0x142FE, offset: 0x142FE, size: 0x8, addend: 0x0, symName: __ZN5Lexer17createAndAddTokenENSt3__112basic_stringIcNS0_11char_traitsIcEENS0_9allocatorIcEEEES6_i, symObjAddr: 0xEC8, symBinAddr: 0x1000047A4, symSize: 0x1C8 }
  - { offsetInCU: 0x1436B, offset: 0x1436B, size: 0x8, addend: 0x0, symName: __ZNSt3__112basic_stringIcNS_11char_traitsIcEENS_9allocatorIcEEEC1B7v160006IDnEEPKc, symObjAddr: 0x1090, symBinAddr: 0x10000496C, symSize: 0x34 }
  - { offsetInCU: 0x143A9, offset: 0x143A9, size: 0x8, addend: 0x0, symName: __ZN11InputStream4peekEv, symObjAddr: 0x10C4, symBinAddr: 0x1000049A0, symSize: 0x2C }
  - { offsetInCU: 0x143CF, offset: 0x143CF, size: 0x8, addend: 0x0, symName: __ZN5Lexer11isSpecialIDEv, symObjAddr: 0x1140, symBinAddr: 0x100004A1C, symSize: 0x2EC }
  - { offsetInCU: 0x143F7, offset: 0x143F7, size: 0x8, addend: 0x0, symName: __ZN5Lexer7isPunctEc, symObjAddr: 0x15E8, symBinAddr: 0x100004EC4, symSize: 0x1DC }
  - { offsetInCU: 0x1444E, offset: 0x1444E, size: 0x8, addend: 0x0, symName: __ZN5Lexer14isGrammarPunctEc, symObjAddr: 0x17C4, symBinAddr: 0x1000050A0, symSize: 0x1E8 }
  - { offsetInCU: 0x144A5, offset: 0x144A5, size: 0x8, addend: 0x0, symName: __ZN5Lexer12isWhitespaceEc, symObjAddr: 0x19AC, symBinAddr: 0x100005288, symSize: 0xB8 }
  - { offsetInCU: 0x144DD, offset: 0x144DD, size: 0x8, addend: 0x0, symName: __ZN5Lexer7isColonEc, symObjAddr: 0x1A64, symBinAddr: 0x100005340, symSize: 0x7C }
  - { offsetInCU: 0x14515, offset: 0x14515, size: 0x8, addend: 0x0, symName: __ZN5LexerC2ENSt3__112basic_stringIcNS0_11char_traitsIcEENS0_9allocatorIcEEEE, symObjAddr: 0x1B08, symBinAddr: 0x1000053E4, symSize: 0x160 }
  - { offsetInCU: 0x14552, offset: 0x14552, size: 0x8, addend: 0x0, symName: __ZN5TokenC1Ev, symObjAddr: 0x1C68, symBinAddr: 0x100005544, symSize: 0x2C }
  - { offsetInCU: 0x1457C, offset: 0x1457C, size: 0x8, addend: 0x0, symName: __ZNSt3__112basic_stringIcNS_11char_traitsIcEENS_9allocatorIcEEEC1B7v160006Ev, symObjAddr: 0x1C94, symBinAddr: 0x100005570, symSize: 0x2C }
  - { offsetInCU: 0x145A6, offset: 0x145A6, size: 0x8, addend: 0x0, symName: __ZN11InputStreamC1ENSt3__112basic_stringIcNS0_11char_traitsIcEENS0_9allocatorIcEEEE, symObjAddr: 0x1CC0, symBinAddr: 0x10000559C, symSize: 0x34 }
  - { offsetInCU: 0x145DF, offset: 0x145DF, size: 0x8, addend: 0x0, symName: __ZNSt3__16vectorIP5TokenNS_9allocatorIS2_EEEC1B7v160006Ev, symObjAddr: 0x1CF4, symBinAddr: 0x1000055D0, symSize: 0x2C }
  - { offsetInCU: 0x14609, offset: 0x14609, size: 0x8, addend: 0x0, symName: __ZN5Lexer13exitAndReturnEv, symObjAddr: 0x1D20, symBinAddr: 0x1000055FC, symSize: 0x10 }
  - { offsetInCU: 0x14632, offset: 0x14632, size: 0x8, addend: 0x0, symName: __ZN5TokenD1Ev, symObjAddr: 0x1D30, symBinAddr: 0x10000560C, symSize: 0x2C }
  - { offsetInCU: 0x1465E, offset: 0x1465E, size: 0x8, addend: 0x0, symName: __ZN5LexerC1ENSt3__112basic_stringIcNS0_11char_traitsIcEENS0_9allocatorIcEEEE, symObjAddr: 0x1D5C, symBinAddr: 0x100005638, symSize: 0x34 }
  - { offsetInCU: 0x1469B, offset: 0x1469B, size: 0x8, addend: 0x0, symName: __ZN5Lexer9parenTypeEc, symObjAddr: 0x1D90, symBinAddr: 0x10000566C, symSize: 0x14C }
  - { offsetInCU: 0x146E3, offset: 0x146E3, size: 0x8, addend: 0x0, symName: __ZNSt3__112basic_stringIcNS_11char_traitsIcEENS_9allocatorIcEEEaSB7v160006EOS5_, symObjAddr: 0x1F10, symBinAddr: 0x1000057EC, symSize: 0x34 }
  - { offsetInCU: 0x14718, offset: 0x14718, size: 0x8, addend: 0x0, symName: __ZN5TokenC1ENSt3__112basic_stringIcNS0_11char_traitsIcEENS0_9allocatorIcEEEES6_i, symObjAddr: 0x1F84, symBinAddr: 0x100005860, symSize: 0x44 }
  - { offsetInCU: 0x1476E, offset: 0x1476E, size: 0x8, addend: 0x0, symName: __ZNSt3__16vectorIP5TokenNS_9allocatorIS2_EEE9push_backB7v160006ERKS2_, symObjAddr: 0x1FC8, symBinAddr: 0x1000058A4, symSize: 0x6C }
  - { offsetInCU: 0x147A5, offset: 0x147A5, size: 0x8, addend: 0x0, symName: __ZN5TokenC2ERKS_, symObjAddr: 0x2034, symBinAddr: 0x100005910, symSize: 0x7C }
  - { offsetInCU: 0x147D9, offset: 0x147D9, size: 0x8, addend: 0x0, symName: __Z8__istypeim, symObjAddr: 0x20B0, symBinAddr: 0x10000598C, symSize: 0x8C }
  - { offsetInCU: 0x14813, offset: 0x14813, size: 0x8, addend: 0x0, symName: __Z7isasciii, symObjAddr: 0x213C, symBinAddr: 0x100005A18, symSize: 0x24 }
  - { offsetInCU: 0x14840, offset: 0x14840, size: 0x8, addend: 0x0, symName: __ZN5TokenC2Ev, symObjAddr: 0x2160, symBinAddr: 0x100005A3C, symSize: 0x38 }
  - { offsetInCU: 0x1486A, offset: 0x1486A, size: 0x8, addend: 0x0, symName: __ZN11InputStreamC2ENSt3__112basic_stringIcNS0_11char_traitsIcEENS0_9allocatorIcEEEE, symObjAddr: 0x2198, symBinAddr: 0x100005A74, symSize: 0xCC }
  - { offsetInCU: 0x148A3, offset: 0x148A3, size: 0x8, addend: 0x0, symName: __ZNSt3__114basic_ifstreamIcNS_11char_traitsIcEEEC1Ev, symObjAddr: 0x2264, symBinAddr: 0x100005B40, symSize: 0xE8 }
  - { offsetInCU: 0x148CF, offset: 0x148CF, size: 0x8, addend: 0x0, symName: __ZNKSt3__19basic_iosIcNS_11char_traitsIcEEEntB7v160006Ev, symObjAddr: 0x234C, symBinAddr: 0x100005C28, symSize: 0x28 }
  - { offsetInCU: 0x148F5, offset: 0x148F5, size: 0x8, addend: 0x0, symName: __ZNSt3__19basic_iosIcNS_11char_traitsIcEEEC2B7v160006Ev, symObjAddr: 0x23BC, symBinAddr: 0x100005C98, symSize: 0x44 }
  - { offsetInCU: 0x1491F, offset: 0x1491F, size: 0x8, addend: 0x0, symName: __ZNSt3__113basic_istreamIcNS_11char_traitsIcEEEC2B7v160006EPNS_15basic_streambufIcS2_EE, symObjAddr: 0x2400, symBinAddr: 0x100005CDC, symSize: 0x64 }
  - { offsetInCU: 0x14964, offset: 0x14964, size: 0x8, addend: 0x0, symName: __ZNSt3__18ios_baseC2B7v160006Ev, symObjAddr: 0x2464, symBinAddr: 0x100005D40, symSize: 0x24 }
  - { offsetInCU: 0x1498E, offset: 0x1498E, size: 0x8, addend: 0x0, symName: __ZNSt3__19basic_iosIcNS_11char_traitsIcEEE4initB7v160006EPNS_15basic_streambufIcS2_EE, symObjAddr: 0x2488, symBinAddr: 0x100005D64, symSize: 0x44 }
  - { offsetInCU: 0x149C5, offset: 0x149C5, size: 0x8, addend: 0x0, symName: __ZNSt3__111char_traitsIcE3eofEv, symObjAddr: 0x24CC, symBinAddr: 0x100005DA8, symSize: 0x8 }
  - { offsetInCU: 0x149D9, offset: 0x149D9, size: 0x8, addend: 0x0, symName: __ZNKSt3__19basic_iosIcNS_11char_traitsIcEEE4failB7v160006Ev, symObjAddr: 0x24D4, symBinAddr: 0x100005DB0, symSize: 0x28 }
  - { offsetInCU: 0x149FF, offset: 0x149FF, size: 0x8, addend: 0x0, symName: __ZNKSt3__18ios_base4failB7v160006Ev, symObjAddr: 0x24FC, symBinAddr: 0x100005DD8, symSize: 0x28 }
  - { offsetInCU: 0x14A27, offset: 0x14A27, size: 0x8, addend: 0x0, symName: __ZNSt3__111char_traitsIcE6lengthEPKc, symObjAddr: 0x2710, symBinAddr: 0x100005FEC, symSize: 0x34 }
  - { offsetInCU: 0x14A68, offset: 0x14A68, size: 0x8, addend: 0x0, symName: __ZNKSt3__113basic_ostreamIcNS_11char_traitsIcEEE6sentrycvbB7v160006Ev, symObjAddr: 0x2744, symBinAddr: 0x100006020, symSize: 0x1C }
  - { offsetInCU: 0x14A8E, offset: 0x14A8E, size: 0x8, addend: 0x0, symName: __ZNSt3__119ostreambuf_iteratorIcNS_11char_traitsIcEEEC1B7v160006ERNS_13basic_ostreamIcS2_EE, symObjAddr: 0x29A0, symBinAddr: 0x10000627C, symSize: 0x34 }
  - { offsetInCU: 0x14AC6, offset: 0x14AC6, size: 0x8, addend: 0x0, symName: __ZNKSt3__18ios_base5flagsB7v160006Ev, symObjAddr: 0x29D4, symBinAddr: 0x1000062B0, symSize: 0x18 }
  - { offsetInCU: 0x14AEE, offset: 0x14AEE, size: 0x8, addend: 0x0, symName: __ZNKSt3__19basic_iosIcNS_11char_traitsIcEEE4fillB7v160006Ev, symObjAddr: 0x29EC, symBinAddr: 0x1000062C8, symSize: 0x64 }
  - { offsetInCU: 0x14B16, offset: 0x14B16, size: 0x8, addend: 0x0, symName: __ZNKSt3__119ostreambuf_iteratorIcNS_11char_traitsIcEEE6failedB7v160006Ev, symObjAddr: 0x2A50, symBinAddr: 0x10000632C, symSize: 0x24 }
  - { offsetInCU: 0x14B3C, offset: 0x14B3C, size: 0x8, addend: 0x0, symName: __ZNSt3__19basic_iosIcNS_11char_traitsIcEEE8setstateB7v160006Ej, symObjAddr: 0x2A74, symBinAddr: 0x100006350, symSize: 0x2C }
  - { offsetInCU: 0x14B71, offset: 0x14B71, size: 0x8, addend: 0x0, symName: __ZNKSt3__18ios_base5widthB7v160006Ev, symObjAddr: 0x2AAC, symBinAddr: 0x100006388, symSize: 0x18 }
  - { offsetInCU: 0x14B99, offset: 0x14B99, size: 0x8, addend: 0x0, symName: __ZNSt3__115basic_streambufIcNS_11char_traitsIcEEE5sputnB7v160006EPKcl, symObjAddr: 0x2AC4, symBinAddr: 0x1000063A0, symSize: 0x3C }
  - { offsetInCU: 0x14BDB, offset: 0x14BDB, size: 0x8, addend: 0x0, symName: __ZNSt3__112basic_stringIcNS_11char_traitsIcEENS_9allocatorIcEEEC1B7v160006Emc, symObjAddr: 0x2B00, symBinAddr: 0x1000063DC, symSize: 0x3C }
  - { offsetInCU: 0x14C23, offset: 0x14C23, size: 0x8, addend: 0x0, symName: __ZNSt3__112basic_stringIcNS_11char_traitsIcEENS_9allocatorIcEEE4dataB7v160006Ev, symObjAddr: 0x2B3C, symBinAddr: 0x100006418, symSize: 0x28 }
  - { offsetInCU: 0x14C49, offset: 0x14C49, size: 0x8, addend: 0x0, symName: __ZNSt3__18ios_base5widthB7v160006El, symObjAddr: 0x2B64, symBinAddr: 0x100006440, symSize: 0x2C }
  - { offsetInCU: 0x14C8F, offset: 0x14C8F, size: 0x8, addend: 0x0, symName: __ZNSt3__112basic_stringIcNS_11char_traitsIcEENS_9allocatorIcEEEC2B7v160006Emc, symObjAddr: 0x2B90, symBinAddr: 0x10000646C, symSize: 0x54 }
  - { offsetInCU: 0x14CDC, offset: 0x14CDC, size: 0x8, addend: 0x0, symName: __ZNSt3__117__compressed_pairINS_12basic_stringIcNS_11char_traitsIcEENS_9allocatorIcEEE5__repES5_EC1B7v160006INS_18__default_init_tagESA_EEOT_OT0_, symObjAddr: 0x2BE4, symBinAddr: 0x1000064C0, symSize: 0x3C }
  - { offsetInCU: 0x14D34, offset: 0x14D34, size: 0x8, addend: 0x0, symName: __ZNSt3__117__compressed_pairINS_12basic_stringIcNS_11char_traitsIcEENS_9allocatorIcEEE5__repES5_EC2B7v160006INS_18__default_init_tagESA_EEOT_OT0_, symObjAddr: 0x2C30, symBinAddr: 0x10000650C, symSize: 0x3C }
  - { offsetInCU: 0x14D8C, offset: 0x14D8C, size: 0x8, addend: 0x0, symName: __ZNSt3__122__compressed_pair_elemINS_12basic_stringIcNS_11char_traitsIcEENS_9allocatorIcEEE5__repELi0ELb0EEC2B7v160006ENS_18__default_init_tagE, symObjAddr: 0x2C6C, symBinAddr: 0x100006548, symSize: 0x14 }
  - { offsetInCU: 0x14DC1, offset: 0x14DC1, size: 0x8, addend: 0x0, symName: __ZNSt3__122__compressed_pair_elemINS_9allocatorIcEELi1ELb1EEC2B7v160006ENS_18__default_init_tagE, symObjAddr: 0x2C80, symBinAddr: 0x10000655C, symSize: 0x2C }
  - { offsetInCU: 0x14DF6, offset: 0x14DF6, size: 0x8, addend: 0x0, symName: __ZNSt3__19allocatorIcEC2B7v160006Ev, symObjAddr: 0x2CAC, symBinAddr: 0x100006588, symSize: 0x2C }
  - { offsetInCU: 0x14E20, offset: 0x14E20, size: 0x8, addend: 0x0, symName: __ZNSt3__116__non_trivial_ifILb1ENS_9allocatorIcEEEC2B7v160006Ev, symObjAddr: 0x2CD8, symBinAddr: 0x1000065B4, symSize: 0x14 }
  - { offsetInCU: 0x14E4A, offset: 0x14E4A, size: 0x8, addend: 0x0, symName: __ZNSt3__112basic_stringIcNS_11char_traitsIcEENS_9allocatorIcEEE13__get_pointerB7v160006Ev, symObjAddr: 0x2D00, symBinAddr: 0x1000065DC, symSize: 0x54 }
  - { offsetInCU: 0x14E70, offset: 0x14E70, size: 0x8, addend: 0x0, symName: __ZNKSt3__112basic_stringIcNS_11char_traitsIcEENS_9allocatorIcEEE9__is_longB7v160006Ev, symObjAddr: 0x2D54, symBinAddr: 0x100006630, symSize: 0x38 }
  - { offsetInCU: 0x14E96, offset: 0x14E96, size: 0x8, addend: 0x0, symName: __ZNSt3__112basic_stringIcNS_11char_traitsIcEENS_9allocatorIcEEE18__get_long_pointerB7v160006Ev, symObjAddr: 0x2D8C, symBinAddr: 0x100006668, symSize: 0x28 }
  - { offsetInCU: 0x14EBC, offset: 0x14EBC, size: 0x8, addend: 0x0, symName: __ZNSt3__112basic_stringIcNS_11char_traitsIcEENS_9allocatorIcEEE19__get_short_pointerB7v160006Ev, symObjAddr: 0x2DB4, symBinAddr: 0x100006690, symSize: 0x28 }
  - { offsetInCU: 0x14EE2, offset: 0x14EE2, size: 0x8, addend: 0x0, symName: __ZNKSt3__117__compressed_pairINS_12basic_stringIcNS_11char_traitsIcEENS_9allocatorIcEEE5__repES5_E5firstB7v160006Ev, symObjAddr: 0x2DDC, symBinAddr: 0x1000066B8, symSize: 0x24 }
  - { offsetInCU: 0x14F08, offset: 0x14F08, size: 0x8, addend: 0x0, symName: __ZNKSt3__122__compressed_pair_elemINS_12basic_stringIcNS_11char_traitsIcEENS_9allocatorIcEEE5__repELi0ELb0EE5__getB7v160006Ev, symObjAddr: 0x2E00, symBinAddr: 0x1000066DC, symSize: 0x14 }
  - { offsetInCU: 0x14F2E, offset: 0x14F2E, size: 0x8, addend: 0x0, symName: __ZNSt3__117__compressed_pairINS_12basic_stringIcNS_11char_traitsIcEENS_9allocatorIcEEE5__repES5_E5firstB7v160006Ev, symObjAddr: 0x2E14, symBinAddr: 0x1000066F0, symSize: 0x24 }
  - { offsetInCU: 0x14F54, offset: 0x14F54, size: 0x8, addend: 0x0, symName: __ZNSt3__122__compressed_pair_elemINS_12basic_stringIcNS_11char_traitsIcEENS_9allocatorIcEEE5__repELi0ELb0EE5__getB7v160006Ev, symObjAddr: 0x2E38, symBinAddr: 0x100006714, symSize: 0x14 }
  - { offsetInCU: 0x14F7A, offset: 0x14F7A, size: 0x8, addend: 0x0, symName: __ZNSt3__114pointer_traitsIPcE10pointer_toB7v160006ERc, symObjAddr: 0x2E4C, symBinAddr: 0x100006728, symSize: 0x14 }
  - { offsetInCU: 0x14F9D, offset: 0x14F9D, size: 0x8, addend: 0x0, symName: __ZNSt3__119ostreambuf_iteratorIcNS_11char_traitsIcEEEC2B7v160006ERNS_13basic_ostreamIcS2_EE, symObjAddr: 0x2E60, symBinAddr: 0x10000673C, symSize: 0x54 }
  - { offsetInCU: 0x14FD5, offset: 0x14FD5, size: 0x8, addend: 0x0, symName: __ZNKSt3__19basic_iosIcNS_11char_traitsIcEEE5rdbufB7v160006Ev, symObjAddr: 0x2EB4, symBinAddr: 0x100006790, symSize: 0x24 }
  - { offsetInCU: 0x14FFD, offset: 0x14FFD, size: 0x8, addend: 0x0, symName: __ZNKSt3__18ios_base5rdbufB7v160006Ev, symObjAddr: 0x2ED8, symBinAddr: 0x1000067B4, symSize: 0x18 }
  - { offsetInCU: 0x15023, offset: 0x15023, size: 0x8, addend: 0x0, symName: __ZNSt3__111char_traitsIcE11eq_int_typeEii, symObjAddr: 0x2EF0, symBinAddr: 0x1000067CC, symSize: 0x28 }
  - { offsetInCU: 0x15054, offset: 0x15054, size: 0x8, addend: 0x0, symName: __ZNKSt3__19basic_iosIcNS_11char_traitsIcEEE5widenB7v160006Ec, symObjAddr: 0x2F18, symBinAddr: 0x1000067F4, symSize: 0x84 }
  - { offsetInCU: 0x150C2, offset: 0x150C2, size: 0x8, addend: 0x0, symName: __ZNKSt3__15ctypeIcE5widenB7v160006Ec, symObjAddr: 0x2FC8, symBinAddr: 0x1000068A4, symSize: 0x38 }
  - { offsetInCU: 0x150F7, offset: 0x150F7, size: 0x8, addend: 0x0, symName: __ZNSt3__18ios_base8setstateB7v160006Ej, symObjAddr: 0x3000, symBinAddr: 0x1000068DC, symSize: 0x34 }
  - { offsetInCU: 0x1512E, offset: 0x1512E, size: 0x8, addend: 0x0, symName: __ZN5TokenD2Ev, symObjAddr: 0x3058, symBinAddr: 0x100006934, symSize: 0x38 }
  - { offsetInCU: 0x1515A, offset: 0x1515A, size: 0x8, addend: 0x0, symName: __ZN5TokenC2ENSt3__112basic_stringIcNS0_11char_traitsIcEENS0_9allocatorIcEEEES6_i, symObjAddr: 0x3090, symBinAddr: 0x10000696C, symSize: 0xA8 }
  - { offsetInCU: 0x151B0, offset: 0x151B0, size: 0x8, addend: 0x0, symName: __ZNSt3__112basic_stringIcNS_11char_traitsIcEENS_9allocatorIcEEEC2B7v160006Ev, symObjAddr: 0x3138, symBinAddr: 0x100006A14, symSize: 0x50 }
  - { offsetInCU: 0x151DA, offset: 0x151DA, size: 0x8, addend: 0x0, symName: __ZNSt3__112basic_stringIcNS_11char_traitsIcEENS_9allocatorIcEEE14__default_initB7v160006Ev, symObjAddr: 0x3188, symBinAddr: 0x100006A64, symSize: 0x40 }
  - { offsetInCU: 0x15200, offset: 0x15200, size: 0x8, addend: 0x0, symName: __ZNSt3__112basic_stringIcNS_11char_traitsIcEENS_9allocatorIcEEE13__move_assignB7v160006ERS5_NS_17integral_constantIbLb1EEE, symObjAddr: 0x31C8, symBinAddr: 0x100006AA4, symSize: 0xC8 }
  - { offsetInCU: 0x15242, offset: 0x15242, size: 0x8, addend: 0x0, symName: __ZNSt3__116allocator_traitsINS_9allocatorIcEEE10deallocateB7v160006ERS2_Pcm, symObjAddr: 0x3290, symBinAddr: 0x100006B6C, symSize: 0x34 }
  - { offsetInCU: 0x15284, offset: 0x15284, size: 0x8, addend: 0x0, symName: __ZNSt3__112basic_stringIcNS_11char_traitsIcEENS_9allocatorIcEEE7__allocB7v160006Ev, symObjAddr: 0x32C4, symBinAddr: 0x100006BA0, symSize: 0x24 }
  - { offsetInCU: 0x152AA, offset: 0x152AA, size: 0x8, addend: 0x0, symName: __ZNKSt3__112basic_stringIcNS_11char_traitsIcEENS_9allocatorIcEEE14__get_long_capB7v160006Ev, symObjAddr: 0x32E8, symBinAddr: 0x100006BC4, symSize: 0x30 }
  - { offsetInCU: 0x152D0, offset: 0x152D0, size: 0x8, addend: 0x0, symName: __ZNSt3__112basic_stringIcNS_11char_traitsIcEENS_9allocatorIcEEE19__move_assign_allocB7v160006ERS5_, symObjAddr: 0x3318, symBinAddr: 0x100006BF4, symSize: 0x2C }
  - { offsetInCU: 0x15305, offset: 0x15305, size: 0x8, addend: 0x0, symName: __ZNSt3__112basic_stringIcNS_11char_traitsIcEENS_9allocatorIcEEE16__set_short_sizeB7v160006Em, symObjAddr: 0x3344, symBinAddr: 0x100006C20, symSize: 0x78 }
  - { offsetInCU: 0x1533A, offset: 0x1533A, size: 0x8, addend: 0x0, symName: __ZNSt3__111char_traitsIcE6assignERcRKc, symObjAddr: 0x33BC, symBinAddr: 0x100006C98, symSize: 0x24 }
  - { offsetInCU: 0x1536B, offset: 0x1536B, size: 0x8, addend: 0x0, symName: __ZNSt3__19allocatorIcE10deallocateB7v160006EPcm, symObjAddr: 0x33E0, symBinAddr: 0x100006CBC, symSize: 0x40 }
  - { offsetInCU: 0x153AD, offset: 0x153AD, size: 0x8, addend: 0x0, symName: __ZNSt3__117__compressed_pairINS_12basic_stringIcNS_11char_traitsIcEENS_9allocatorIcEEE5__repES5_E6secondB7v160006Ev, symObjAddr: 0x3548, symBinAddr: 0x100006E24, symSize: 0x24 }
  - { offsetInCU: 0x153D3, offset: 0x153D3, size: 0x8, addend: 0x0, symName: __ZNSt3__122__compressed_pair_elemINS_9allocatorIcEELi1ELb1EE5__getB7v160006Ev, symObjAddr: 0x356C, symBinAddr: 0x100006E48, symSize: 0x14 }
  - { offsetInCU: 0x153F9, offset: 0x153F9, size: 0x8, addend: 0x0, symName: __ZNSt3__112basic_stringIcNS_11char_traitsIcEENS_9allocatorIcEEE19__move_assign_allocB7v160006ERS5_NS_17integral_constantIbLb1EEE, symObjAddr: 0x3580, symBinAddr: 0x100006E5C, symSize: 0x38 }
  - { offsetInCU: 0x15439, offset: 0x15439, size: 0x8, addend: 0x0, symName: __ZNSt3__112basic_stringIcNS_11char_traitsIcEENS_9allocatorIcEEEC1B7v160006EOS5_, symObjAddr: 0x35B8, symBinAddr: 0x100006E94, symSize: 0x34 }
  - { offsetInCU: 0x15472, offset: 0x15472, size: 0x8, addend: 0x0, symName: __ZNSt3__112basic_stringIcNS_11char_traitsIcEENS_9allocatorIcEEEC2B7v160006EOS5_, symObjAddr: 0x35EC, symBinAddr: 0x100006EC8, symSize: 0x80 }
  - { offsetInCU: 0x154AB, offset: 0x154AB, size: 0x8, addend: 0x0, symName: __ZNKSt3__16vectorIP5TokenNS_9allocatorIS2_EEE4sizeB7v160006Ev, symObjAddr: 0x3680, symBinAddr: 0x100006F5C, symSize: 0x28 }
  - { offsetInCU: 0x154D1, offset: 0x154D1, size: 0x8, addend: 0x0, symName: __ZNKSt3__16vectorIP5TokenNS_9allocatorIS2_EEE20__throw_out_of_rangeB7v160006Ev, symObjAddr: 0x36A8, symBinAddr: 0x100006F84, symSize: 0x1C }
  - { offsetInCU: 0x154F7, offset: 0x154F7, size: 0x8, addend: 0x0, symName: __ZNSt12out_of_rangeC1B7v160006EPKc, symObjAddr: 0x3728, symBinAddr: 0x100007004, symSize: 0x34 }
  - { offsetInCU: 0x1552F, offset: 0x1552F, size: 0x8, addend: 0x0, symName: __ZNSt12out_of_rangeC2B7v160006EPKc, symObjAddr: 0x375C, symBinAddr: 0x100007038, symSize: 0x4C }
  - { offsetInCU: 0x15567, offset: 0x15567, size: 0x8, addend: 0x0, symName: __ZNSt3__112basic_stringIcNS_11char_traitsIcEENS_9allocatorIcEEEC2B7v160006IDnEEPKc, symObjAddr: 0x37A8, symBinAddr: 0x100007084, symSize: 0x60 }
  - { offsetInCU: 0x155A5, offset: 0x155A5, size: 0x8, addend: 0x0, symName: __ZNKSt3__112basic_stringIcNS_11char_traitsIcEENS_9allocatorIcEEE4sizeB7v160006Ev, symObjAddr: 0x3808, symBinAddr: 0x1000070E4, symSize: 0x54 }
  - { offsetInCU: 0x155CB, offset: 0x155CB, size: 0x8, addend: 0x0, symName: __ZNKSt3__112basic_stringIcNS_11char_traitsIcEENS_9allocatorIcEEE15__get_long_sizeB7v160006Ev, symObjAddr: 0x385C, symBinAddr: 0x100007138, symSize: 0x28 }
  - { offsetInCU: 0x155F1, offset: 0x155F1, size: 0x8, addend: 0x0, symName: __ZNKSt3__112basic_stringIcNS_11char_traitsIcEENS_9allocatorIcEEE16__get_short_sizeB7v160006Ev, symObjAddr: 0x3884, symBinAddr: 0x100007160, symSize: 0x34 }
  - { offsetInCU: 0x15621, offset: 0x15621, size: 0x8, addend: 0x0, symName: __ZNSt3__116allocator_traitsINS_9allocatorIcEEE37select_on_container_copy_constructionB7v160006IS2_vvEES2_RKS2_, symObjAddr: 0x38B8, symBinAddr: 0x100007194, symSize: 0x10 }
  - { offsetInCU: 0x15650, offset: 0x15650, size: 0x8, addend: 0x0, symName: __ZNKSt3__112basic_stringIcNS_11char_traitsIcEENS_9allocatorIcEEE13get_allocatorB7v160006Ev, symObjAddr: 0x38C8, symBinAddr: 0x1000071A4, symSize: 0x24 }
  - { offsetInCU: 0x15676, offset: 0x15676, size: 0x8, addend: 0x0, symName: __ZNSt3__112basic_stringIcNS_11char_traitsIcEENS_9allocatorIcEEEC1B7v160006ENS_24__uninitialized_size_tagEmRKS4_, symObjAddr: 0x38EC, symBinAddr: 0x1000071C8, symSize: 0x3C }
  - { offsetInCU: 0x156C9, offset: 0x156C9, size: 0x8, addend: 0x0, symName: __ZNSt3__111char_traitsIcE4copyEPcPKcm, symObjAddr: 0x3928, symBinAddr: 0x100007204, symSize: 0x5C }
  - { offsetInCU: 0x15708, offset: 0x15708, size: 0x8, addend: 0x0, symName: __ZNKSt3__112basic_stringIcNS_11char_traitsIcEENS_9allocatorIcEEE4dataB7v160006Ev, symObjAddr: 0x3984, symBinAddr: 0x100007260, symSize: 0x28 }
  - { offsetInCU: 0x1572E, offset: 0x1572E, size: 0x8, addend: 0x0, symName: __ZNSt3__111char_traitsIcE6assignEPcmc, symObjAddr: 0x39AC, symBinAddr: 0x100007288, symSize: 0x44 }
  - { offsetInCU: 0x1576D, offset: 0x1576D, size: 0x8, addend: 0x0, symName: __ZNKSt3__112basic_stringIcNS_11char_traitsIcEENS_9allocatorIcEEE7__allocB7v160006Ev, symObjAddr: 0x39F0, symBinAddr: 0x1000072CC, symSize: 0x24 }
  - { offsetInCU: 0x15793, offset: 0x15793, size: 0x8, addend: 0x0, symName: __ZNKSt3__117__compressed_pairINS_12basic_stringIcNS_11char_traitsIcEENS_9allocatorIcEEE5__repES5_E6secondB7v160006Ev, symObjAddr: 0x3A14, symBinAddr: 0x1000072F0, symSize: 0x24 }
  - { offsetInCU: 0x157B9, offset: 0x157B9, size: 0x8, addend: 0x0, symName: __ZNKSt3__122__compressed_pair_elemINS_9allocatorIcEELi1ELb1EE5__getB7v160006Ev, symObjAddr: 0x3A38, symBinAddr: 0x100007314, symSize: 0x14 }
  - { offsetInCU: 0x157DF, offset: 0x157DF, size: 0x8, addend: 0x0, symName: __ZNSt3__112basic_stringIcNS_11char_traitsIcEENS_9allocatorIcEEEC2B7v160006ENS_24__uninitialized_size_tagEmRKS4_, symObjAddr: 0x3A4C, symBinAddr: 0x100007328, symSize: 0x118 }
  - { offsetInCU: 0x1585E, offset: 0x1585E, size: 0x8, addend: 0x0, symName: __ZNSt3__117__compressed_pairINS_12basic_stringIcNS_11char_traitsIcEENS_9allocatorIcEEE5__repES5_EC1B7v160006INS_18__default_init_tagERKS5_EEOT_OT0_, symObjAddr: 0x3B64, symBinAddr: 0x100007440, symSize: 0x3C }
  - { offsetInCU: 0x158B6, offset: 0x158B6, size: 0x8, addend: 0x0, symName: __ZNKSt3__112basic_stringIcNS_11char_traitsIcEENS_9allocatorIcEEE8max_sizeB7v160006Ev, symObjAddr: 0x3BA0, symBinAddr: 0x10000747C, symSize: 0xAC }
  - { offsetInCU: 0x15908, offset: 0x15908, size: 0x8, addend: 0x0, symName: __ZNKSt3__112basic_stringIcNS_11char_traitsIcEENS_9allocatorIcEEE20__throw_length_errorB7v160006Ev, symObjAddr: 0x3C4C, symBinAddr: 0x100007528, symSize: 0x1C }
  - { offsetInCU: 0x1592E, offset: 0x1592E, size: 0x8, addend: 0x0, symName: __ZNSt3__112basic_stringIcNS_11char_traitsIcEENS_9allocatorIcEEE13__fits_in_ssoB7v160006Em, symObjAddr: 0x3C68, symBinAddr: 0x100007544, symSize: 0x20 }
  - { offsetInCU: 0x15952, offset: 0x15952, size: 0x8, addend: 0x0, symName: __ZNSt3__112basic_stringIcNS_11char_traitsIcEENS_9allocatorIcEEE11__recommendB7v160006Em, symObjAddr: 0x3C88, symBinAddr: 0x100007564, symSize: 0x84 }
  - { offsetInCU: 0x15985, offset: 0x15985, size: 0x8, addend: 0x0, symName: __ZNSt3__116allocator_traitsINS_9allocatorIcEEE8allocateB7v160006ERS2_m, symObjAddr: 0x3D0C, symBinAddr: 0x1000075E8, symSize: 0x2C }
  - { offsetInCU: 0x159B8, offset: 0x159B8, size: 0x8, addend: 0x0, symName: __ZNSt3__112basic_stringIcNS_11char_traitsIcEENS_9allocatorIcEEE16__begin_lifetimeB7v160006EPcm, symObjAddr: 0x3D38, symBinAddr: 0x100007614, symSize: 0x14 }
  - { offsetInCU: 0x159EB, offset: 0x159EB, size: 0x8, addend: 0x0, symName: __ZNSt3__112basic_stringIcNS_11char_traitsIcEENS_9allocatorIcEEE14__set_long_capB7v160006Em, symObjAddr: 0x3D4C, symBinAddr: 0x100007628, symSize: 0x70 }
  - { offsetInCU: 0x15A20, offset: 0x15A20, size: 0x8, addend: 0x0, symName: __ZNSt3__112basic_stringIcNS_11char_traitsIcEENS_9allocatorIcEEE18__set_long_pointerB7v160006EPc, symObjAddr: 0x3DBC, symBinAddr: 0x100007698, symSize: 0x38 }
  - { offsetInCU: 0x15A55, offset: 0x15A55, size: 0x8, addend: 0x0, symName: __ZNSt3__112basic_stringIcNS_11char_traitsIcEENS_9allocatorIcEEE15__set_long_sizeB7v160006Em, symObjAddr: 0x3DF4, symBinAddr: 0x1000076D0, symSize: 0x38 }
  - { offsetInCU: 0x15A8A, offset: 0x15A8A, size: 0x8, addend: 0x0, symName: __ZNSt3__117__compressed_pairINS_12basic_stringIcNS_11char_traitsIcEENS_9allocatorIcEEE5__repES5_EC2B7v160006INS_18__default_init_tagERKS5_EEOT_OT0_, symObjAddr: 0x3E2C, symBinAddr: 0x100007708, symSize: 0x40 }
  - { offsetInCU: 0x15AE2, offset: 0x15AE2, size: 0x8, addend: 0x0, symName: __ZNSt3__122__compressed_pair_elemINS_9allocatorIcEELi1ELb1EEC2B7v160006IRKS2_vEEOT_, symObjAddr: 0x3E6C, symBinAddr: 0x100007748, symSize: 0x18 }
  - { offsetInCU: 0x15B24, offset: 0x15B24, size: 0x8, addend: 0x0, symName: __ZNSt3__116allocator_traitsINS_9allocatorIcEEE8max_sizeB7v160006IS2_vEEmRKS2_, symObjAddr: 0x3E84, symBinAddr: 0x100007760, symSize: 0x24 }
  - { offsetInCU: 0x15B52, offset: 0x15B52, size: 0x8, addend: 0x0, symName: __ZNSt3__114numeric_limitsImE3maxB7v160006Ev, symObjAddr: 0x3EA8, symBinAddr: 0x100007784, symSize: 0x14 }
  - { offsetInCU: 0x15B66, offset: 0x15B66, size: 0x8, addend: 0x0, symName: __ZNKSt3__19allocatorIcE8max_sizeB7v160006Ev, symObjAddr: 0x3EBC, symBinAddr: 0x100007798, symSize: 0x14 }
  - { offsetInCU: 0x15B8C, offset: 0x15B8C, size: 0x8, addend: 0x0, symName: __ZNSt3__123__libcpp_numeric_limitsImLb1EE3maxB7v160006Ev, symObjAddr: 0x3ED0, symBinAddr: 0x1000077AC, symSize: 0x8 }
  - { offsetInCU: 0x15BA0, offset: 0x15BA0, size: 0x8, addend: 0x0, symName: __ZNSt12length_errorC1B7v160006EPKc, symObjAddr: 0x3F3C, symBinAddr: 0x100007818, symSize: 0x34 }
  - { offsetInCU: 0x15BD8, offset: 0x15BD8, size: 0x8, addend: 0x0, symName: __ZNSt12length_errorC2B7v160006EPKc, symObjAddr: 0x3F70, symBinAddr: 0x10000784C, symSize: 0x4C }
  - { offsetInCU: 0x15C10, offset: 0x15C10, size: 0x8, addend: 0x0, symName: __ZNSt3__112basic_stringIcNS_11char_traitsIcEENS_9allocatorIcEEE10__align_itB7v160006ILm16EEEmm, symObjAddr: 0x3FBC, symBinAddr: 0x100007898, symSize: 0x1C }
  - { offsetInCU: 0x15C3E, offset: 0x15C3E, size: 0x8, addend: 0x0, symName: __ZNSt3__19allocatorIcE8allocateB7v160006Em, symObjAddr: 0x3FD8, symBinAddr: 0x1000078B4, symSize: 0x58 }
  - { offsetInCU: 0x15C95, offset: 0x15C95, size: 0x8, addend: 0x0, symName: __ZNKSt3__114__copy_trivialclB7v160006IKccLi0EEENS_4pairIPT_PT0_EES5_S5_S7_, symObjAddr: 0x4334, symBinAddr: 0x100007C10, symSize: 0x48 }
  - { offsetInCU: 0x15D1B, offset: 0x15D1B, size: 0x8, addend: 0x0, symName: __ZNSt3__14pairIPKcS2_EC1B7v160006IS2_S2_LPv0EEEOT_OT0_, symObjAddr: 0x449C, symBinAddr: 0x100007D78, symSize: 0x3C }
  - { offsetInCU: 0x15D79, offset: 0x15D79, size: 0x8, addend: 0x0, symName: __ZNSt3__14pairIPKcS2_EC2B7v160006IS2_S2_LPv0EEEOT_OT0_, symObjAddr: 0x44D8, symBinAddr: 0x100007DB4, symSize: 0x34 }
  - { offsetInCU: 0x15DD7, offset: 0x15DD7, size: 0x8, addend: 0x0, symName: __ZNSt3__118__unwrap_iter_implIPKcLb1EE8__unwrapB7v160006ES2_, symObjAddr: 0x450C, symBinAddr: 0x100007DE8, symSize: 0x24 }
  - { offsetInCU: 0x15E04, offset: 0x15E04, size: 0x8, addend: 0x0, symName: __ZNSt3__14pairIPKcPcEC1B7v160006IRS2_S3_LPv0EEEOT_OT0_, symObjAddr: 0x45F8, symBinAddr: 0x100007ED4, symSize: 0x3C }
  - { offsetInCU: 0x15E62, offset: 0x15E62, size: 0x8, addend: 0x0, symName: __ZNSt3__14pairIPKcPcEC2B7v160006IRS2_S3_LPv0EEEOT_OT0_, symObjAddr: 0x4634, symBinAddr: 0x100007F10, symSize: 0x34 }
  - { offsetInCU: 0x15EC0, offset: 0x15EC0, size: 0x8, addend: 0x0, symName: __ZNSt3__118__unwrap_iter_implIPcLb1EE8__unwrapB7v160006ES1_, symObjAddr: 0x4668, symBinAddr: 0x100007F44, symSize: 0x24 }
  - { offsetInCU: 0x15EE3, offset: 0x15EE3, size: 0x8, addend: 0x0, symName: __ZNSt3__14pairIPKcPcEC1B7v160006IS2_S3_LPv0EEEOT_OT0_, symObjAddr: 0x468C, symBinAddr: 0x100007F68, symSize: 0x3C }
  - { offsetInCU: 0x15F41, offset: 0x15F41, size: 0x8, addend: 0x0, symName: __ZNSt3__14pairIPKcPcEC2B7v160006IS2_S3_LPv0EEEOT_OT0_, symObjAddr: 0x46C8, symBinAddr: 0x100007FA4, symSize: 0x34 }
  - { offsetInCU: 0x15F9F, offset: 0x15F9F, size: 0x8, addend: 0x0, symName: __ZNSt3__118__unwrap_iter_implIPKcLb1EE8__rewrapB7v160006ES2_S2_, symObjAddr: 0x4738, symBinAddr: 0x100008014, symSize: 0x48 }
  - { offsetInCU: 0x15FD0, offset: 0x15FD0, size: 0x8, addend: 0x0, symName: __ZNSt3__118__unwrap_iter_implIPcLb1EE8__rewrapB7v160006ES1_S1_, symObjAddr: 0x4780, symBinAddr: 0x10000805C, symSize: 0x48 }
  - { offsetInCU: 0x16001, offset: 0x16001, size: 0x8, addend: 0x0, symName: __ZNKSt3__112basic_stringIcNS_11char_traitsIcEENS_9allocatorIcEEE13__get_pointerB7v160006Ev, symObjAddr: 0x47C8, symBinAddr: 0x1000080A4, symSize: 0x54 }
  - { offsetInCU: 0x16027, offset: 0x16027, size: 0x8, addend: 0x0, symName: __ZNKSt3__112basic_stringIcNS_11char_traitsIcEENS_9allocatorIcEEE18__get_long_pointerB7v160006Ev, symObjAddr: 0x481C, symBinAddr: 0x1000080F8, symSize: 0x28 }
  - { offsetInCU: 0x1604D, offset: 0x1604D, size: 0x8, addend: 0x0, symName: __ZNKSt3__112basic_stringIcNS_11char_traitsIcEENS_9allocatorIcEEE19__get_short_pointerB7v160006Ev, symObjAddr: 0x4844, symBinAddr: 0x100008120, symSize: 0x28 }
  - { offsetInCU: 0x16073, offset: 0x16073, size: 0x8, addend: 0x0, symName: __ZNSt3__114pointer_traitsIPKcE10pointer_toB7v160006ERS1_, symObjAddr: 0x486C, symBinAddr: 0x100008148, symSize: 0x14 }
  - { offsetInCU: 0x16096, offset: 0x16096, size: 0x8, addend: 0x0, symName: __ZNSt3__16vectorIP5TokenNS_9allocatorIS2_EEEC2B7v160006Ev, symObjAddr: 0x493C, symBinAddr: 0x100008218, symSize: 0x58 }
  - { offsetInCU: 0x160C5, offset: 0x160C5, size: 0x8, addend: 0x0, symName: __ZNSt3__117__compressed_pairIPP5TokenNS_9allocatorIS2_EEEC1B7v160006IDnNS_18__default_init_tagEEEOT_OT0_, symObjAddr: 0x4994, symBinAddr: 0x100008270, symSize: 0x3C }
  - { offsetInCU: 0x1611D, offset: 0x1611D, size: 0x8, addend: 0x0, symName: __ZNSt3__117__compressed_pairIPP5TokenNS_9allocatorIS2_EEEC2B7v160006IDnNS_18__default_init_tagEEEOT_OT0_, symObjAddr: 0x49E0, symBinAddr: 0x1000082BC, symSize: 0x40 }
  - { offsetInCU: 0x16175, offset: 0x16175, size: 0x8, addend: 0x0, symName: __ZNSt3__122__compressed_pair_elemIPP5TokenLi0ELb0EEC2B7v160006IDnvEEOT_, symObjAddr: 0x4A20, symBinAddr: 0x1000082FC, symSize: 0x1C }
  - { offsetInCU: 0x161B7, offset: 0x161B7, size: 0x8, addend: 0x0, symName: __ZNSt3__122__compressed_pair_elemINS_9allocatorIP5TokenEELi1ELb1EEC2B7v160006ENS_18__default_init_tagE, symObjAddr: 0x4A3C, symBinAddr: 0x100008318, symSize: 0x2C }
  - { offsetInCU: 0x161EC, offset: 0x161EC, size: 0x8, addend: 0x0, symName: __ZNSt3__19allocatorIP5TokenEC2B7v160006Ev, symObjAddr: 0x4A68, symBinAddr: 0x100008344, symSize: 0x2C }
  - { offsetInCU: 0x16216, offset: 0x16216, size: 0x8, addend: 0x0, symName: __ZNSt3__116__non_trivial_ifILb1ENS_9allocatorIP5TokenEEEC2B7v160006Ev, symObjAddr: 0x4A94, symBinAddr: 0x100008370, symSize: 0x14 }
  - { offsetInCU: 0x16240, offset: 0x16240, size: 0x8, addend: 0x0, symName: __ZNSt3__16vectorIP5TokenNS_9allocatorIS2_EEE9__end_capB7v160006Ev, symObjAddr: 0x4AA8, symBinAddr: 0x100008384, symSize: 0x28 }
  - { offsetInCU: 0x16266, offset: 0x16266, size: 0x8, addend: 0x0, symName: __ZNSt3__16vectorIP5TokenNS_9allocatorIS2_EEE22__construct_one_at_endB7v160006IJRKS2_EEEvDpOT_, symObjAddr: 0x4AD0, symBinAddr: 0x1000083AC, symSize: 0x90 }
  - { offsetInCU: 0x162B5, offset: 0x162B5, size: 0x8, addend: 0x0, symName: __ZNSt3__16vectorIP5TokenNS_9allocatorIS2_EEE21__push_back_slow_pathIRKS2_EEvOT_, symObjAddr: 0x4B60, symBinAddr: 0x10000843C, symSize: 0xD8 }
  - { offsetInCU: 0x16313, offset: 0x16313, size: 0x8, addend: 0x0, symName: __ZNSt3__117__compressed_pairIPP5TokenNS_9allocatorIS2_EEE5firstB7v160006Ev, symObjAddr: 0x4C38, symBinAddr: 0x100008514, symSize: 0x24 }
  - { offsetInCU: 0x16339, offset: 0x16339, size: 0x8, addend: 0x0, symName: __ZNSt3__122__compressed_pair_elemIPP5TokenLi0ELb0EE5__getB7v160006Ev, symObjAddr: 0x4C5C, symBinAddr: 0x100008538, symSize: 0x14 }
  - { offsetInCU: 0x16378, offset: 0x16378, size: 0x8, addend: 0x0, symName: __ZNSt3__16vectorIP5TokenNS_9allocatorIS2_EEE21_ConstructTransactionC1B7v160006ERS5_m, symObjAddr: 0x4C70, symBinAddr: 0x10000854C, symSize: 0x3C }
  - { offsetInCU: 0x163C0, offset: 0x163C0, size: 0x8, addend: 0x0, symName: __ZNSt3__116allocator_traitsINS_9allocatorIP5TokenEEE9constructB7v160006IS3_JRKS3_EvEEvRS4_PT_DpOT0_, symObjAddr: 0x4CAC, symBinAddr: 0x100008588, symSize: 0x34 }
  - { offsetInCU: 0x16417, offset: 0x16417, size: 0x8, addend: 0x0, symName: __ZNSt3__16vectorIP5TokenNS_9allocatorIS2_EEE7__allocB7v160006Ev, symObjAddr: 0x4CE0, symBinAddr: 0x1000085BC, symSize: 0x28 }
  - { offsetInCU: 0x1643D, offset: 0x1643D, size: 0x8, addend: 0x0, symName: __ZNSt3__16vectorIP5TokenNS_9allocatorIS2_EEE21_ConstructTransactionD1B7v160006Ev, symObjAddr: 0x4D1C, symBinAddr: 0x1000085F8, symSize: 0x2C }
  - { offsetInCU: 0x16467, offset: 0x16467, size: 0x8, addend: 0x0, symName: __ZNSt3__16vectorIP5TokenNS_9allocatorIS2_EEE21_ConstructTransactionC2B7v160006ERS5_m, symObjAddr: 0x4D48, symBinAddr: 0x100008624, symSize: 0x44 }
  - { offsetInCU: 0x164AF, offset: 0x164AF, size: 0x8, addend: 0x0, symName: __ZNSt3__19allocatorIP5TokenE9constructB7v160006IS2_JRKS2_EEEvPT_DpOT0_, symObjAddr: 0x4D8C, symBinAddr: 0x100008668, symSize: 0x28 }
  - { offsetInCU: 0x16505, offset: 0x16505, size: 0x8, addend: 0x0, symName: __ZNSt3__117__compressed_pairIPP5TokenNS_9allocatorIS2_EEE6secondB7v160006Ev, symObjAddr: 0x4DB4, symBinAddr: 0x100008690, symSize: 0x24 }
  - { offsetInCU: 0x1652B, offset: 0x1652B, size: 0x8, addend: 0x0, symName: __ZNSt3__122__compressed_pair_elemINS_9allocatorIP5TokenEELi1ELb1EE5__getB7v160006Ev, symObjAddr: 0x4DD8, symBinAddr: 0x1000086B4, symSize: 0x14 }
  - { offsetInCU: 0x16551, offset: 0x16551, size: 0x8, addend: 0x0, symName: __ZNSt3__16vectorIP5TokenNS_9allocatorIS2_EEE21_ConstructTransactionD2B7v160006Ev, symObjAddr: 0x4DEC, symBinAddr: 0x1000086C8, symSize: 0x20 }
  - { offsetInCU: 0x1657B, offset: 0x1657B, size: 0x8, addend: 0x0, symName: __ZNKSt3__16vectorIP5TokenNS_9allocatorIS2_EEE11__recommendB7v160006Em, symObjAddr: 0x4E0C, symBinAddr: 0x1000086E8, symSize: 0xB4 }
  - { offsetInCU: 0x165D0, offset: 0x165D0, size: 0x8, addend: 0x0, symName: __ZNSt3__114__split_bufferIP5TokenRNS_9allocatorIS2_EEEC1EmmS5_, symObjAddr: 0x4EC0, symBinAddr: 0x10000879C, symSize: 0x44 }
  - { offsetInCU: 0x16626, offset: 0x16626, size: 0x8, addend: 0x0, symName: __ZNSt3__114__split_bufferIP5TokenRNS_9allocatorIS2_EEED1Ev, symObjAddr: 0x501C, symBinAddr: 0x1000088F8, symSize: 0x2C }
  - { offsetInCU: 0x16652, offset: 0x16652, size: 0x8, addend: 0x0, symName: __ZNKSt3__16vectorIP5TokenNS_9allocatorIS2_EEE8max_sizeEv, symObjAddr: 0x5048, symBinAddr: 0x100008924, symSize: 0x60 }
  - { offsetInCU: 0x1667A, offset: 0x1667A, size: 0x8, addend: 0x0, symName: __ZNKSt3__16vectorIP5TokenNS_9allocatorIS2_EEE20__throw_length_errorB7v160006Ev, symObjAddr: 0x50A8, symBinAddr: 0x100008984, symSize: 0x1C }
  - { offsetInCU: 0x166A0, offset: 0x166A0, size: 0x8, addend: 0x0, symName: __ZNKSt3__16vectorIP5TokenNS_9allocatorIS2_EEE8capacityB7v160006Ev, symObjAddr: 0x50C4, symBinAddr: 0x1000089A0, symSize: 0x40 }
  - { offsetInCU: 0x166D0, offset: 0x166D0, size: 0x8, addend: 0x0, symName: __ZNSt3__116allocator_traitsINS_9allocatorIP5TokenEEE8max_sizeB7v160006IS4_vEEmRKS4_, symObjAddr: 0x515C, symBinAddr: 0x100008A38, symSize: 0x24 }
  - { offsetInCU: 0x166FE, offset: 0x166FE, size: 0x8, addend: 0x0, symName: __ZNKSt3__16vectorIP5TokenNS_9allocatorIS2_EEE7__allocB7v160006Ev, symObjAddr: 0x5180, symBinAddr: 0x100008A5C, symSize: 0x28 }
  - { offsetInCU: 0x16724, offset: 0x16724, size: 0x8, addend: 0x0, symName: __ZNSt3__114numeric_limitsIlE3maxB7v160006Ev, symObjAddr: 0x51A8, symBinAddr: 0x100008A84, symSize: 0x14 }
  - { offsetInCU: 0x1674C, offset: 0x1674C, size: 0x8, addend: 0x0, symName: __ZNKSt3__16__lessImmEclB7v160006ERKmS3_, symObjAddr: 0x5210, symBinAddr: 0x100008AEC, symSize: 0x34 }
  - { offsetInCU: 0x1678E, offset: 0x1678E, size: 0x8, addend: 0x0, symName: __ZNKSt3__19allocatorIP5TokenE8max_sizeB7v160006Ev, symObjAddr: 0x5244, symBinAddr: 0x100008B20, symSize: 0x14 }
  - { offsetInCU: 0x167B4, offset: 0x167B4, size: 0x8, addend: 0x0, symName: __ZNKSt3__117__compressed_pairIPP5TokenNS_9allocatorIS2_EEE6secondB7v160006Ev, symObjAddr: 0x5258, symBinAddr: 0x100008B34, symSize: 0x24 }
  - { offsetInCU: 0x167DA, offset: 0x167DA, size: 0x8, addend: 0x0, symName: __ZNKSt3__122__compressed_pair_elemINS_9allocatorIP5TokenEELi1ELb1EE5__getB7v160006Ev, symObjAddr: 0x527C, symBinAddr: 0x100008B58, symSize: 0x14 }
  - { offsetInCU: 0x16800, offset: 0x16800, size: 0x8, addend: 0x0, symName: __ZNSt3__123__libcpp_numeric_limitsIlLb1EE3maxB7v160006Ev, symObjAddr: 0x5290, symBinAddr: 0x100008B6C, symSize: 0x8 }
  - { offsetInCU: 0x16814, offset: 0x16814, size: 0x8, addend: 0x0, symName: __ZNKSt3__16vectorIP5TokenNS_9allocatorIS2_EEE9__end_capB7v160006Ev, symObjAddr: 0x5298, symBinAddr: 0x100008B74, symSize: 0x28 }
  - { offsetInCU: 0x1683A, offset: 0x1683A, size: 0x8, addend: 0x0, symName: __ZNKSt3__117__compressed_pairIPP5TokenNS_9allocatorIS2_EEE5firstB7v160006Ev, symObjAddr: 0x52C0, symBinAddr: 0x100008B9C, symSize: 0x24 }
  - { offsetInCU: 0x16860, offset: 0x16860, size: 0x8, addend: 0x0, symName: __ZNKSt3__122__compressed_pair_elemIPP5TokenLi0ELb0EE5__getB7v160006Ev, symObjAddr: 0x52E4, symBinAddr: 0x100008BC0, symSize: 0x14 }
  - { offsetInCU: 0x16886, offset: 0x16886, size: 0x8, addend: 0x0, symName: __ZNSt3__114__split_bufferIP5TokenRNS_9allocatorIS2_EEEC2EmmS5_, symObjAddr: 0x534C, symBinAddr: 0x100008C28, symSize: 0xD4 }
  - { offsetInCU: 0x168F9, offset: 0x168F9, size: 0x8, addend: 0x0, symName: __ZNSt3__117__compressed_pairIPP5TokenRNS_9allocatorIS2_EEEC1B7v160006IDnS6_EEOT_OT0_, symObjAddr: 0x5420, symBinAddr: 0x100008CFC, symSize: 0x3C }
  - { offsetInCU: 0x16951, offset: 0x16951, size: 0x8, addend: 0x0, symName: __ZNSt3__114__split_bufferIP5TokenRNS_9allocatorIS2_EEE7__allocB7v160006Ev, symObjAddr: 0x549C, symBinAddr: 0x100008D78, symSize: 0x28 }
  - { offsetInCU: 0x16977, offset: 0x16977, size: 0x8, addend: 0x0, symName: __ZNSt3__114__split_bufferIP5TokenRNS_9allocatorIS2_EEE9__end_capB7v160006Ev, symObjAddr: 0x54C4, symBinAddr: 0x100008DA0, symSize: 0x28 }
  - { offsetInCU: 0x1699D, offset: 0x1699D, size: 0x8, addend: 0x0, symName: __ZNSt3__117__compressed_pairIPP5TokenRNS_9allocatorIS2_EEEC2B7v160006IDnS6_EEOT_OT0_, symObjAddr: 0x54EC, symBinAddr: 0x100008DC8, symSize: 0x48 }
  - { offsetInCU: 0x169F5, offset: 0x169F5, size: 0x8, addend: 0x0, symName: __ZNSt3__122__compressed_pair_elemIRNS_9allocatorIP5TokenEELi1ELb0EEC2B7v160006IS5_vEEOT_, symObjAddr: 0x5534, symBinAddr: 0x100008E10, symSize: 0x20 }
  - { offsetInCU: 0x16A37, offset: 0x16A37, size: 0x8, addend: 0x0, symName: __ZNSt3__19allocatorIP5TokenE8allocateB7v160006Em, symObjAddr: 0x5554, symBinAddr: 0x100008E30, symSize: 0x58 }
  - { offsetInCU: 0x16A6B, offset: 0x16A6B, size: 0x8, addend: 0x0, symName: __ZNSt3__117__compressed_pairIPP5TokenRNS_9allocatorIS2_EEE6secondB7v160006Ev, symObjAddr: 0x55AC, symBinAddr: 0x100008E88, symSize: 0x28 }
  - { offsetInCU: 0x16A91, offset: 0x16A91, size: 0x8, addend: 0x0, symName: __ZNSt3__122__compressed_pair_elemIRNS_9allocatorIP5TokenEELi1ELb0EE5__getB7v160006Ev, symObjAddr: 0x55D4, symBinAddr: 0x100008EB0, symSize: 0x18 }
  - { offsetInCU: 0x16AB7, offset: 0x16AB7, size: 0x8, addend: 0x0, symName: __ZNSt3__117__compressed_pairIPP5TokenRNS_9allocatorIS2_EEE5firstB7v160006Ev, symObjAddr: 0x55EC, symBinAddr: 0x100008EC8, symSize: 0x24 }
  - { offsetInCU: 0x16ADD, offset: 0x16ADD, size: 0x8, addend: 0x0, symName: __ZNKSt3__16vectorIP5TokenNS_9allocatorIS2_EEE17__annotate_deleteB7v160006Ev, symObjAddr: 0x5610, symBinAddr: 0x100008EEC, symSize: 0xB8 }
  - { offsetInCU: 0x16B03, offset: 0x16B03, size: 0x8, addend: 0x0, symName: __ZNSt3__116reverse_iteratorIPP5TokenEC1B7v160006ES3_, symObjAddr: 0x5740, symBinAddr: 0x10000901C, symSize: 0x34 }
  - { offsetInCU: 0x16B3B, offset: 0x16B3B, size: 0x8, addend: 0x0, symName: __ZNKSt3__116reverse_iteratorIPP5TokenE4baseB7v160006Ev, symObjAddr: 0x5774, symBinAddr: 0x100009050, symSize: 0x18 }
  - { offsetInCU: 0x16B61, offset: 0x16B61, size: 0x8, addend: 0x0, symName: __ZNKSt3__16vectorIP5TokenNS_9allocatorIS2_EEE14__annotate_newB7v160006Em, symObjAddr: 0x57C8, symBinAddr: 0x1000090A4, symSize: 0xAC }
  - { offsetInCU: 0x16B96, offset: 0x16B96, size: 0x8, addend: 0x0, symName: __ZNKSt3__16vectorIP5TokenNS_9allocatorIS2_EEE31__annotate_contiguous_containerB7v160006EPKvS7_S7_S7_, symObjAddr: 0x5884, symBinAddr: 0x100009160, symSize: 0x20 }
  - { offsetInCU: 0x16BE8, offset: 0x16BE8, size: 0x8, addend: 0x0, symName: __ZNKSt3__16vectorIP5TokenNS_9allocatorIS2_EEE4dataB7v160006Ev, symObjAddr: 0x58A4, symBinAddr: 0x100009180, symSize: 0x28 }
  - { offsetInCU: 0x16C31, offset: 0x16C31, size: 0x8, addend: 0x0, symName: __ZNKSt3__111__move_loopINS_17_ClassicAlgPolicyEEclB7v160006INS_16reverse_iteratorIPP5TokenEES8_S8_EENS_4pairIT_T1_EESA_T0_SB_, symObjAddr: 0x5BBC, symBinAddr: 0x100009498, symSize: 0xA0 }
  - { offsetInCU: 0x16CA1, offset: 0x16CA1, size: 0x8, addend: 0x0, symName: __ZNSt3__18_IterOpsINS_17_ClassicAlgPolicyEE11__iter_moveB7v160006IRNS_16reverse_iteratorIPP5TokenEEEENS_9enable_ifIXsr12is_referenceIDTdeclsr3stdE7declvalIRT_EEEEE5valueEDTclsr3stdE4movedeclsr3stdE7declvalISC_EEEEE4typeEOSB_, symObjAddr: 0x5DF0, symBinAddr: 0x1000096CC, symSize: 0x28 }
  - { offsetInCU: 0x16CCD, offset: 0x16CCD, size: 0x8, addend: 0x0, symName: __ZNKSt3__116reverse_iteratorIPP5TokenEdeB7v160006Ev, symObjAddr: 0x5E18, symBinAddr: 0x1000096F4, symSize: 0x28 }
  - { offsetInCU: 0x16D01, offset: 0x16D01, size: 0x8, addend: 0x0, symName: __ZNSt3__116reverse_iteratorIPP5TokenEppB7v160006Ev, symObjAddr: 0x5E40, symBinAddr: 0x10000971C, symSize: 0x20 }
  - { offsetInCU: 0x16D27, offset: 0x16D27, size: 0x8, addend: 0x0, symName: __ZNSt3__18_IterOpsINS_17_ClassicAlgPolicyEE25__validate_iter_referenceB7v160006IRNS_16reverse_iteratorIPP5TokenEEEEvv, symObjAddr: 0x5E60, symBinAddr: 0x10000973C, symSize: 0x4 }
  - { offsetInCU: 0x16D45, offset: 0x16D45, size: 0x8, addend: 0x0, symName: __ZNSt3__118__unwrap_iter_implINS_16reverse_iteratorIPP5TokenEELb0EE8__unwrapB7v160006ES5_, symObjAddr: 0x5E64, symBinAddr: 0x100009740, symSize: 0x24 }
  - { offsetInCU: 0x16D6D, offset: 0x16D6D, size: 0x8, addend: 0x0, symName: __ZNSt3__14pairINS_16reverse_iteratorIPP5TokenEES5_EC1B7v160006IS5_S5_LPv0EEEOT_OT0_, symObjAddr: 0x5E88, symBinAddr: 0x100009764, symSize: 0x3C }
  - { offsetInCU: 0x16DCB, offset: 0x16DCB, size: 0x8, addend: 0x0, symName: __ZNSt3__14pairINS_16reverse_iteratorIPP5TokenEES5_EC2B7v160006IS5_S5_LPv0EEEOT_OT0_, symObjAddr: 0x5EC4, symBinAddr: 0x1000097A0, symSize: 0x34 }
  - { offsetInCU: 0x16E29, offset: 0x16E29, size: 0x8, addend: 0x0, symName: __ZNSt3__118__unwrap_iter_implINS_16reverse_iteratorIPP5TokenEELb0EE8__rewrapB7v160006ES5_S5_, symObjAddr: 0x5EF8, symBinAddr: 0x1000097D4, symSize: 0x2C }
  - { offsetInCU: 0x16E57, offset: 0x16E57, size: 0x8, addend: 0x0, symName: __ZNSt3__116reverse_iteratorIPP5TokenEC2B7v160006ES3_, symObjAddr: 0x5F24, symBinAddr: 0x100009800, symSize: 0x28 }
  - { offsetInCU: 0x16E8F, offset: 0x16E8F, size: 0x8, addend: 0x0, symName: __ZNSt3__114__split_bufferIP5TokenRNS_9allocatorIS2_EEED2Ev, symObjAddr: 0x5F4C, symBinAddr: 0x100009828, symSize: 0x8C }
  - { offsetInCU: 0x16EBB, offset: 0x16EBB, size: 0x8, addend: 0x0, symName: __ZNSt3__114__split_bufferIP5TokenRNS_9allocatorIS2_EEE5clearB7v160006Ev, symObjAddr: 0x5FD8, symBinAddr: 0x1000098B4, symSize: 0x28 }
  - { offsetInCU: 0x16EE1, offset: 0x16EE1, size: 0x8, addend: 0x0, symName: __ZNSt3__116allocator_traitsINS_9allocatorIP5TokenEEE10deallocateB7v160006ERS4_PS3_m, symObjAddr: 0x6000, symBinAddr: 0x1000098DC, symSize: 0x34 }
  - { offsetInCU: 0x16F23, offset: 0x16F23, size: 0x8, addend: 0x0, symName: __ZNKSt3__114__split_bufferIP5TokenRNS_9allocatorIS2_EEE8capacityB7v160006Ev, symObjAddr: 0x6034, symBinAddr: 0x100009910, symSize: 0x40 }
  - { offsetInCU: 0x16F49, offset: 0x16F49, size: 0x8, addend: 0x0, symName: __ZNSt3__114__split_bufferIP5TokenRNS_9allocatorIS2_EEE17__destruct_at_endB7v160006EPS2_, symObjAddr: 0x6074, symBinAddr: 0x100009950, symSize: 0x2C }
  - { offsetInCU: 0x16F7D, offset: 0x16F7D, size: 0x8, addend: 0x0, symName: __ZNSt3__114__split_bufferIP5TokenRNS_9allocatorIS2_EEE17__destruct_at_endB7v160006EPS2_NS_17integral_constantIbLb0EEE, symObjAddr: 0x60A0, symBinAddr: 0x10000997C, symSize: 0x80 }
  - { offsetInCU: 0x16FBE, offset: 0x16FBE, size: 0x8, addend: 0x0, symName: __ZNSt3__116allocator_traitsINS_9allocatorIP5TokenEEE7destroyB7v160006IS3_vEEvRS4_PT_, symObjAddr: 0x6120, symBinAddr: 0x1000099FC, symSize: 0x2C }
  - { offsetInCU: 0x16FFB, offset: 0x16FFB, size: 0x8, addend: 0x0, symName: __ZNSt3__19allocatorIP5TokenE7destroyB7v160006EPS2_, symObjAddr: 0x614C, symBinAddr: 0x100009A28, symSize: 0x14 }
  - { offsetInCU: 0x1702F, offset: 0x1702F, size: 0x8, addend: 0x0, symName: __ZNSt3__19allocatorIP5TokenE10deallocateB7v160006EPS2_m, symObjAddr: 0x6160, symBinAddr: 0x100009A3C, symSize: 0x40 }
  - { offsetInCU: 0x17071, offset: 0x17071, size: 0x8, addend: 0x0, symName: __ZNKSt3__114__split_bufferIP5TokenRNS_9allocatorIS2_EEE9__end_capB7v160006Ev, symObjAddr: 0x61A0, symBinAddr: 0x100009A7C, symSize: 0x28 }
  - { offsetInCU: 0x17097, offset: 0x17097, size: 0x8, addend: 0x0, symName: __ZNKSt3__117__compressed_pairIPP5TokenRNS_9allocatorIS2_EEE5firstB7v160006Ev, symObjAddr: 0x61C8, symBinAddr: 0x100009AA4, symSize: 0x24 }
  - { offsetInCU: 0x5C, offset: 0x17204, size: 0x8, addend: 0x0, symName: __ZNSt3__1L19piecewise_constructE, symObjAddr: 0x2A41E, symBinAddr: 0x100032316, symSize: 0x0 }
  - { offsetInCU: 0x1D86B, offset: 0x34A13, size: 0x8, addend: 0x0, symName: __ZNSt3__17advanceB7v160006IPNS_12basic_stringIcNS_11char_traitsIcEENS_9allocatorIcEEEEmmvEEvRT_T0_, symObjAddr: 0x1CEEC, symBinAddr: 0x100025A1C, symSize: 0x50 }
  - { offsetInCU: 0x1F62F, offset: 0x367D7, size: 0x8, addend: 0x0, symName: __ZNSt3__17advanceB7v160006IP3RowmmvEEvRT_T0_, symObjAddr: 0x1F000, symBinAddr: 0x100027B1C, symSize: 0x50 }
  - { offsetInCU: 0x21CB6, offset: 0x38E5E, size: 0x8, addend: 0x0, symName: __ZNSt3__111__introsortINS_17_ClassicAlgPolicyERNS_6__lessI3RowS3_EEPS3_EEvT1_S7_T0_NS_15iterator_traitsIS7_E15difference_typeE, symObjAddr: 0x21A0C, symBinAddr: 0x10002A4D0, symSize: 0x6D0 }
  - { offsetInCU: 0x21E12, offset: 0x38FBA, size: 0x8, addend: 0x0, symName: __ZNSt3__118__insertion_sort_3B7v160006INS_17_ClassicAlgPolicyERNS_6__lessI3RowS3_EEPS3_EEvT1_S7_T0_, symObjAddr: 0x22244, symBinAddr: 0x10002AD08, symSize: 0x188 }
  - { offsetInCU: 0x21ED5, offset: 0x3907D, size: 0x8, addend: 0x0, symName: __ZNSt3__111__sift_downB7v160006INS_17_ClassicAlgPolicyERNS_6__lessI3RowS3_EEPS3_EEvT1_OT0_NS_15iterator_traitsIS7_E15difference_typeES7_, symObjAddr: 0x23180, symBinAddr: 0x10002BC44, symSize: 0x26C }
  - { offsetInCU: 0x21F83, offset: 0x3912B, size: 0x8, addend: 0x0, symName: __ZNSt3__117__floyd_sift_downB7v160006INS_17_ClassicAlgPolicyERNS_6__lessI3RowS3_EEPS3_EET1_S7_OT0_NS_15iterator_traitsIS7_E15difference_typeE, symObjAddr: 0x235B4, symBinAddr: 0x10002C078, symSize: 0x108 }
  - { offsetInCU: 0x2201B, offset: 0x391C3, size: 0x8, addend: 0x0, symName: __ZNSt3__127__insertion_sort_incompleteIRNS_6__lessI3RowS2_EEPS2_EEbT0_S6_T_, symObjAddr: 0x225F8, symBinAddr: 0x10002B0BC, symSize: 0x378 }
  - { offsetInCU: 0x2489A, offset: 0x3BA42, size: 0x8, addend: 0x0, symName: __ZNSt3__1neB7v160006IcNS_11char_traitsIcEENS_9allocatorIcEEEEbRKNS_12basic_stringIT_T0_T1_EESB_, symObjAddr: 0x310, symBinAddr: 0x100009DD8, symSize: 0x34 }
  - { offsetInCU: 0x248F2, offset: 0x3BA9A, size: 0x8, addend: 0x0, symName: __ZNSt3__14endlB7v160006IcNS_11char_traitsIcEEEERNS_13basic_ostreamIT_T0_EES7_, symObjAddr: 0x41C, symBinAddr: 0x100009E70, symSize: 0x58 }
  - { offsetInCU: 0x24932, offset: 0x3BADA, size: 0x8, addend: 0x0, symName: __ZNSt3__1lsB7v160006IcNS_11char_traitsIcEENS_9allocatorIcEEEERNS_13basic_ostreamIT_T0_EES9_RKNS_12basic_stringIS6_S7_T1_EE, symObjAddr: 0x474, symBinAddr: 0x100009EC8, symSize: 0x4C }
  - { offsetInCU: 0x2498A, offset: 0x3BB32, size: 0x8, addend: 0x0, symName: __ZNSt3__1plB7v160006IcNS_11char_traitsIcEENS_9allocatorIcEEEENS_12basic_stringIT_T0_T1_EEOS9_SA_, symObjAddr: 0x664, symBinAddr: 0x10000A0B8, symSize: 0x40 }
  - { offsetInCU: 0x249E2, offset: 0x3BB8A, size: 0x8, addend: 0x0, symName: __ZNSt3__1plB7v160006IcNS_11char_traitsIcEENS_9allocatorIcEEEENS_12basic_stringIT_T0_T1_EEOS9_RKS9_, symObjAddr: 0x1F28, symBinAddr: 0x10000B824, symSize: 0x40 }
  - { offsetInCU: 0x24A3A, offset: 0x3BBE2, size: 0x8, addend: 0x0, symName: __ZNSt3__1plB7v160006IcNS_11char_traitsIcEENS_9allocatorIcEEEENS_12basic_stringIT_T0_T1_EEPKS6_OS9_, symObjAddr: 0x3358, symBinAddr: 0x10000C2B8, symSize: 0x44 }
  - { offsetInCU: 0x24A92, offset: 0x3BC3A, size: 0x8, addend: 0x0, symName: __ZNSt3__119__debug_db_insert_cB7v160006INS_6vectorIP6SchemeNS_9allocatorIS3_EEEEEEvPT_, symObjAddr: 0x4080, symBinAddr: 0x10000CFE0, symSize: 0x10 }
  - { offsetInCU: 0x24AC3, offset: 0x3BC6B, size: 0x8, addend: 0x0, symName: __ZNSt3__112__to_addressB7v160006IP6SchemeEEPT_S4_, symObjAddr: 0x43B8, symBinAddr: 0x10000D318, symSize: 0x14 }
  - { offsetInCU: 0x24AF8, offset: 0x3BCA0, size: 0x8, addend: 0x0, symName: __ZNSt3__119__allocate_at_leastB7v160006INS_9allocatorIP6SchemeEEEENS_19__allocation_resultINS_16allocator_traitsIT_E7pointerEEERS7_m, symObjAddr: 0x4BF0, symBinAddr: 0x10000D91C, symSize: 0x40 }
  - { offsetInCU: 0x24B3B, offset: 0x3BCE3, size: 0x8, addend: 0x0, symName: __ZNSt3__142__uninitialized_allocator_move_if_noexceptB7v160006INS_9allocatorIP6SchemeEENS_16reverse_iteratorIPS3_EES7_S3_vEET1_RT_T0_SB_S8_, symObjAddr: 0x4F40, symBinAddr: 0x10000DB88, symSize: 0x78 }
  - { offsetInCU: 0x24BB8, offset: 0x3BD60, size: 0x8, addend: 0x0, symName: __ZNSt3__14swapB7v160006IPP6SchemeEENS_9enable_ifIXaasr21is_move_constructibleIT_EE5valuesr18is_move_assignableIS5_EE5valueEvE4typeERS5_S8_, symObjAddr: 0x5004, symBinAddr: 0x10000DC4C, symSize: 0x3C }
  - { offsetInCU: 0x24C09, offset: 0x3BDB1, size: 0x8, addend: 0x0, symName: __ZNSt3__125__debug_db_invalidate_allB7v160006INS_6vectorIP6SchemeNS_9allocatorIS3_EEEEEEvPT_, symObjAddr: 0x50EC, symBinAddr: 0x10000DD34, symSize: 0x10 }
  - { offsetInCU: 0x24C3A, offset: 0x3BDE2, size: 0x8, addend: 0x0, symName: __ZNSt3__14moveB7v160006INS_16reverse_iteratorIPP6SchemeEES5_EET0_T_S7_S6_, symObjAddr: 0x5144, symBinAddr: 0x10000DD8C, symSize: 0x78 }
  - { offsetInCU: 0x24C94, offset: 0x3BE3C, size: 0x8, addend: 0x0, symName: __ZNSt3__16__moveB7v160006INS_17_ClassicAlgPolicyENS_16reverse_iteratorIPP6SchemeEES6_S6_EENS_4pairIT0_T2_EES8_T1_S9_, symObjAddr: 0x51BC, symBinAddr: 0x10000DE04, symSize: 0x64 }
  - { offsetInCU: 0x24D00, offset: 0x3BEA8, size: 0x8, addend: 0x0, symName: __ZNSt3__123__dispatch_copy_or_moveB7v160006INS_17_ClassicAlgPolicyENS_11__move_loopIS1_EENS_14__move_trivialENS_16reverse_iteratorIPP6SchemeEES9_S9_EENS_4pairIT2_T4_EESB_T3_SC_, symObjAddr: 0x5220, symBinAddr: 0x10000DE68, symSize: 0x64 }
  - { offsetInCU: 0x24D7E, offset: 0x3BF26, size: 0x8, addend: 0x0, symName: __ZNSt3__121__unwrap_and_dispatchB7v160006INS_10__overloadINS_11__move_loopINS_17_ClassicAlgPolicyEEENS_14__move_trivialEEENS_16reverse_iteratorIPP6SchemeEESB_SB_Li0EEENS_4pairIT0_T2_EESD_T1_SE_, symObjAddr: 0x5284, symBinAddr: 0x10000DECC, symSize: 0x12C }
  - { offsetInCU: 0x24E0E, offset: 0x3BFB6, size: 0x8, addend: 0x0, symName: __ZNSt3__114__unwrap_rangeB7v160006INS_16reverse_iteratorIPP6SchemeEES5_EENS_4pairIT0_S7_EET_S9_, symObjAddr: 0x53B0, symBinAddr: 0x10000DFF8, symSize: 0x84 }
  - { offsetInCU: 0x25178, offset: 0x3C320, size: 0x8, addend: 0x0, symName: __ZNSt3__113__unwrap_iterB7v160006INS_16reverse_iteratorIPP6SchemeEENS_18__unwrap_iter_implIS5_Lb0EEELi0EEEDTclsrT0_8__unwrapclsr3stdE7declvalIT_EEEES9_, symObjAddr: 0x54D4, symBinAddr: 0x10000E11C, symSize: 0x44 }
  - { offsetInCU: 0x251BC, offset: 0x3C364, size: 0x8, addend: 0x0, symName: __ZNSt3__19make_pairB7v160006INS_16reverse_iteratorIPP6SchemeEES5_EENS_4pairINS_18__unwrap_ref_decayIT_E4typeENS7_IT0_E4typeEEEOS8_OSB_, symObjAddr: 0x5518, symBinAddr: 0x10000E160, symSize: 0x38 }
  - { offsetInCU: 0x2520B, offset: 0x3C3B3, size: 0x8, addend: 0x0, symName: __ZNSt3__114__rewrap_rangeB7v160006INS_16reverse_iteratorIPP6SchemeEES5_EET_S6_T0_, symObjAddr: 0x5550, symBinAddr: 0x10000E198, symSize: 0x5C }
  - { offsetInCU: 0x25257, offset: 0x3C3FF, size: 0x8, addend: 0x0, symName: __ZNSt3__113__rewrap_iterB7v160006INS_16reverse_iteratorIPP6SchemeEES5_NS_18__unwrap_iter_implIS5_Lb0EEEEET_S8_T0_, symObjAddr: 0x55AC, symBinAddr: 0x10000E1F4, symSize: 0x74 }
  - { offsetInCU: 0x252AC, offset: 0x3C454, size: 0x8, addend: 0x0, symName: __ZNSt3__1neB7v160006IPP6SchemeS3_EEbRKNS_16reverse_iteratorIT_EERKNS4_IT0_EE, symObjAddr: 0x5620, symBinAddr: 0x10000E268, symSize: 0x48 }
  - { offsetInCU: 0x255C0, offset: 0x3C768, size: 0x8, addend: 0x0, symName: __ZNSt3__119__debug_db_insert_cB7v160006INS_6vectorIP2IdNS_9allocatorIS3_EEEEEEvPT_, symObjAddr: 0x609C, symBinAddr: 0x10000ECB0, symSize: 0x10 }
  - { offsetInCU: 0x255F1, offset: 0x3C799, size: 0x8, addend: 0x0, symName: __ZNSt3__112__to_addressB7v160006IP2IdEEPT_S4_, symObjAddr: 0x63D4, symBinAddr: 0x10000EFE8, symSize: 0x14 }
  - { offsetInCU: 0x25626, offset: 0x3C7CE, size: 0x8, addend: 0x0, symName: __ZNSt3__119__allocate_at_leastB7v160006INS_9allocatorIP2IdEEEENS_19__allocation_resultINS_16allocator_traitsIT_E7pointerEEERS7_m, symObjAddr: 0x69D8, symBinAddr: 0x10000F5EC, symSize: 0x40 }
  - { offsetInCU: 0x25669, offset: 0x3C811, size: 0x8, addend: 0x0, symName: __ZNSt3__142__uninitialized_allocator_move_if_noexceptB7v160006INS_9allocatorIP2IdEENS_16reverse_iteratorIPS3_EES7_S3_vEET1_RT_T0_SB_S8_, symObjAddr: 0x6C44, symBinAddr: 0x10000F858, symSize: 0x78 }
  - { offsetInCU: 0x256E6, offset: 0x3C88E, size: 0x8, addend: 0x0, symName: __ZNSt3__14swapB7v160006IPP2IdEENS_9enable_ifIXaasr21is_move_constructibleIT_EE5valuesr18is_move_assignableIS5_EE5valueEvE4typeERS5_S8_, symObjAddr: 0x6D08, symBinAddr: 0x10000F91C, symSize: 0x3C }
  - { offsetInCU: 0x25737, offset: 0x3C8DF, size: 0x8, addend: 0x0, symName: __ZNSt3__125__debug_db_invalidate_allB7v160006INS_6vectorIP2IdNS_9allocatorIS3_EEEEEEvPT_, symObjAddr: 0x6DF0, symBinAddr: 0x10000FA04, symSize: 0x10 }
  - { offsetInCU: 0x25768, offset: 0x3C910, size: 0x8, addend: 0x0, symName: __ZNSt3__14moveB7v160006INS_16reverse_iteratorIPP2IdEES5_EET0_T_S7_S6_, symObjAddr: 0x6E48, symBinAddr: 0x10000FA5C, symSize: 0x78 }
  - { offsetInCU: 0x257C2, offset: 0x3C96A, size: 0x8, addend: 0x0, symName: __ZNSt3__16__moveB7v160006INS_17_ClassicAlgPolicyENS_16reverse_iteratorIPP2IdEES6_S6_EENS_4pairIT0_T2_EES8_T1_S9_, symObjAddr: 0x6EC0, symBinAddr: 0x10000FAD4, symSize: 0x64 }
  - { offsetInCU: 0x2582E, offset: 0x3C9D6, size: 0x8, addend: 0x0, symName: __ZNSt3__123__dispatch_copy_or_moveB7v160006INS_17_ClassicAlgPolicyENS_11__move_loopIS1_EENS_14__move_trivialENS_16reverse_iteratorIPP2IdEES9_S9_EENS_4pairIT2_T4_EESB_T3_SC_, symObjAddr: 0x6F24, symBinAddr: 0x10000FB38, symSize: 0x64 }
  - { offsetInCU: 0x258AC, offset: 0x3CA54, size: 0x8, addend: 0x0, symName: __ZNSt3__121__unwrap_and_dispatchB7v160006INS_10__overloadINS_11__move_loopINS_17_ClassicAlgPolicyEEENS_14__move_trivialEEENS_16reverse_iteratorIPP2IdEESB_SB_Li0EEENS_4pairIT0_T2_EESD_T1_SE_, symObjAddr: 0x6F88, symBinAddr: 0x10000FB9C, symSize: 0x12C }
  - { offsetInCU: 0x2593C, offset: 0x3CAE4, size: 0x8, addend: 0x0, symName: __ZNSt3__114__unwrap_rangeB7v160006INS_16reverse_iteratorIPP2IdEES5_EENS_4pairIT0_S7_EET_S9_, symObjAddr: 0x70B4, symBinAddr: 0x10000FCC8, symSize: 0x84 }
  - { offsetInCU: 0x25A5C, offset: 0x3CC04, size: 0x8, addend: 0x0, symName: __ZNSt3__113__unwrap_iterB7v160006INS_16reverse_iteratorIPP2IdEENS_18__unwrap_iter_implIS5_Lb0EEELi0EEEDTclsrT0_8__unwrapclsr3stdE7declvalIT_EEEES9_, symObjAddr: 0x71D8, symBinAddr: 0x10000FDEC, symSize: 0x44 }
  - { offsetInCU: 0x25AA0, offset: 0x3CC48, size: 0x8, addend: 0x0, symName: __ZNSt3__19make_pairB7v160006INS_16reverse_iteratorIPP2IdEES5_EENS_4pairINS_18__unwrap_ref_decayIT_E4typeENS7_IT0_E4typeEEEOS8_OSB_, symObjAddr: 0x721C, symBinAddr: 0x10000FE30, symSize: 0x38 }
  - { offsetInCU: 0x25AEF, offset: 0x3CC97, size: 0x8, addend: 0x0, symName: __ZNSt3__114__rewrap_rangeB7v160006INS_16reverse_iteratorIPP2IdEES5_EET_S6_T0_, symObjAddr: 0x7254, symBinAddr: 0x10000FE68, symSize: 0x5C }
  - { offsetInCU: 0x25B3B, offset: 0x3CCE3, size: 0x8, addend: 0x0, symName: __ZNSt3__113__rewrap_iterB7v160006INS_16reverse_iteratorIPP2IdEES5_NS_18__unwrap_iter_implIS5_Lb0EEEEET_S8_T0_, symObjAddr: 0x72B0, symBinAddr: 0x10000FEC4, symSize: 0x74 }
  - { offsetInCU: 0x25B90, offset: 0x3CD38, size: 0x8, addend: 0x0, symName: __ZNSt3__1neB7v160006IPP2IdS3_EEbRKNS_16reverse_iteratorIT_EERKNS4_IT0_EE, symObjAddr: 0x7324, symBinAddr: 0x10000FF38, symSize: 0x48 }
  - { offsetInCU: 0x25C48, offset: 0x3CDF0, size: 0x8, addend: 0x0, symName: __ZNSt3__118__debug_db_erase_cB7v160006INS_6vectorIP2IdNS_9allocatorIS3_EEEEEEvPT_, symObjAddr: 0x78C8, symBinAddr: 0x1000104DC, symSize: 0x10 }
  - { offsetInCU: 0x25C79, offset: 0x3CE21, size: 0x8, addend: 0x0, symName: __ZNSt3__118__debug_db_erase_cB7v160006INS_6vectorIP6SchemeNS_9allocatorIS3_EEEEEEvPT_, symObjAddr: 0x7CE0, symBinAddr: 0x100010810, symSize: 0x10 }
  - { offsetInCU: 0x25CAA, offset: 0x3CE52, size: 0x8, addend: 0x0, symName: __ZNSt3__119__debug_db_insert_cB7v160006INS_6vectorIP4FactNS_9allocatorIS3_EEEEEEvPT_, symObjAddr: 0x8384, symBinAddr: 0x100010EB4, symSize: 0x10 }
  - { offsetInCU: 0x25CDB, offset: 0x3CE83, size: 0x8, addend: 0x0, symName: __ZNSt3__112__to_addressB7v160006IP4FactEEPT_S4_, symObjAddr: 0x86BC, symBinAddr: 0x1000111EC, symSize: 0x14 }
  - { offsetInCU: 0x25D10, offset: 0x3CEB8, size: 0x8, addend: 0x0, symName: __ZNSt3__119__allocate_at_leastB7v160006INS_9allocatorIP4FactEEEENS_19__allocation_resultINS_16allocator_traitsIT_E7pointerEEERS7_m, symObjAddr: 0x8CC0, symBinAddr: 0x1000117F0, symSize: 0x40 }
  - { offsetInCU: 0x25D53, offset: 0x3CEFB, size: 0x8, addend: 0x0, symName: __ZNSt3__142__uninitialized_allocator_move_if_noexceptB7v160006INS_9allocatorIP4FactEENS_16reverse_iteratorIPS3_EES7_S3_vEET1_RT_T0_SB_S8_, symObjAddr: 0x8F2C, symBinAddr: 0x100011A5C, symSize: 0x78 }
  - { offsetInCU: 0x25DD0, offset: 0x3CF78, size: 0x8, addend: 0x0, symName: __ZNSt3__14swapB7v160006IPP4FactEENS_9enable_ifIXaasr21is_move_constructibleIT_EE5valuesr18is_move_assignableIS5_EE5valueEvE4typeERS5_S8_, symObjAddr: 0x8FF0, symBinAddr: 0x100011B20, symSize: 0x3C }
  - { offsetInCU: 0x25E21, offset: 0x3CFC9, size: 0x8, addend: 0x0, symName: __ZNSt3__125__debug_db_invalidate_allB7v160006INS_6vectorIP4FactNS_9allocatorIS3_EEEEEEvPT_, symObjAddr: 0x90D8, symBinAddr: 0x100011C08, symSize: 0x10 }
  - { offsetInCU: 0x25E52, offset: 0x3CFFA, size: 0x8, addend: 0x0, symName: __ZNSt3__14moveB7v160006INS_16reverse_iteratorIPP4FactEES5_EET0_T_S7_S6_, symObjAddr: 0x9130, symBinAddr: 0x100011C60, symSize: 0x78 }
  - { offsetInCU: 0x25EAC, offset: 0x3D054, size: 0x8, addend: 0x0, symName: __ZNSt3__16__moveB7v160006INS_17_ClassicAlgPolicyENS_16reverse_iteratorIPP4FactEES6_S6_EENS_4pairIT0_T2_EES8_T1_S9_, symObjAddr: 0x91A8, symBinAddr: 0x100011CD8, symSize: 0x64 }
  - { offsetInCU: 0x25F18, offset: 0x3D0C0, size: 0x8, addend: 0x0, symName: __ZNSt3__123__dispatch_copy_or_moveB7v160006INS_17_ClassicAlgPolicyENS_11__move_loopIS1_EENS_14__move_trivialENS_16reverse_iteratorIPP4FactEES9_S9_EENS_4pairIT2_T4_EESB_T3_SC_, symObjAddr: 0x920C, symBinAddr: 0x100011D3C, symSize: 0x64 }
  - { offsetInCU: 0x25F96, offset: 0x3D13E, size: 0x8, addend: 0x0, symName: __ZNSt3__121__unwrap_and_dispatchB7v160006INS_10__overloadINS_11__move_loopINS_17_ClassicAlgPolicyEEENS_14__move_trivialEEENS_16reverse_iteratorIPP4FactEESB_SB_Li0EEENS_4pairIT0_T2_EESD_T1_SE_, symObjAddr: 0x9270, symBinAddr: 0x100011DA0, symSize: 0x12C }
  - { offsetInCU: 0x26026, offset: 0x3D1CE, size: 0x8, addend: 0x0, symName: __ZNSt3__114__unwrap_rangeB7v160006INS_16reverse_iteratorIPP4FactEES5_EENS_4pairIT0_S7_EET_S9_, symObjAddr: 0x939C, symBinAddr: 0x100011ECC, symSize: 0x84 }
  - { offsetInCU: 0x26146, offset: 0x3D2EE, size: 0x8, addend: 0x0, symName: __ZNSt3__113__unwrap_iterB7v160006INS_16reverse_iteratorIPP4FactEENS_18__unwrap_iter_implIS5_Lb0EEELi0EEEDTclsrT0_8__unwrapclsr3stdE7declvalIT_EEEES9_, symObjAddr: 0x94C0, symBinAddr: 0x100011FF0, symSize: 0x44 }
  - { offsetInCU: 0x2618A, offset: 0x3D332, size: 0x8, addend: 0x0, symName: __ZNSt3__19make_pairB7v160006INS_16reverse_iteratorIPP4FactEES5_EENS_4pairINS_18__unwrap_ref_decayIT_E4typeENS7_IT0_E4typeEEEOS8_OSB_, symObjAddr: 0x9504, symBinAddr: 0x100012034, symSize: 0x38 }
  - { offsetInCU: 0x261D9, offset: 0x3D381, size: 0x8, addend: 0x0, symName: __ZNSt3__114__rewrap_rangeB7v160006INS_16reverse_iteratorIPP4FactEES5_EET_S6_T0_, symObjAddr: 0x953C, symBinAddr: 0x10001206C, symSize: 0x5C }
  - { offsetInCU: 0x26225, offset: 0x3D3CD, size: 0x8, addend: 0x0, symName: __ZNSt3__113__rewrap_iterB7v160006INS_16reverse_iteratorIPP4FactEES5_NS_18__unwrap_iter_implIS5_Lb0EEEEET_S8_T0_, symObjAddr: 0x9598, symBinAddr: 0x1000120C8, symSize: 0x74 }
  - { offsetInCU: 0x2627A, offset: 0x3D422, size: 0x8, addend: 0x0, symName: __ZNSt3__1neB7v160006IPP4FactS3_EEbRKNS_16reverse_iteratorIT_EERKNS4_IT0_EE, symObjAddr: 0x960C, symBinAddr: 0x10001213C, symSize: 0x48 }
  - { offsetInCU: 0x26332, offset: 0x3D4DA, size: 0x8, addend: 0x0, symName: __ZNSt3__119__debug_db_insert_cB7v160006INS_6vectorIP8DLStringNS_9allocatorIS3_EEEEEEvPT_, symObjAddr: 0xA10C, symBinAddr: 0x100012C3C, symSize: 0x10 }
  - { offsetInCU: 0x26363, offset: 0x3D50B, size: 0x8, addend: 0x0, symName: __ZNSt3__112__to_addressB7v160006IP8DLStringEEPT_S4_, symObjAddr: 0xA444, symBinAddr: 0x100012F74, symSize: 0x14 }
  - { offsetInCU: 0x26398, offset: 0x3D540, size: 0x8, addend: 0x0, symName: __ZNSt3__119__allocate_at_leastB7v160006INS_9allocatorIP8DLStringEEEENS_19__allocation_resultINS_16allocator_traitsIT_E7pointerEEERS7_m, symObjAddr: 0xAA48, symBinAddr: 0x100013578, symSize: 0x40 }
  - { offsetInCU: 0x263DB, offset: 0x3D583, size: 0x8, addend: 0x0, symName: __ZNSt3__142__uninitialized_allocator_move_if_noexceptB7v160006INS_9allocatorIP8DLStringEENS_16reverse_iteratorIPS3_EES7_S3_vEET1_RT_T0_SB_S8_, symObjAddr: 0xACB4, symBinAddr: 0x1000137E4, symSize: 0x78 }
  - { offsetInCU: 0x26458, offset: 0x3D600, size: 0x8, addend: 0x0, symName: __ZNSt3__14swapB7v160006IPP8DLStringEENS_9enable_ifIXaasr21is_move_constructibleIT_EE5valuesr18is_move_assignableIS5_EE5valueEvE4typeERS5_S8_, symObjAddr: 0xAD78, symBinAddr: 0x1000138A8, symSize: 0x3C }
  - { offsetInCU: 0x264A9, offset: 0x3D651, size: 0x8, addend: 0x0, symName: __ZNSt3__125__debug_db_invalidate_allB7v160006INS_6vectorIP8DLStringNS_9allocatorIS3_EEEEEEvPT_, symObjAddr: 0xAE60, symBinAddr: 0x100013990, symSize: 0x10 }
  - { offsetInCU: 0x264DA, offset: 0x3D682, size: 0x8, addend: 0x0, symName: __ZNSt3__14moveB7v160006INS_16reverse_iteratorIPP8DLStringEES5_EET0_T_S7_S6_, symObjAddr: 0xAEB8, symBinAddr: 0x1000139E8, symSize: 0x78 }
  - { offsetInCU: 0x26534, offset: 0x3D6DC, size: 0x8, addend: 0x0, symName: __ZNSt3__16__moveB7v160006INS_17_ClassicAlgPolicyENS_16reverse_iteratorIPP8DLStringEES6_S6_EENS_4pairIT0_T2_EES8_T1_S9_, symObjAddr: 0xAF30, symBinAddr: 0x100013A60, symSize: 0x64 }
  - { offsetInCU: 0x265A0, offset: 0x3D748, size: 0x8, addend: 0x0, symName: __ZNSt3__123__dispatch_copy_or_moveB7v160006INS_17_ClassicAlgPolicyENS_11__move_loopIS1_EENS_14__move_trivialENS_16reverse_iteratorIPP8DLStringEES9_S9_EENS_4pairIT2_T4_EESB_T3_SC_, symObjAddr: 0xAF94, symBinAddr: 0x100013AC4, symSize: 0x64 }
  - { offsetInCU: 0x2661E, offset: 0x3D7C6, size: 0x8, addend: 0x0, symName: __ZNSt3__121__unwrap_and_dispatchB7v160006INS_10__overloadINS_11__move_loopINS_17_ClassicAlgPolicyEEENS_14__move_trivialEEENS_16reverse_iteratorIPP8DLStringEESB_SB_Li0EEENS_4pairIT0_T2_EESD_T1_SE_, symObjAddr: 0xAFF8, symBinAddr: 0x100013B28, symSize: 0x12C }
  - { offsetInCU: 0x266AE, offset: 0x3D856, size: 0x8, addend: 0x0, symName: __ZNSt3__114__unwrap_rangeB7v160006INS_16reverse_iteratorIPP8DLStringEES5_EENS_4pairIT0_S7_EET_S9_, symObjAddr: 0xB124, symBinAddr: 0x100013C54, symSize: 0x84 }
  - { offsetInCU: 0x267CE, offset: 0x3D976, size: 0x8, addend: 0x0, symName: __ZNSt3__113__unwrap_iterB7v160006INS_16reverse_iteratorIPP8DLStringEENS_18__unwrap_iter_implIS5_Lb0EEELi0EEEDTclsrT0_8__unwrapclsr3stdE7declvalIT_EEEES9_, symObjAddr: 0xB248, symBinAddr: 0x100013D78, symSize: 0x44 }
  - { offsetInCU: 0x26812, offset: 0x3D9BA, size: 0x8, addend: 0x0, symName: __ZNSt3__19make_pairB7v160006INS_16reverse_iteratorIPP8DLStringEES5_EENS_4pairINS_18__unwrap_ref_decayIT_E4typeENS7_IT0_E4typeEEEOS8_OSB_, symObjAddr: 0xB28C, symBinAddr: 0x100013DBC, symSize: 0x38 }
  - { offsetInCU: 0x26861, offset: 0x3DA09, size: 0x8, addend: 0x0, symName: __ZNSt3__114__rewrap_rangeB7v160006INS_16reverse_iteratorIPP8DLStringEES5_EET_S6_T0_, symObjAddr: 0xB2C4, symBinAddr: 0x100013DF4, symSize: 0x5C }
  - { offsetInCU: 0x268AD, offset: 0x3DA55, size: 0x8, addend: 0x0, symName: __ZNSt3__113__rewrap_iterB7v160006INS_16reverse_iteratorIPP8DLStringEES5_NS_18__unwrap_iter_implIS5_Lb0EEEEET_S8_T0_, symObjAddr: 0xB320, symBinAddr: 0x100013E50, symSize: 0x74 }
  - { offsetInCU: 0x26902, offset: 0x3DAAA, size: 0x8, addend: 0x0, symName: __ZNSt3__1neB7v160006IPP8DLStringS3_EEbRKNS_16reverse_iteratorIT_EERKNS4_IT0_EE, symObjAddr: 0xB394, symBinAddr: 0x100013EC4, symSize: 0x48 }
  - { offsetInCU: 0x269BA, offset: 0x3DB62, size: 0x8, addend: 0x0, symName: __ZNSt3__118__debug_db_erase_cB7v160006INS_6vectorIP8DLStringNS_9allocatorIS3_EEEEEEvPT_, symObjAddr: 0xB954, symBinAddr: 0x100014484, symSize: 0x10 }
  - { offsetInCU: 0x269EB, offset: 0x3DB93, size: 0x8, addend: 0x0, symName: __ZNSt3__118__debug_db_erase_cB7v160006INS_6vectorIP4FactNS_9allocatorIS3_EEEEEEvPT_, symObjAddr: 0xBC88, symBinAddr: 0x1000147B8, symSize: 0x10 }
  - { offsetInCU: 0x26A1C, offset: 0x3DBC4, size: 0x8, addend: 0x0, symName: __ZNSt3__119__debug_db_insert_cB7v160006INS_6vectorIP4RuleNS_9allocatorIS3_EEEEEEvPT_, symObjAddr: 0xC3C0, symBinAddr: 0x100014EF0, symSize: 0x10 }
  - { offsetInCU: 0x26A4D, offset: 0x3DBF5, size: 0x8, addend: 0x0, symName: __ZNSt3__112__to_addressB7v160006IP4RuleEEPT_S4_, symObjAddr: 0xC6F8, symBinAddr: 0x100015228, symSize: 0x14 }
  - { offsetInCU: 0x26A82, offset: 0x3DC2A, size: 0x8, addend: 0x0, symName: __ZNSt3__119__allocate_at_leastB7v160006INS_9allocatorIP4RuleEEEENS_19__allocation_resultINS_16allocator_traitsIT_E7pointerEEERS7_m, symObjAddr: 0xCCFC, symBinAddr: 0x10001582C, symSize: 0x40 }
  - { offsetInCU: 0x26AC5, offset: 0x3DC6D, size: 0x8, addend: 0x0, symName: __ZNSt3__142__uninitialized_allocator_move_if_noexceptB7v160006INS_9allocatorIP4RuleEENS_16reverse_iteratorIPS3_EES7_S3_vEET1_RT_T0_SB_S8_, symObjAddr: 0xCF68, symBinAddr: 0x100015A98, symSize: 0x78 }
  - { offsetInCU: 0x26B42, offset: 0x3DCEA, size: 0x8, addend: 0x0, symName: __ZNSt3__14swapB7v160006IPP4RuleEENS_9enable_ifIXaasr21is_move_constructibleIT_EE5valuesr18is_move_assignableIS5_EE5valueEvE4typeERS5_S8_, symObjAddr: 0xD02C, symBinAddr: 0x100015B5C, symSize: 0x3C }
  - { offsetInCU: 0x26B93, offset: 0x3DD3B, size: 0x8, addend: 0x0, symName: __ZNSt3__125__debug_db_invalidate_allB7v160006INS_6vectorIP4RuleNS_9allocatorIS3_EEEEEEvPT_, symObjAddr: 0xD114, symBinAddr: 0x100015C44, symSize: 0x10 }
  - { offsetInCU: 0x26BC4, offset: 0x3DD6C, size: 0x8, addend: 0x0, symName: __ZNSt3__14moveB7v160006INS_16reverse_iteratorIPP4RuleEES5_EET0_T_S7_S6_, symObjAddr: 0xD16C, symBinAddr: 0x100015C9C, symSize: 0x78 }
  - { offsetInCU: 0x26C1E, offset: 0x3DDC6, size: 0x8, addend: 0x0, symName: __ZNSt3__16__moveB7v160006INS_17_ClassicAlgPolicyENS_16reverse_iteratorIPP4RuleEES6_S6_EENS_4pairIT0_T2_EES8_T1_S9_, symObjAddr: 0xD1E4, symBinAddr: 0x100015D14, symSize: 0x64 }
  - { offsetInCU: 0x26C8A, offset: 0x3DE32, size: 0x8, addend: 0x0, symName: __ZNSt3__123__dispatch_copy_or_moveB7v160006INS_17_ClassicAlgPolicyENS_11__move_loopIS1_EENS_14__move_trivialENS_16reverse_iteratorIPP4RuleEES9_S9_EENS_4pairIT2_T4_EESB_T3_SC_, symObjAddr: 0xD248, symBinAddr: 0x100015D78, symSize: 0x64 }
  - { offsetInCU: 0x26D08, offset: 0x3DEB0, size: 0x8, addend: 0x0, symName: __ZNSt3__121__unwrap_and_dispatchB7v160006INS_10__overloadINS_11__move_loopINS_17_ClassicAlgPolicyEEENS_14__move_trivialEEENS_16reverse_iteratorIPP4RuleEESB_SB_Li0EEENS_4pairIT0_T2_EESD_T1_SE_, symObjAddr: 0xD2AC, symBinAddr: 0x100015DDC, symSize: 0x12C }
  - { offsetInCU: 0x26D98, offset: 0x3DF40, size: 0x8, addend: 0x0, symName: __ZNSt3__114__unwrap_rangeB7v160006INS_16reverse_iteratorIPP4RuleEES5_EENS_4pairIT0_S7_EET_S9_, symObjAddr: 0xD3D8, symBinAddr: 0x100015F08, symSize: 0x84 }
  - { offsetInCU: 0x26EB8, offset: 0x3E060, size: 0x8, addend: 0x0, symName: __ZNSt3__113__unwrap_iterB7v160006INS_16reverse_iteratorIPP4RuleEENS_18__unwrap_iter_implIS5_Lb0EEELi0EEEDTclsrT0_8__unwrapclsr3stdE7declvalIT_EEEES9_, symObjAddr: 0xD4FC, symBinAddr: 0x10001602C, symSize: 0x44 }
  - { offsetInCU: 0x26EFC, offset: 0x3E0A4, size: 0x8, addend: 0x0, symName: __ZNSt3__19make_pairB7v160006INS_16reverse_iteratorIPP4RuleEES5_EENS_4pairINS_18__unwrap_ref_decayIT_E4typeENS7_IT0_E4typeEEEOS8_OSB_, symObjAddr: 0xD540, symBinAddr: 0x100016070, symSize: 0x38 }
  - { offsetInCU: 0x26F4B, offset: 0x3E0F3, size: 0x8, addend: 0x0, symName: __ZNSt3__114__rewrap_rangeB7v160006INS_16reverse_iteratorIPP4RuleEES5_EET_S6_T0_, symObjAddr: 0xD578, symBinAddr: 0x1000160A8, symSize: 0x5C }
  - { offsetInCU: 0x26F97, offset: 0x3E13F, size: 0x8, addend: 0x0, symName: __ZNSt3__113__rewrap_iterB7v160006INS_16reverse_iteratorIPP4RuleEES5_NS_18__unwrap_iter_implIS5_Lb0EEEEET_S8_T0_, symObjAddr: 0xD5D4, symBinAddr: 0x100016104, symSize: 0x74 }
  - { offsetInCU: 0x26FEC, offset: 0x3E194, size: 0x8, addend: 0x0, symName: __ZNSt3__1neB7v160006IPP4RuleS3_EEbRKNS_16reverse_iteratorIT_EERKNS4_IT0_EE, symObjAddr: 0xD648, symBinAddr: 0x100016178, symSize: 0x48 }
  - { offsetInCU: 0x270A4, offset: 0x3E24C, size: 0x8, addend: 0x0, symName: __ZNSt3__119__debug_db_insert_cB7v160006INS_6vectorIP9PredicateNS_9allocatorIS3_EEEEEEvPT_, symObjAddr: 0xE554, symBinAddr: 0x100017084, symSize: 0x10 }
  - { offsetInCU: 0x270D5, offset: 0x3E27D, size: 0x8, addend: 0x0, symName: __ZNSt3__112__to_addressB7v160006IP9PredicateEEPT_S4_, symObjAddr: 0xE88C, symBinAddr: 0x1000173BC, symSize: 0x14 }
  - { offsetInCU: 0x2710A, offset: 0x3E2B2, size: 0x8, addend: 0x0, symName: __ZNSt3__119__allocate_at_leastB7v160006INS_9allocatorIP9PredicateEEEENS_19__allocation_resultINS_16allocator_traitsIT_E7pointerEEERS7_m, symObjAddr: 0xEE90, symBinAddr: 0x1000179C0, symSize: 0x40 }
  - { offsetInCU: 0x2714D, offset: 0x3E2F5, size: 0x8, addend: 0x0, symName: __ZNSt3__142__uninitialized_allocator_move_if_noexceptB7v160006INS_9allocatorIP9PredicateEENS_16reverse_iteratorIPS3_EES7_S3_vEET1_RT_T0_SB_S8_, symObjAddr: 0xF0FC, symBinAddr: 0x100017C2C, symSize: 0x78 }
  - { offsetInCU: 0x271CA, offset: 0x3E372, size: 0x8, addend: 0x0, symName: __ZNSt3__14swapB7v160006IPP9PredicateEENS_9enable_ifIXaasr21is_move_constructibleIT_EE5valuesr18is_move_assignableIS5_EE5valueEvE4typeERS5_S8_, symObjAddr: 0xF1C0, symBinAddr: 0x100017CF0, symSize: 0x3C }
  - { offsetInCU: 0x2721B, offset: 0x3E3C3, size: 0x8, addend: 0x0, symName: __ZNSt3__125__debug_db_invalidate_allB7v160006INS_6vectorIP9PredicateNS_9allocatorIS3_EEEEEEvPT_, symObjAddr: 0xF2A8, symBinAddr: 0x100017DD8, symSize: 0x10 }
  - { offsetInCU: 0x2724C, offset: 0x3E3F4, size: 0x8, addend: 0x0, symName: __ZNSt3__14moveB7v160006INS_16reverse_iteratorIPP9PredicateEES5_EET0_T_S7_S6_, symObjAddr: 0xF300, symBinAddr: 0x100017E30, symSize: 0x78 }
  - { offsetInCU: 0x272A6, offset: 0x3E44E, size: 0x8, addend: 0x0, symName: __ZNSt3__16__moveB7v160006INS_17_ClassicAlgPolicyENS_16reverse_iteratorIPP9PredicateEES6_S6_EENS_4pairIT0_T2_EES8_T1_S9_, symObjAddr: 0xF378, symBinAddr: 0x100017EA8, symSize: 0x64 }
  - { offsetInCU: 0x27312, offset: 0x3E4BA, size: 0x8, addend: 0x0, symName: __ZNSt3__123__dispatch_copy_or_moveB7v160006INS_17_ClassicAlgPolicyENS_11__move_loopIS1_EENS_14__move_trivialENS_16reverse_iteratorIPP9PredicateEES9_S9_EENS_4pairIT2_T4_EESB_T3_SC_, symObjAddr: 0xF3DC, symBinAddr: 0x100017F0C, symSize: 0x64 }
  - { offsetInCU: 0x27390, offset: 0x3E538, size: 0x8, addend: 0x0, symName: __ZNSt3__121__unwrap_and_dispatchB7v160006INS_10__overloadINS_11__move_loopINS_17_ClassicAlgPolicyEEENS_14__move_trivialEEENS_16reverse_iteratorIPP9PredicateEESB_SB_Li0EEENS_4pairIT0_T2_EESD_T1_SE_, symObjAddr: 0xF440, symBinAddr: 0x100017F70, symSize: 0x12C }
  - { offsetInCU: 0x27420, offset: 0x3E5C8, size: 0x8, addend: 0x0, symName: __ZNSt3__114__unwrap_rangeB7v160006INS_16reverse_iteratorIPP9PredicateEES5_EENS_4pairIT0_S7_EET_S9_, symObjAddr: 0xF56C, symBinAddr: 0x10001809C, symSize: 0x84 }
  - { offsetInCU: 0x27540, offset: 0x3E6E8, size: 0x8, addend: 0x0, symName: __ZNSt3__113__unwrap_iterB7v160006INS_16reverse_iteratorIPP9PredicateEENS_18__unwrap_iter_implIS5_Lb0EEELi0EEEDTclsrT0_8__unwrapclsr3stdE7declvalIT_EEEES9_, symObjAddr: 0xF690, symBinAddr: 0x1000181C0, symSize: 0x44 }
  - { offsetInCU: 0x27584, offset: 0x3E72C, size: 0x8, addend: 0x0, symName: __ZNSt3__19make_pairB7v160006INS_16reverse_iteratorIPP9PredicateEES5_EENS_4pairINS_18__unwrap_ref_decayIT_E4typeENS7_IT0_E4typeEEEOS8_OSB_, symObjAddr: 0xF6D4, symBinAddr: 0x100018204, symSize: 0x38 }
  - { offsetInCU: 0x275D3, offset: 0x3E77B, size: 0x8, addend: 0x0, symName: __ZNSt3__114__rewrap_rangeB7v160006INS_16reverse_iteratorIPP9PredicateEES5_EET_S6_T0_, symObjAddr: 0xF70C, symBinAddr: 0x10001823C, symSize: 0x5C }
  - { offsetInCU: 0x2761F, offset: 0x3E7C7, size: 0x8, addend: 0x0, symName: __ZNSt3__113__rewrap_iterB7v160006INS_16reverse_iteratorIPP9PredicateEES5_NS_18__unwrap_iter_implIS5_Lb0EEEEET_S8_T0_, symObjAddr: 0xF768, symBinAddr: 0x100018298, symSize: 0x74 }
  - { offsetInCU: 0x27674, offset: 0x3E81C, size: 0x8, addend: 0x0, symName: __ZNSt3__1neB7v160006IPP9PredicateS3_EEbRKNS_16reverse_iteratorIT_EERKNS4_IT0_EE, symObjAddr: 0xF7DC, symBinAddr: 0x10001830C, symSize: 0x48 }
  - { offsetInCU: 0x2772C, offset: 0x3E8D4, size: 0x8, addend: 0x0, symName: __ZNSt3__119__debug_db_insert_cB7v160006INS_6vectorIP9ParameterNS_9allocatorIS3_EEEEEEvPT_, symObjAddr: 0x1017C, symBinAddr: 0x100018CAC, symSize: 0x10 }
  - { offsetInCU: 0x2775D, offset: 0x3E905, size: 0x8, addend: 0x0, symName: __ZNSt3__112__to_addressB7v160006IP9ParameterEEPT_S4_, symObjAddr: 0x104B4, symBinAddr: 0x100018FE4, symSize: 0x14 }
  - { offsetInCU: 0x27792, offset: 0x3E93A, size: 0x8, addend: 0x0, symName: __ZNSt3__119__allocate_at_leastB7v160006INS_9allocatorIP9ParameterEEEENS_19__allocation_resultINS_16allocator_traitsIT_E7pointerEEERS7_m, symObjAddr: 0x10AB8, symBinAddr: 0x1000195E8, symSize: 0x40 }
  - { offsetInCU: 0x277D5, offset: 0x3E97D, size: 0x8, addend: 0x0, symName: __ZNSt3__142__uninitialized_allocator_move_if_noexceptB7v160006INS_9allocatorIP9ParameterEENS_16reverse_iteratorIPS3_EES7_S3_vEET1_RT_T0_SB_S8_, symObjAddr: 0x10D24, symBinAddr: 0x100019854, symSize: 0x78 }
  - { offsetInCU: 0x27852, offset: 0x3E9FA, size: 0x8, addend: 0x0, symName: __ZNSt3__14swapB7v160006IPP9ParameterEENS_9enable_ifIXaasr21is_move_constructibleIT_EE5valuesr18is_move_assignableIS5_EE5valueEvE4typeERS5_S8_, symObjAddr: 0x10DE8, symBinAddr: 0x100019918, symSize: 0x3C }
  - { offsetInCU: 0x278A3, offset: 0x3EA4B, size: 0x8, addend: 0x0, symName: __ZNSt3__125__debug_db_invalidate_allB7v160006INS_6vectorIP9ParameterNS_9allocatorIS3_EEEEEEvPT_, symObjAddr: 0x10ED0, symBinAddr: 0x100019A00, symSize: 0x10 }
  - { offsetInCU: 0x278D4, offset: 0x3EA7C, size: 0x8, addend: 0x0, symName: __ZNSt3__14moveB7v160006INS_16reverse_iteratorIPP9ParameterEES5_EET0_T_S7_S6_, symObjAddr: 0x10F28, symBinAddr: 0x100019A58, symSize: 0x78 }
  - { offsetInCU: 0x2792E, offset: 0x3EAD6, size: 0x8, addend: 0x0, symName: __ZNSt3__16__moveB7v160006INS_17_ClassicAlgPolicyENS_16reverse_iteratorIPP9ParameterEES6_S6_EENS_4pairIT0_T2_EES8_T1_S9_, symObjAddr: 0x10FA0, symBinAddr: 0x100019AD0, symSize: 0x64 }
  - { offsetInCU: 0x2799A, offset: 0x3EB42, size: 0x8, addend: 0x0, symName: __ZNSt3__123__dispatch_copy_or_moveB7v160006INS_17_ClassicAlgPolicyENS_11__move_loopIS1_EENS_14__move_trivialENS_16reverse_iteratorIPP9ParameterEES9_S9_EENS_4pairIT2_T4_EESB_T3_SC_, symObjAddr: 0x11004, symBinAddr: 0x100019B34, symSize: 0x64 }
  - { offsetInCU: 0x27A18, offset: 0x3EBC0, size: 0x8, addend: 0x0, symName: __ZNSt3__121__unwrap_and_dispatchB7v160006INS_10__overloadINS_11__move_loopINS_17_ClassicAlgPolicyEEENS_14__move_trivialEEENS_16reverse_iteratorIPP9ParameterEESB_SB_Li0EEENS_4pairIT0_T2_EESD_T1_SE_, symObjAddr: 0x11068, symBinAddr: 0x100019B98, symSize: 0x12C }
  - { offsetInCU: 0x27AA8, offset: 0x3EC50, size: 0x8, addend: 0x0, symName: __ZNSt3__114__unwrap_rangeB7v160006INS_16reverse_iteratorIPP9ParameterEES5_EENS_4pairIT0_S7_EET_S9_, symObjAddr: 0x11194, symBinAddr: 0x100019CC4, symSize: 0x84 }
  - { offsetInCU: 0x27BC8, offset: 0x3ED70, size: 0x8, addend: 0x0, symName: __ZNSt3__113__unwrap_iterB7v160006INS_16reverse_iteratorIPP9ParameterEENS_18__unwrap_iter_implIS5_Lb0EEELi0EEEDTclsrT0_8__unwrapclsr3stdE7declvalIT_EEEES9_, symObjAddr: 0x112B8, symBinAddr: 0x100019DE8, symSize: 0x44 }
  - { offsetInCU: 0x27C0C, offset: 0x3EDB4, size: 0x8, addend: 0x0, symName: __ZNSt3__19make_pairB7v160006INS_16reverse_iteratorIPP9ParameterEES5_EENS_4pairINS_18__unwrap_ref_decayIT_E4typeENS7_IT0_E4typeEEEOS8_OSB_, symObjAddr: 0x112FC, symBinAddr: 0x100019E2C, symSize: 0x38 }
  - { offsetInCU: 0x27C5B, offset: 0x3EE03, size: 0x8, addend: 0x0, symName: __ZNSt3__114__rewrap_rangeB7v160006INS_16reverse_iteratorIPP9ParameterEES5_EET_S6_T0_, symObjAddr: 0x11334, symBinAddr: 0x100019E64, symSize: 0x5C }
  - { offsetInCU: 0x27CA7, offset: 0x3EE4F, size: 0x8, addend: 0x0, symName: __ZNSt3__113__rewrap_iterB7v160006INS_16reverse_iteratorIPP9ParameterEES5_NS_18__unwrap_iter_implIS5_Lb0EEEEET_S8_T0_, symObjAddr: 0x11390, symBinAddr: 0x100019EC0, symSize: 0x74 }
  - { offsetInCU: 0x27CFC, offset: 0x3EEA4, size: 0x8, addend: 0x0, symName: __ZNSt3__1neB7v160006IPP9ParameterS3_EEbRKNS_16reverse_iteratorIT_EERKNS4_IT0_EE, symObjAddr: 0x11404, symBinAddr: 0x100019F34, symSize: 0x48 }
  - { offsetInCU: 0x27DB4, offset: 0x3EF5C, size: 0x8, addend: 0x0, symName: __ZNSt3__118__debug_db_erase_cB7v160006INS_6vectorIP9ParameterNS_9allocatorIS3_EEEEEEvPT_, symObjAddr: 0x1197C, symBinAddr: 0x10001A4AC, symSize: 0x10 }
  - { offsetInCU: 0x27DE5, offset: 0x3EF8D, size: 0x8, addend: 0x0, symName: __ZNSt3__118__debug_db_erase_cB7v160006INS_6vectorIP9PredicateNS_9allocatorIS3_EEEEEEvPT_, symObjAddr: 0x11C70, symBinAddr: 0x10001A7A0, symSize: 0x10 }
  - { offsetInCU: 0x27E16, offset: 0x3EFBE, size: 0x8, addend: 0x0, symName: __ZNSt3__118__debug_db_erase_cB7v160006INS_6vectorIP4RuleNS_9allocatorIS3_EEEEEEvPT_, symObjAddr: 0x120A8, symBinAddr: 0x10001ABD8, symSize: 0x10 }
  - { offsetInCU: 0x27E47, offset: 0x3EFEF, size: 0x8, addend: 0x0, symName: __ZNSt3__119__debug_db_insert_cB7v160006INS_6vectorIP5QueryNS_9allocatorIS3_EEEEEEvPT_, symObjAddr: 0x127DC, symBinAddr: 0x10001B30C, symSize: 0x10 }
  - { offsetInCU: 0x27E78, offset: 0x3F020, size: 0x8, addend: 0x0, symName: __ZNSt3__112__to_addressB7v160006IP5QueryEEPT_S4_, symObjAddr: 0x12B14, symBinAddr: 0x10001B644, symSize: 0x14 }
  - { offsetInCU: 0x27EAD, offset: 0x3F055, size: 0x8, addend: 0x0, symName: __ZNSt3__119__allocate_at_leastB7v160006INS_9allocatorIP5QueryEEEENS_19__allocation_resultINS_16allocator_traitsIT_E7pointerEEERS7_m, symObjAddr: 0x13118, symBinAddr: 0x10001BC48, symSize: 0x40 }
  - { offsetInCU: 0x27EF0, offset: 0x3F098, size: 0x8, addend: 0x0, symName: __ZNSt3__142__uninitialized_allocator_move_if_noexceptB7v160006INS_9allocatorIP5QueryEENS_16reverse_iteratorIPS3_EES7_S3_vEET1_RT_T0_SB_S8_, symObjAddr: 0x13384, symBinAddr: 0x10001BEB4, symSize: 0x78 }
  - { offsetInCU: 0x27F6D, offset: 0x3F115, size: 0x8, addend: 0x0, symName: __ZNSt3__14swapB7v160006IPP5QueryEENS_9enable_ifIXaasr21is_move_constructibleIT_EE5valuesr18is_move_assignableIS5_EE5valueEvE4typeERS5_S8_, symObjAddr: 0x13448, symBinAddr: 0x10001BF78, symSize: 0x3C }
  - { offsetInCU: 0x27FBE, offset: 0x3F166, size: 0x8, addend: 0x0, symName: __ZNSt3__125__debug_db_invalidate_allB7v160006INS_6vectorIP5QueryNS_9allocatorIS3_EEEEEEvPT_, symObjAddr: 0x13530, symBinAddr: 0x10001C060, symSize: 0x10 }
  - { offsetInCU: 0x27FEF, offset: 0x3F197, size: 0x8, addend: 0x0, symName: __ZNSt3__14moveB7v160006INS_16reverse_iteratorIPP5QueryEES5_EET0_T_S7_S6_, symObjAddr: 0x13588, symBinAddr: 0x10001C0B8, symSize: 0x78 }
  - { offsetInCU: 0x28049, offset: 0x3F1F1, size: 0x8, addend: 0x0, symName: __ZNSt3__16__moveB7v160006INS_17_ClassicAlgPolicyENS_16reverse_iteratorIPP5QueryEES6_S6_EENS_4pairIT0_T2_EES8_T1_S9_, symObjAddr: 0x13600, symBinAddr: 0x10001C130, symSize: 0x64 }
  - { offsetInCU: 0x280B5, offset: 0x3F25D, size: 0x8, addend: 0x0, symName: __ZNSt3__123__dispatch_copy_or_moveB7v160006INS_17_ClassicAlgPolicyENS_11__move_loopIS1_EENS_14__move_trivialENS_16reverse_iteratorIPP5QueryEES9_S9_EENS_4pairIT2_T4_EESB_T3_SC_, symObjAddr: 0x13664, symBinAddr: 0x10001C194, symSize: 0x64 }
  - { offsetInCU: 0x28133, offset: 0x3F2DB, size: 0x8, addend: 0x0, symName: __ZNSt3__121__unwrap_and_dispatchB7v160006INS_10__overloadINS_11__move_loopINS_17_ClassicAlgPolicyEEENS_14__move_trivialEEENS_16reverse_iteratorIPP5QueryEESB_SB_Li0EEENS_4pairIT0_T2_EESD_T1_SE_, symObjAddr: 0x136C8, symBinAddr: 0x10001C1F8, symSize: 0x12C }
  - { offsetInCU: 0x281C3, offset: 0x3F36B, size: 0x8, addend: 0x0, symName: __ZNSt3__114__unwrap_rangeB7v160006INS_16reverse_iteratorIPP5QueryEES5_EENS_4pairIT0_S7_EET_S9_, symObjAddr: 0x137F4, symBinAddr: 0x10001C324, symSize: 0x84 }
  - { offsetInCU: 0x282E3, offset: 0x3F48B, size: 0x8, addend: 0x0, symName: __ZNSt3__113__unwrap_iterB7v160006INS_16reverse_iteratorIPP5QueryEENS_18__unwrap_iter_implIS5_Lb0EEELi0EEEDTclsrT0_8__unwrapclsr3stdE7declvalIT_EEEES9_, symObjAddr: 0x13918, symBinAddr: 0x10001C448, symSize: 0x44 }
  - { offsetInCU: 0x28327, offset: 0x3F4CF, size: 0x8, addend: 0x0, symName: __ZNSt3__19make_pairB7v160006INS_16reverse_iteratorIPP5QueryEES5_EENS_4pairINS_18__unwrap_ref_decayIT_E4typeENS7_IT0_E4typeEEEOS8_OSB_, symObjAddr: 0x1395C, symBinAddr: 0x10001C48C, symSize: 0x38 }
  - { offsetInCU: 0x28376, offset: 0x3F51E, size: 0x8, addend: 0x0, symName: __ZNSt3__114__rewrap_rangeB7v160006INS_16reverse_iteratorIPP5QueryEES5_EET_S6_T0_, symObjAddr: 0x13994, symBinAddr: 0x10001C4C4, symSize: 0x5C }
  - { offsetInCU: 0x283C2, offset: 0x3F56A, size: 0x8, addend: 0x0, symName: __ZNSt3__113__rewrap_iterB7v160006INS_16reverse_iteratorIPP5QueryEES5_NS_18__unwrap_iter_implIS5_Lb0EEEEET_S8_T0_, symObjAddr: 0x139F0, symBinAddr: 0x10001C520, symSize: 0x74 }
  - { offsetInCU: 0x28417, offset: 0x3F5BF, size: 0x8, addend: 0x0, symName: __ZNSt3__1neB7v160006IPP5QueryS3_EEbRKNS_16reverse_iteratorIT_EERKNS4_IT0_EE, symObjAddr: 0x13A64, symBinAddr: 0x10001C594, symSize: 0x48 }
  - { offsetInCU: 0x284CF, offset: 0x3F677, size: 0x8, addend: 0x0, symName: __ZNSt3__118__debug_db_erase_cB7v160006INS_6vectorIP5QueryNS_9allocatorIS3_EEEEEEvPT_, symObjAddr: 0x141F8, symBinAddr: 0x10001CD28, symSize: 0x10 }
  - { offsetInCU: 0x28533, offset: 0x3F6DB, size: 0x8, addend: 0x0, symName: __ZNSt3__119__debug_db_insert_cB7v160006INS_6vectorINS_12basic_stringIcNS_11char_traitsIcEENS_9allocatorIcEEEENS5_IS7_EEEEEEvPT_, symObjAddr: 0x14FBC, symBinAddr: 0x10001DAEC, symSize: 0x10 }
  - { offsetInCU: 0x28564, offset: 0x3F70C, size: 0x8, addend: 0x0, symName: __ZNSt3__119__debug_db_insert_cB7v160006INS_6vectorI3RowNS_9allocatorIS2_EEEEEEvPT_, symObjAddr: 0x15128, symBinAddr: 0x10001DC58, symSize: 0x10 }
  - { offsetInCU: 0x28595, offset: 0x3F73D, size: 0x8, addend: 0x0, symName: __ZNSt3__112__to_addressB7v160006INS_12basic_stringIcNS_11char_traitsIcEENS_9allocatorIcEEEEEEPT_S8_, symObjAddr: 0x154CC, symBinAddr: 0x10001DFFC, symSize: 0x14 }
  - { offsetInCU: 0x285CA, offset: 0x3F772, size: 0x8, addend: 0x0, symName: __ZNSt3__119__allocate_at_leastB7v160006INS_9allocatorINS_12basic_stringIcNS_11char_traitsIcEENS1_IcEEEEEEEENS_19__allocation_resultINS_16allocator_traitsIT_E7pointerEEERSA_m, symObjAddr: 0x15B18, symBinAddr: 0x10001E648, symSize: 0x40 }
  - { offsetInCU: 0x2860D, offset: 0x3F7B5, size: 0x8, addend: 0x0, symName: __ZNSt3__142__uninitialized_allocator_move_if_noexceptB7v160006INS_9allocatorINS_12basic_stringIcNS_11char_traitsIcEENS1_IcEEEEEENS_16reverse_iteratorIPS6_EESA_SA_EET2_RT_T0_T1_SB_, symObjAddr: 0x15DA4, symBinAddr: 0x10001E8D4, symSize: 0x12C }
  - { offsetInCU: 0x286AD, offset: 0x3F855, size: 0x8, addend: 0x0, symName: __ZNSt3__14swapB7v160006IPNS_12basic_stringIcNS_11char_traitsIcEENS_9allocatorIcEEEEEENS_9enable_ifIXaasr21is_move_constructibleIT_EE5valuesr18is_move_assignableIS9_EE5valueEvE4typeERS9_SC_, symObjAddr: 0x15F1C, symBinAddr: 0x10001EA4C, symSize: 0x3C }
  - { offsetInCU: 0x286FE, offset: 0x3F8A6, size: 0x8, addend: 0x0, symName: __ZNSt3__125__debug_db_invalidate_allB7v160006INS_6vectorINS_12basic_stringIcNS_11char_traitsIcEENS_9allocatorIcEEEENS5_IS7_EEEEEEvPT_, symObjAddr: 0x16020, symBinAddr: 0x10001EB50, symSize: 0x10 }
  - { offsetInCU: 0x2872F, offset: 0x3F8D7, size: 0x8, addend: 0x0, symName: __ZNSt3__122__make_exception_guardB7v160006INS_29_AllocatorDestroyRangeReverseINS_9allocatorINS_12basic_stringIcNS_11char_traitsIcEENS2_IcEEEEEENS_16reverse_iteratorIPS7_EEEEEENS_28__exception_guard_exceptionsIT_EESE_, symObjAddr: 0x16078, symBinAddr: 0x10001EBA8, symSize: 0x4C }
  - { offsetInCU: 0x28765, offset: 0x3F90D, size: 0x8, addend: 0x0, symName: __ZNSt3__1neB7v160006IPNS_12basic_stringIcNS_11char_traitsIcEENS_9allocatorIcEEEES7_EEbRKNS_16reverse_iteratorIT_EERKNS8_IT0_EE, symObjAddr: 0x16108, symBinAddr: 0x10001EC38, symSize: 0x48 }
  - { offsetInCU: 0x287B1, offset: 0x3F959, size: 0x8, addend: 0x0, symName: __ZNSt3__112__to_addressB7v160006INS_16reverse_iteratorIPNS_12basic_stringIcNS_11char_traitsIcEENS_9allocatorIcEEEEEEvEENS_5decayIDTclsr19__to_address_helperIT_EE6__callclsr3stdE7declvalIRKSB_EEEEE4typeESD_, symObjAddr: 0x16184, symBinAddr: 0x10001ECB4, symSize: 0x24 }
  - { offsetInCU: 0x28811, offset: 0x3F9B9, size: 0x8, addend: 0x0, symName: __ZNSt3__119__allocator_destroyB7v160006INS_9allocatorINS_12basic_stringIcNS_11char_traitsIcEENS1_IcEEEEEENS_16reverse_iteratorINS8_IPS6_EEEESB_EEvRT_T0_T1_, symObjAddr: 0x16464, symBinAddr: 0x10001EF94, symSize: 0x70 }
  - { offsetInCU: 0x28876, offset: 0x3FA1E, size: 0x8, addend: 0x0, symName: __ZNSt3__1neB7v160006INS_16reverse_iteratorIPNS_12basic_stringIcNS_11char_traitsIcEENS_9allocatorIcEEEEEES9_EEbRKNS1_IT_EERKNS1_IT0_EE, symObjAddr: 0x16510, symBinAddr: 0x10001F040, symSize: 0x60 }
  - { offsetInCU: 0x288C2, offset: 0x3FA6A, size: 0x8, addend: 0x0, symName: __ZNSt3__112__to_addressB7v160006INS_16reverse_iteratorINS1_IPNS_12basic_stringIcNS_11char_traitsIcEENS_9allocatorIcEEEEEEEEvEENS_5decayIDTclsr19__to_address_helperIT_EE6__callclsr3stdE7declvalIRKSC_EEEEE4typeESE_, symObjAddr: 0x1659C, symBinAddr: 0x10001F0CC, symSize: 0x24 }
  - { offsetInCU: 0x28922, offset: 0x3FACA, size: 0x8, addend: 0x0, symName: __ZNSt3__115__debug_db_swapB7v160006INS_6vectorINS_12basic_stringIcNS_11char_traitsIcEENS_9allocatorIcEEEENS5_IS7_EEEEEEvPT_SB_, symObjAddr: 0x16B3C, symBinAddr: 0x10001F66C, symSize: 0x14 }
  - { offsetInCU: 0x28961, offset: 0x3FB09, size: 0x8, addend: 0x0, symName: __ZNSt3__118__debug_db_erase_cB7v160006INS_6vectorINS_12basic_stringIcNS_11char_traitsIcEENS_9allocatorIcEEEENS5_IS7_EEEEEEvPT_, symObjAddr: 0x16EB8, symBinAddr: 0x10001F9E8, symSize: 0x10 }
  - { offsetInCU: 0x28992, offset: 0x3FB3A, size: 0x8, addend: 0x0, symName: __ZNSt3__118__debug_db_erase_cB7v160006INS_6vectorI3RowNS_9allocatorIS2_EEEEEEvPT_, symObjAddr: 0x170D0, symBinAddr: 0x10001FC00, symSize: 0x10 }
  - { offsetInCU: 0x289C3, offset: 0x3FB6B, size: 0x8, addend: 0x0, symName: __ZNSt3__112__to_addressB7v160006I3RowEEPT_S3_, symObjAddr: 0x17214, symBinAddr: 0x10001FD44, symSize: 0x14 }
  - { offsetInCU: 0x28A2F, offset: 0x3FBD7, size: 0x8, addend: 0x0, symName: __ZNSt3__116forward_as_tupleB7v160006IJRKNS_12basic_stringIcNS_11char_traitsIcEENS_9allocatorIcEEEEEEENS_5tupleIJDpOT_EEESC_, symObjAddr: 0x1753C, symBinAddr: 0x10002006C, symSize: 0x2C }
  - { offsetInCU: 0x28A68, offset: 0x3FC10, size: 0x8, addend: 0x0, symName: __ZNSt3__116forward_as_tupleB7v160006IJEEENS_5tupleIJDpOT_EEES4_, symObjAddr: 0x17568, symBinAddr: 0x100020098, symSize: 0x4 }
  - { offsetInCU: 0x28A8C, offset: 0x3FC34, size: 0x8, addend: 0x0, symName: __ZNSt3__1ltB7v160006IcNS_11char_traitsIcEENS_9allocatorIcEEEEbRKNS_12basic_stringIT_T0_T1_EESB_, symObjAddr: 0x17C34, symBinAddr: 0x100020764, symSize: 0x38 }
  - { offsetInCU: 0x28B08, offset: 0x3FCB0, size: 0x8, addend: 0x0, symName: __ZNSt3__118__constexpr_memcmpB7v160006IcEEiPKT_S3_m, symObjAddr: 0x17ED0, symBinAddr: 0x100020A00, symSize: 0x34 }
  - { offsetInCU: 0x28B59, offset: 0x3FD01, size: 0x8, addend: 0x0, symName: __ZNSt3__17launderB7v160006IKNS_4pairIKNS_12basic_stringIcNS_11char_traitsIcEENS_9allocatorIcEEEE5TableEEEEPT_SD_, symObjAddr: 0x17F90, symBinAddr: 0x100020AC0, symSize: 0x24 }
  - { offsetInCU: 0x28B90, offset: 0x3FD38, size: 0x8, addend: 0x0, symName: __ZNSt3__19__launderB7v160006IKNS_4pairIKNS_12basic_stringIcNS_11char_traitsIcEENS_9allocatorIcEEEE5TableEEEEPT_SD_, symObjAddr: 0x17FB4, symBinAddr: 0x100020AE4, symSize: 0x14 }
  - { offsetInCU: 0x28BF1, offset: 0x3FD99, size: 0x8, addend: 0x0, symName: __ZNSt3__13getB7v160006ILm0EJRKNS_12basic_stringIcNS_11char_traitsIcEENS_9allocatorIcEEEEEEERNS_13tuple_elementIXT_ENS_5tupleIJDpT0_EEEE4typeERSD_, symObjAddr: 0x1849C, symBinAddr: 0x100020FCC, symSize: 0x24 }
  - { offsetInCU: 0x28C34, offset: 0x3FDDC, size: 0x8, addend: 0x0, symName: __ZNSt3__127__tree_balance_after_insertB7v160006IPNS_16__tree_node_baseIPvEEEEvT_S5_, symObjAddr: 0x185BC, symBinAddr: 0x1000210EC, symSize: 0x32C }
  - { offsetInCU: 0x28CB0, offset: 0x3FE58, size: 0x8, addend: 0x0, symName: __ZNSt3__120__tree_is_left_childB7v160006IPNS_16__tree_node_baseIPvEEEEbT_, symObjAddr: 0x18928, symBinAddr: 0x100021458, symSize: 0x2C }
  - { offsetInCU: 0x28CE5, offset: 0x3FE8D, size: 0x8, addend: 0x0, symName: __ZNSt3__118__tree_left_rotateB7v160006IPNS_16__tree_node_baseIPvEEEEvT_, symObjAddr: 0x18954, symBinAddr: 0x100021484, symSize: 0xD8 }
  - { offsetInCU: 0x28D27, offset: 0x3FECF, size: 0x8, addend: 0x0, symName: __ZNSt3__119__tree_right_rotateB7v160006IPNS_16__tree_node_baseIPvEEEEvT_, symObjAddr: 0x18A2C, symBinAddr: 0x10002155C, symSize: 0xCC }
  - { offsetInCU: 0x28DC0, offset: 0x3FF68, size: 0x8, addend: 0x0, symName: __ZNSt3__17launderB7v160006INS_4pairIKNS_12basic_stringIcNS_11char_traitsIcEENS_9allocatorIcEEEE5TableEEEEPT_SC_, symObjAddr: 0x18F3C, symBinAddr: 0x100021A6C, symSize: 0x24 }
  - { offsetInCU: 0x28DF7, offset: 0x3FF9F, size: 0x8, addend: 0x0, symName: __ZNSt3__19__launderB7v160006INS_4pairIKNS_12basic_stringIcNS_11char_traitsIcEENS_9allocatorIcEEEE5TableEEEEPT_SC_, symObjAddr: 0x18F60, symBinAddr: 0x100021A90, symSize: 0x14 }
  - { offsetInCU: 0x28E2E, offset: 0x3FFD6, size: 0x8, addend: 0x0, symName: __ZNSt3__115__debug_db_swapB7v160006INS_6vectorI3RowNS_9allocatorIS2_EEEEEEvPT_S7_, symObjAddr: 0x19134, symBinAddr: 0x100021C64, symSize: 0x14 }
  - { offsetInCU: 0x28E6D, offset: 0x40015, size: 0x8, addend: 0x0, symName: __ZNSt3__125__debug_db_invalidate_allB7v160006INS_6vectorI3RowNS_9allocatorIS2_EEEEEEvPT_, symObjAddr: 0x1926C, symBinAddr: 0x100021D9C, symSize: 0x10 }
  - { offsetInCU: 0x28E9E, offset: 0x40046, size: 0x8, addend: 0x0, symName: __ZNSt3__122__make_exception_guardB7v160006INS_6vectorINS_12basic_stringIcNS_11char_traitsIcEENS_9allocatorIcEEEENS5_IS7_EEE16__destroy_vectorEEENS_28__exception_guard_exceptionsIT_EESC_, symObjAddr: 0x19838, symBinAddr: 0x100022368, symSize: 0x40 }
  - { offsetInCU: 0x28ED3, offset: 0x4007B, size: 0x8, addend: 0x0, symName: __ZNSt3__130__uninitialized_allocator_copyB7v160006INS_9allocatorINS_12basic_stringIcNS_11char_traitsIcEENS1_IcEEEEEEPS6_S8_S8_EET2_RT_T0_T1_S9_, symObjAddr: 0x19AB4, symBinAddr: 0x1000225E4, symSize: 0xF4 }
  - { offsetInCU: 0x28F71, offset: 0x40119, size: 0x8, addend: 0x0, symName: __ZNSt3__122__make_exception_guardB7v160006INS_29_AllocatorDestroyRangeReverseINS_9allocatorINS_12basic_stringIcNS_11char_traitsIcEENS2_IcEEEEEEPS7_EEEENS_28__exception_guard_exceptionsIT_EESC_, symObjAddr: 0x19BA8, symBinAddr: 0x1000226D8, symSize: 0x4C }
  - { offsetInCU: 0x28FA7, offset: 0x4014F, size: 0x8, addend: 0x0, symName: __ZNSt3__119__allocator_destroyB7v160006INS_9allocatorINS_12basic_stringIcNS_11char_traitsIcEENS1_IcEEEEEENS_16reverse_iteratorIPS6_EESA_EEvRT_T0_T1_, symObjAddr: 0x19E38, symBinAddr: 0x100022968, symSize: 0x70 }
  - { offsetInCU: 0x2900A, offset: 0x401B2, size: 0x8, addend: 0x0, symName: __ZNSt3__119__allocate_at_leastB7v160006INS_9allocatorI3RowEEEENS_19__allocation_resultINS_16allocator_traitsIT_E7pointerEEERS6_m, symObjAddr: 0x1A388, symBinAddr: 0x100022EB8, symSize: 0x40 }
  - { offsetInCU: 0x2904D, offset: 0x401F5, size: 0x8, addend: 0x0, symName: __ZNSt3__142__uninitialized_allocator_move_if_noexceptB7v160006INS_9allocatorI3RowEENS_16reverse_iteratorIPS2_EES6_S6_EET2_RT_T0_T1_S7_, symObjAddr: 0x1A540, symBinAddr: 0x100023070, symSize: 0x12C }
  - { offsetInCU: 0x290ED, offset: 0x40295, size: 0x8, addend: 0x0, symName: __ZNSt3__14swapB7v160006IP3RowEENS_9enable_ifIXaasr21is_move_constructibleIT_EE5valuesr18is_move_assignableIS4_EE5valueEvE4typeERS4_S7_, symObjAddr: 0x1A6B8, symBinAddr: 0x1000231E8, symSize: 0x3C }
  - { offsetInCU: 0x2913E, offset: 0x402E6, size: 0x8, addend: 0x0, symName: __ZNSt3__122__make_exception_guardB7v160006INS_29_AllocatorDestroyRangeReverseINS_9allocatorI3RowEENS_16reverse_iteratorIPS3_EEEEEENS_28__exception_guard_exceptionsIT_EESA_, symObjAddr: 0x1A7BC, symBinAddr: 0x1000232EC, symSize: 0x4C }
  - { offsetInCU: 0x29174, offset: 0x4031C, size: 0x8, addend: 0x0, symName: __ZNSt3__1neB7v160006IP3RowS2_EEbRKNS_16reverse_iteratorIT_EERKNS3_IT0_EE, symObjAddr: 0x1A84C, symBinAddr: 0x10002337C, symSize: 0x48 }
  - { offsetInCU: 0x291C0, offset: 0x40368, size: 0x8, addend: 0x0, symName: __ZNSt3__112__to_addressB7v160006INS_16reverse_iteratorIP3RowEEvEENS_5decayIDTclsr19__to_address_helperIT_EE6__callclsr3stdE7declvalIRKS6_EEEEE4typeES8_, symObjAddr: 0x1A8C8, symBinAddr: 0x1000233F8, symSize: 0x24 }
  - { offsetInCU: 0x29220, offset: 0x403C8, size: 0x8, addend: 0x0, symName: __ZNSt3__119__allocator_destroyB7v160006INS_9allocatorI3RowEENS_16reverse_iteratorINS4_IPS2_EEEES7_EEvRT_T0_T1_, symObjAddr: 0x1ACE8, symBinAddr: 0x100023818, symSize: 0x70 }
  - { offsetInCU: 0x29285, offset: 0x4042D, size: 0x8, addend: 0x0, symName: __ZNSt3__1neB7v160006INS_16reverse_iteratorIP3RowEES4_EEbRKNS1_IT_EERKNS1_IT0_EE, symObjAddr: 0x1AD94, symBinAddr: 0x1000238C4, symSize: 0x60 }
  - { offsetInCU: 0x292D1, offset: 0x40479, size: 0x8, addend: 0x0, symName: __ZNSt3__112__to_addressB7v160006INS_16reverse_iteratorINS1_IP3RowEEEEvEENS_5decayIDTclsr19__to_address_helperIT_EE6__callclsr3stdE7declvalIRKS7_EEEEE4typeES9_, symObjAddr: 0x1ADF4, symBinAddr: 0x100023924, symSize: 0x24 }
  - { offsetInCU: 0x29331, offset: 0x404D9, size: 0x8, addend: 0x0, symName: __ZNSt3__1neB7v160006IP9QueryItemEEbRKNS_11__wrap_iterIT_EES7_, symObjAddr: 0x1B6F0, symBinAddr: 0x100024220, symSize: 0x34 }
  - { offsetInCU: 0x29374, offset: 0x4051C, size: 0x8, addend: 0x0, symName: __ZNSt3__1eqB7v160006INS_9allocatorIcEEEEbRKNS_12basic_stringIcNS_11char_traitsIcEET_EES9_, symObjAddr: 0x1BA38, symBinAddr: 0x100024568, symSize: 0x148 }
  - { offsetInCU: 0x293E7, offset: 0x4058F, size: 0x8, addend: 0x0, symName: __ZNSt3__119__debug_db_insert_cB7v160006INS_6vectorI5TableNS_9allocatorIS2_EEEEEEvPT_, symObjAddr: 0x1C65C, symBinAddr: 0x10002518C, symSize: 0x10 }
  - { offsetInCU: 0x29418, offset: 0x405C0, size: 0x8, addend: 0x0, symName: __ZNSt3__119__debug_db_insert_cB7v160006INS_6vectorI9QueryItemNS_9allocatorIS2_EEEEEEvPT_, symObjAddr: 0x1C9C0, symBinAddr: 0x1000254F0, symSize: 0x10 }
  - { offsetInCU: 0x29449, offset: 0x405F1, size: 0x8, addend: 0x0, symName: __ZNSt3__18distanceB7v160006IPNS_12basic_stringIcNS_11char_traitsIcEENS_9allocatorIcEEEEEENS_15iterator_traitsIT_E15difference_typeES9_S9_, symObjAddr: 0x1CEC0, symBinAddr: 0x1000259F0, symSize: 0x2C }
  - { offsetInCU: 0x2948C, offset: 0x40634, size: 0x8, addend: 0x0, symName: __ZNSt3__14copyB7v160006IPNS_12basic_stringIcNS_11char_traitsIcEENS_9allocatorIcEEEES7_EET0_T_S9_S8_, symObjAddr: 0x1CF3C, symBinAddr: 0x100025A6C, symSize: 0x40 }
  - { offsetInCU: 0x294E6, offset: 0x4068E, size: 0x8, addend: 0x0, symName: __ZNSt3__110__distanceB7v160006IPNS_12basic_stringIcNS_11char_traitsIcEENS_9allocatorIcEEEEEENS_15iterator_traitsIT_E15difference_typeES9_S9_NS_26random_access_iterator_tagE, symObjAddr: 0x1CFDC, symBinAddr: 0x100025B0C, symSize: 0x28 }
  - { offsetInCU: 0x29534, offset: 0x406DC, size: 0x8, addend: 0x0, symName: __ZNSt3__19__advanceB7v160006IPNS_12basic_stringIcNS_11char_traitsIcEENS_9allocatorIcEEEEEEvRT_NS_15iterator_traitsIS8_E15difference_typeENS_26random_access_iterator_tagE, symObjAddr: 0x1D018, symBinAddr: 0x100025B34, symSize: 0x30 }
  - { offsetInCU: 0x2957E, offset: 0x40726, size: 0x8, addend: 0x0, symName: __ZNSt3__16__copyB7v160006INS_17_ClassicAlgPolicyEPNS_12basic_stringIcNS_11char_traitsIcEENS_9allocatorIcEEEES8_S8_EENS_4pairIT0_T2_EESA_T1_SB_, symObjAddr: 0x1D048, symBinAddr: 0x100025B64, symSize: 0x44 }
  - { offsetInCU: 0x295EA, offset: 0x40792, size: 0x8, addend: 0x0, symName: __ZNSt3__123__dispatch_copy_or_moveB7v160006INS_17_ClassicAlgPolicyENS_11__copy_loopIS1_EENS_14__copy_trivialEPNS_12basic_stringIcNS_11char_traitsIcEENS_9allocatorIcEEEESB_SB_EENS_4pairIT2_T4_EESD_T3_SE_, symObjAddr: 0x1D08C, symBinAddr: 0x100025BA8, symSize: 0x44 }
  - { offsetInCU: 0x29668, offset: 0x40810, size: 0x8, addend: 0x0, symName: __ZNSt3__121__unwrap_and_dispatchB7v160006INS_10__overloadINS_11__copy_loopINS_17_ClassicAlgPolicyEEENS_14__copy_trivialEEEPNS_12basic_stringIcNS_11char_traitsIcEENS_9allocatorIcEEEESD_SD_Li0EEENS_4pairIT0_T2_EESF_T1_SG_, symObjAddr: 0x1D0D0, symBinAddr: 0x100025BEC, symSize: 0xB4 }
  - { offsetInCU: 0x296F6, offset: 0x4089E, size: 0x8, addend: 0x0, symName: __ZNSt3__114__unwrap_rangeB7v160006IPNS_12basic_stringIcNS_11char_traitsIcEENS_9allocatorIcEEEES7_EENS_4pairIT0_S9_EET_SB_, symObjAddr: 0x1D184, symBinAddr: 0x100025CA0, symSize: 0x60 }
  - { offsetInCU: 0x298A7, offset: 0x40A4F, size: 0x8, addend: 0x0, symName: __ZNSt3__113__unwrap_iterB7v160006IPNS_12basic_stringIcNS_11char_traitsIcEENS_9allocatorIcEEEENS_18__unwrap_iter_implIS7_Lb1EEELi0EEEDTclsrT0_8__unwrapclsr3stdE7declvalIT_EEEESB_, symObjAddr: 0x1D26C, symBinAddr: 0x100025D88, symSize: 0x24 }
  - { offsetInCU: 0x298EB, offset: 0x40A93, size: 0x8, addend: 0x0, symName: __ZNSt3__19make_pairB7v160006IPNS_12basic_stringIcNS_11char_traitsIcEENS_9allocatorIcEEEES7_EENS_4pairINS_18__unwrap_ref_decayIT_E4typeENS9_IT0_E4typeEEEOSA_OSD_, symObjAddr: 0x1D290, symBinAddr: 0x100025DAC, symSize: 0x38 }
  - { offsetInCU: 0x2993A, offset: 0x40AE2, size: 0x8, addend: 0x0, symName: __ZNSt3__114__rewrap_rangeB7v160006IPNS_12basic_stringIcNS_11char_traitsIcEENS_9allocatorIcEEEES7_EET_S8_T0_, symObjAddr: 0x1D2C8, symBinAddr: 0x100025DE4, symSize: 0x2C }
  - { offsetInCU: 0x29986, offset: 0x40B2E, size: 0x8, addend: 0x0, symName: __ZNSt3__113__rewrap_iterB7v160006IPNS_12basic_stringIcNS_11char_traitsIcEENS_9allocatorIcEEEES7_NS_18__unwrap_iter_implIS7_Lb1EEEEET_SA_T0_, symObjAddr: 0x1D2F4, symBinAddr: 0x100025E10, symSize: 0x3C }
  - { offsetInCU: 0x29A2E, offset: 0x40BD6, size: 0x8, addend: 0x0, symName: __ZNSt3__112__to_addressB7v160006I9QueryItemEEPT_S3_, symObjAddr: 0x1D690, symBinAddr: 0x1000261AC, symSize: 0x14 }
  - { offsetInCU: 0x29A63, offset: 0x40C0B, size: 0x8, addend: 0x0, symName: __ZNSt3__119__allocate_at_leastB7v160006INS_9allocatorI9QueryItemEEEENS_19__allocation_resultINS_16allocator_traitsIT_E7pointerEEERS6_m, symObjAddr: 0x1DCDC, symBinAddr: 0x1000267F8, symSize: 0x40 }
  - { offsetInCU: 0x29AA6, offset: 0x40C4E, size: 0x8, addend: 0x0, symName: __ZNSt3__142__uninitialized_allocator_move_if_noexceptB7v160006INS_9allocatorI9QueryItemEENS_16reverse_iteratorIPS2_EES6_S6_EET2_RT_T0_T1_S7_, symObjAddr: 0x1DF68, symBinAddr: 0x100026A84, symSize: 0x12C }
  - { offsetInCU: 0x29B46, offset: 0x40CEE, size: 0x8, addend: 0x0, symName: __ZNSt3__14swapB7v160006IP9QueryItemEENS_9enable_ifIXaasr21is_move_constructibleIT_EE5valuesr18is_move_assignableIS4_EE5valueEvE4typeERS4_S7_, symObjAddr: 0x1E0E0, symBinAddr: 0x100026BFC, symSize: 0x3C }
  - { offsetInCU: 0x29B97, offset: 0x40D3F, size: 0x8, addend: 0x0, symName: __ZNSt3__125__debug_db_invalidate_allB7v160006INS_6vectorI9QueryItemNS_9allocatorIS2_EEEEEEvPT_, symObjAddr: 0x1E1E4, symBinAddr: 0x100026D00, symSize: 0x10 }
  - { offsetInCU: 0x29BC8, offset: 0x40D70, size: 0x8, addend: 0x0, symName: __ZNSt3__122__make_exception_guardB7v160006INS_29_AllocatorDestroyRangeReverseINS_9allocatorI9QueryItemEENS_16reverse_iteratorIPS3_EEEEEENS_28__exception_guard_exceptionsIT_EESA_, symObjAddr: 0x1E23C, symBinAddr: 0x100026D58, symSize: 0x4C }
  - { offsetInCU: 0x29BFE, offset: 0x40DA6, size: 0x8, addend: 0x0, symName: __ZNSt3__1neB7v160006IP9QueryItemS2_EEbRKNS_16reverse_iteratorIT_EERKNS3_IT0_EE, symObjAddr: 0x1E2CC, symBinAddr: 0x100026DE8, symSize: 0x48 }
  - { offsetInCU: 0x29C4A, offset: 0x40DF2, size: 0x8, addend: 0x0, symName: __ZNSt3__112__to_addressB7v160006INS_16reverse_iteratorIP9QueryItemEEvEENS_5decayIDTclsr19__to_address_helperIT_EE6__callclsr3stdE7declvalIRKS6_EEEEE4typeES8_, symObjAddr: 0x1E348, symBinAddr: 0x100026E64, symSize: 0x24 }
  - { offsetInCU: 0x29CAA, offset: 0x40E52, size: 0x8, addend: 0x0, symName: __ZNSt3__119__allocator_destroyB7v160006INS_9allocatorI9QueryItemEENS_16reverse_iteratorINS4_IPS2_EEEES7_EEvRT_T0_T1_, symObjAddr: 0x1E6D8, symBinAddr: 0x1000271F4, symSize: 0x70 }
  - { offsetInCU: 0x29D0F, offset: 0x40EB7, size: 0x8, addend: 0x0, symName: __ZNSt3__1neB7v160006INS_16reverse_iteratorIP9QueryItemEES4_EEbRKNS1_IT_EERKNS1_IT0_EE, symObjAddr: 0x1E784, symBinAddr: 0x1000272A0, symSize: 0x60 }
  - { offsetInCU: 0x29D5B, offset: 0x40F03, size: 0x8, addend: 0x0, symName: __ZNSt3__112__to_addressB7v160006INS_16reverse_iteratorINS1_IP9QueryItemEEEEvEENS_5decayIDTclsr19__to_address_helperIT_EE6__callclsr3stdE7declvalIRKS7_EEEEE4typeES9_, symObjAddr: 0x1E810, symBinAddr: 0x10002732C, symSize: 0x24 }
  - { offsetInCU: 0x29DBB, offset: 0x40F63, size: 0x8, addend: 0x0, symName: __ZNSt3__1eqB7v160006IP9QueryItemEEbRKNS_11__wrap_iterIT_EES7_, symObjAddr: 0x1ECAC, symBinAddr: 0x1000277C8, symSize: 0x48 }
  - { offsetInCU: 0x29DFE, offset: 0x40FA6, size: 0x8, addend: 0x0, symName: __ZNSt3__18distanceB7v160006IP3RowEENS_15iterator_traitsIT_E15difference_typeES4_S4_, symObjAddr: 0x1EFD4, symBinAddr: 0x100027AF0, symSize: 0x2C }
  - { offsetInCU: 0x29E41, offset: 0x40FE9, size: 0x8, addend: 0x0, symName: __ZNSt3__14copyB7v160006IP3RowS2_EET0_T_S4_S3_, symObjAddr: 0x1F050, symBinAddr: 0x100027B6C, symSize: 0x40 }
  - { offsetInCU: 0x29E9B, offset: 0x41043, size: 0x8, addend: 0x0, symName: __ZNSt3__110__distanceB7v160006IP3RowEENS_15iterator_traitsIT_E15difference_typeES4_S4_NS_26random_access_iterator_tagE, symObjAddr: 0x1F230, symBinAddr: 0x100027D4C, symSize: 0x28 }
  - { offsetInCU: 0x29EE9, offset: 0x41091, size: 0x8, addend: 0x0, symName: __ZNSt3__19__advanceB7v160006IP3RowEEvRT_NS_15iterator_traitsIS3_E15difference_typeENS_26random_access_iterator_tagE, symObjAddr: 0x1F258, symBinAddr: 0x100027D74, symSize: 0x30 }
  - { offsetInCU: 0x29F33, offset: 0x410DB, size: 0x8, addend: 0x0, symName: __ZNSt3__16__copyB7v160006INS_17_ClassicAlgPolicyEP3RowS3_S3_EENS_4pairIT0_T2_EES5_T1_S6_, symObjAddr: 0x1F288, symBinAddr: 0x100027DA4, symSize: 0x44 }
  - { offsetInCU: 0x29F9F, offset: 0x41147, size: 0x8, addend: 0x0, symName: __ZNSt3__123__dispatch_copy_or_moveB7v160006INS_17_ClassicAlgPolicyENS_11__copy_loopIS1_EENS_14__copy_trivialEP3RowS6_S6_EENS_4pairIT2_T4_EES8_T3_S9_, symObjAddr: 0x1F2CC, symBinAddr: 0x100027DE8, symSize: 0x44 }
  - { offsetInCU: 0x2A01D, offset: 0x411C5, size: 0x8, addend: 0x0, symName: __ZNSt3__121__unwrap_and_dispatchB7v160006INS_10__overloadINS_11__copy_loopINS_17_ClassicAlgPolicyEEENS_14__copy_trivialEEEP3RowS8_S8_Li0EEENS_4pairIT0_T2_EESA_T1_SB_, symObjAddr: 0x1F310, symBinAddr: 0x100027E2C, symSize: 0xB4 }
  - { offsetInCU: 0x2A0AB, offset: 0x41253, size: 0x8, addend: 0x0, symName: __ZNSt3__114__unwrap_rangeB7v160006IP3RowS2_EENS_4pairIT0_S4_EET_S6_, symObjAddr: 0x1F3C4, symBinAddr: 0x100027EE0, symSize: 0x60 }
  - { offsetInCU: 0x2A1CB, offset: 0x41373, size: 0x8, addend: 0x0, symName: __ZNSt3__113__unwrap_iterB7v160006IP3RowNS_18__unwrap_iter_implIS2_Lb1EEELi0EEEDTclsrT0_8__unwrapclsr3stdE7declvalIT_EEEES6_, symObjAddr: 0x1F4AC, symBinAddr: 0x100027FC8, symSize: 0x24 }
  - { offsetInCU: 0x2A20F, offset: 0x413B7, size: 0x8, addend: 0x0, symName: __ZNSt3__19make_pairB7v160006IP3RowS2_EENS_4pairINS_18__unwrap_ref_decayIT_E4typeENS4_IT0_E4typeEEEOS5_OS8_, symObjAddr: 0x1F4D0, symBinAddr: 0x100027FEC, symSize: 0x38 }
  - { offsetInCU: 0x2A25E, offset: 0x41406, size: 0x8, addend: 0x0, symName: __ZNSt3__114__rewrap_rangeB7v160006IP3RowS2_EET_S3_T0_, symObjAddr: 0x1F508, symBinAddr: 0x100028024, symSize: 0x2C }
  - { offsetInCU: 0x2A2AA, offset: 0x41452, size: 0x8, addend: 0x0, symName: __ZNSt3__113__rewrap_iterB7v160006IP3RowS2_NS_18__unwrap_iter_implIS2_Lb1EEEEET_S5_T0_, symObjAddr: 0x1F534, symBinAddr: 0x100028050, symSize: 0x3C }
  - { offsetInCU: 0x2A352, offset: 0x414FA, size: 0x8, addend: 0x0, symName: __ZNSt3__130__uninitialized_allocator_copyB7v160006INS_9allocatorI3RowEEPS2_S4_S4_EET2_RT_T0_T1_S5_, symObjAddr: 0x1F690, symBinAddr: 0x1000281AC, symSize: 0xF4 }
  - { offsetInCU: 0x2A3F0, offset: 0x41598, size: 0x8, addend: 0x0, symName: __ZNSt3__122__make_exception_guardB7v160006INS_29_AllocatorDestroyRangeReverseINS_9allocatorI3RowEEPS3_EEEENS_28__exception_guard_exceptionsIT_EES8_, symObjAddr: 0x1F784, symBinAddr: 0x1000282A0, symSize: 0x4C }
  - { offsetInCU: 0x2A426, offset: 0x415CE, size: 0x8, addend: 0x0, symName: __ZNSt3__119__allocator_destroyB7v160006INS_9allocatorI3RowEENS_16reverse_iteratorIPS2_EES6_EEvRT_T0_T1_, symObjAddr: 0x1FA14, symBinAddr: 0x100028530, symSize: 0x70 }
  - { offsetInCU: 0x2A489, offset: 0x41631, size: 0x8, addend: 0x0, symName: __ZNSt3__110__str_findB7v160006IcmNS_11char_traitsIcEELm18446744073709551615EEET0_PKT_S3_S6_S3_S3_, symObjAddr: 0x1FAB4, symBinAddr: 0x1000285D0, symSize: 0xE4 }
  - { offsetInCU: 0x2A530, offset: 0x416D8, size: 0x8, addend: 0x0, symName: __ZNSt3__118__search_substringB7v160006IcNS_11char_traitsIcEEEEPKT_S5_S5_S5_S5_, symObjAddr: 0x1FBCC, symBinAddr: 0x1000286B4, symSize: 0x154 }
  - { offsetInCU: 0x2A5CA, offset: 0x41772, size: 0x8, addend: 0x0, symName: __ZNSt3__123__constexpr_char_memchrB7v160006EPKcim, symObjAddr: 0x1FD90, symBinAddr: 0x100028878, symSize: 0x34 }
  - { offsetInCU: 0x2A612, offset: 0x417BA, size: 0x8, addend: 0x0, symName: __ZNSt3__1eqB7v160006ERKNS_14__map_iteratorINS_15__tree_iteratorINS_12__value_typeINS_12basic_stringIcNS_11char_traitsIcEENS_9allocatorIcEEEEiEEPNS_11__tree_nodeIS9_PvEElEEEESH_, symObjAddr: 0x1FE98, symBinAddr: 0x10002895C, symSize: 0x30 }
  - { offsetInCU: 0x2A64F, offset: 0x417F7, size: 0x8, addend: 0x0, symName: __ZNSt3__14sortB7v160006INS_11__wrap_iterIP3RowEEEEvT_S5_, symObjAddr: 0x1FFC0, symBinAddr: 0x100028A84, symSize: 0x3C }
  - { offsetInCU: 0x2A691, offset: 0x41839, size: 0x8, addend: 0x0, symName: __ZNSt3__16uniqueB7v160006INS_11__wrap_iterIP3RowEEEET_S5_S5_, symObjAddr: 0x2014C, symBinAddr: 0x100028C10, symSize: 0x44 }
  - { offsetInCU: 0x2A6D4, offset: 0x4187C, size: 0x8, addend: 0x0, symName: __ZNSt3__1eqB7v160006ERKNS_15__tree_iteratorINS_12__value_typeINS_12basic_stringIcNS_11char_traitsIcEENS_9allocatorIcEEEEiEEPNS_11__tree_nodeIS8_PvEElEESF_, symObjAddr: 0x204F0, symBinAddr: 0x100028FB4, symSize: 0x30 }
  - { offsetInCU: 0x2A711, offset: 0x418B9, size: 0x8, addend: 0x0, symName: __ZNSt3__1neB7v160006ERKNS_15__tree_iteratorINS_12__value_typeINS_12basic_stringIcNS_11char_traitsIcEENS_9allocatorIcEEEEiEEPNS_11__tree_nodeIS8_PvEElEESF_, symObjAddr: 0x20718, symBinAddr: 0x1000291DC, symSize: 0x34 }
  - { offsetInCU: 0x2A74E, offset: 0x418F6, size: 0x8, addend: 0x0, symName: __ZNSt3__17launderB7v160006IKNS_4pairIKNS_12basic_stringIcNS_11char_traitsIcEENS_9allocatorIcEEEEiEEEEPT_SC_, symObjAddr: 0x208C0, symBinAddr: 0x100029384, symSize: 0x24 }
  - { offsetInCU: 0x2A785, offset: 0x4192D, size: 0x8, addend: 0x0, symName: __ZNSt3__19__launderB7v160006IKNS_4pairIKNS_12basic_stringIcNS_11char_traitsIcEENS_9allocatorIcEEEEiEEEEPT_SC_, symObjAddr: 0x208E4, symBinAddr: 0x1000293A8, symSize: 0x14 }
  - { offsetInCU: 0x2A80D, offset: 0x419B5, size: 0x8, addend: 0x0, symName: __ZNSt3__17launderB7v160006INS_4pairIKNS_12basic_stringIcNS_11char_traitsIcEENS_9allocatorIcEEEEiEEEEPT_SB_, symObjAddr: 0x21800, symBinAddr: 0x10002A2C4, symSize: 0x24 }
  - { offsetInCU: 0x2A844, offset: 0x419EC, size: 0x8, addend: 0x0, symName: __ZNSt3__19__launderB7v160006INS_4pairIKNS_12basic_stringIcNS_11char_traitsIcEENS_9allocatorIcEEEEiEEEEPT_SB_, symObjAddr: 0x21824, symBinAddr: 0x10002A2E8, symSize: 0x14 }
  - { offsetInCU: 0x2A87B, offset: 0x41A23, size: 0x8, addend: 0x0, symName: __ZNSt3__14sortB7v160006INS_11__wrap_iterIP3RowEENS_6__lessIS2_S2_EEEEvT_S7_T0_, symObjAddr: 0x21838, symBinAddr: 0x10002A2FC, symSize: 0x40 }
  - { offsetInCU: 0x2A8D5, offset: 0x41A7D, size: 0x8, addend: 0x0, symName: __ZNSt3__111__sort_implB7v160006INS_17_ClassicAlgPolicyENS_11__wrap_iterIP3RowEENS_6__lessIS3_S3_EEEEvT0_S8_RT1_, symObjAddr: 0x21878, symBinAddr: 0x10002A33C, symSize: 0x84 }
  - { offsetInCU: 0x2A97C, offset: 0x41B24, size: 0x8, addend: 0x0, symName: __ZNSt3__123__debug_randomize_rangeB7v160006INS_17_ClassicAlgPolicyENS_11__wrap_iterIP3RowEES5_EEvT0_T1_, symObjAddr: 0x218FC, symBinAddr: 0x10002A3C0, symSize: 0x14 }
  - { offsetInCU: 0x2A9CD, offset: 0x41B75, size: 0x8, addend: 0x0, symName: __ZNSt3__16__sortIRNS_6__lessI3RowS2_EEPS2_EEvT0_S6_T_, symObjAddr: 0x21910, symBinAddr: 0x10002A3D4, symSize: 0x68 }
  - { offsetInCU: 0x2AA5D, offset: 0x41C05, size: 0x8, addend: 0x0, symName: __ZNSt3__113__unwrap_iterB7v160006INS_11__wrap_iterIP3RowEENS_18__unwrap_iter_implIS4_Lb1EEELi0EEEDTclsrT0_8__unwrapclsr3stdE7declvalIT_EEEES8_, symObjAddr: 0x21978, symBinAddr: 0x10002A43C, symSize: 0x2C }
  - { offsetInCU: 0x2AAA1, offset: 0x41C49, size: 0x8, addend: 0x0, symName: __ZNSt3__17__log2iB7v160006IlEET_S1_, symObjAddr: 0x219A4, symBinAddr: 0x10002A468, symSize: 0x54 }
  - { offsetInCU: 0x2AB46, offset: 0x41CEE, size: 0x8, addend: 0x0, symName: __ZNSt3__112__libcpp_clzB7v160006Em, symObjAddr: 0x220F4, symBinAddr: 0x10002ABB8, symSize: 0x1C }
  - { offsetInCU: 0x2AB72, offset: 0x41D1A, size: 0x8, addend: 0x0, symName: __ZNSt3__124__sort3_maybe_branchlessB7v160006INS_17_ClassicAlgPolicyERNS_6__lessI3RowS3_EEPS3_EENS_9enable_ifIXntsr21__use_branchless_sortIT0_T1_EE5valueEvE4typeES9_S9_S9_S8_, symObjAddr: 0x22178, symBinAddr: 0x10002AC3C, symSize: 0x3C }
  - { offsetInCU: 0x2ABE3, offset: 0x41D8B, size: 0x8, addend: 0x0, symName: __ZNSt3__124__sort4_maybe_branchlessB7v160006INS_17_ClassicAlgPolicyERNS_6__lessI3RowS3_EEPS3_EENS_9enable_ifIXntsr21__use_branchless_sortIT0_T1_EE5valueEvE4typeES9_S9_S9_S9_S8_, symObjAddr: 0x221B4, symBinAddr: 0x10002AC78, symSize: 0x44 }
  - { offsetInCU: 0x2AC68, offset: 0x41E10, size: 0x8, addend: 0x0, symName: __ZNSt3__124__sort5_maybe_branchlessB7v160006INS_17_ClassicAlgPolicyERNS_6__lessI3RowS3_EEPS3_EENS_9enable_ifIXntsr21__use_branchless_sortIT0_T1_EE5valueEvE4typeES9_S9_S9_S9_S9_S8_, symObjAddr: 0x221F8, symBinAddr: 0x10002ACBC, symSize: 0x4C }
  - { offsetInCU: 0x2ACFC, offset: 0x41EA4, size: 0x8, addend: 0x0, symName: __ZNSt3__114__partial_sortB7v160006INS_17_ClassicAlgPolicyERNS_6__lessI3RowS3_EEPS3_S6_EET1_S7_S7_T2_RT0_, symObjAddr: 0x223CC, symBinAddr: 0x10002AE90, symSize: 0x94 }
  - { offsetInCU: 0x2AD84, offset: 0x41F2C, size: 0x8, addend: 0x0, symName: __ZNSt3__119__sort5_wrap_policyB7v160006INS_17_ClassicAlgPolicyERNS_6__lessI3RowS3_EEPS3_EEjT1_S7_S7_S7_S7_T0_, symObjAddr: 0x22460, symBinAddr: 0x10002AF24, symSize: 0x54 }
  - { offsetInCU: 0x2AE2A, offset: 0x41FD2, size: 0x8, addend: 0x0, symName: __ZNSt3__17__sort3B7v160006INS_17_ClassicAlgPolicyERNS_6__lessI3RowS3_EEPS3_EEjT1_S7_S7_T0_, symObjAddr: 0x224B4, symBinAddr: 0x10002AF78, symSize: 0x144 }
  - { offsetInCU: 0x2AEA9, offset: 0x42051, size: 0x8, addend: 0x0, symName: __ZNSt3__1ltB7v160006INS_12basic_stringIcNS_11char_traitsIcEENS_9allocatorIcEEEENS4_IS6_EEEEbRKNS_6vectorIT_T0_EESD_, symObjAddr: 0x22988, symBinAddr: 0x10002B44C, symSize: 0x68 }
  - { offsetInCU: 0x2AEF8, offset: 0x420A0, size: 0x8, addend: 0x0, symName: __ZNSt3__123lexicographical_compareB7v160006INS_11__wrap_iterIPKNS_12basic_stringIcNS_11char_traitsIcEENS_9allocatorIcEEEEEESA_EEbT_SB_T0_SC_, symObjAddr: 0x229F0, symBinAddr: 0x10002B4B4, symSize: 0x60 }
  - { offsetInCU: 0x2AF60, offset: 0x42108, size: 0x8, addend: 0x0, symName: __ZNSt3__123lexicographical_compareB7v160006INS_11__wrap_iterIPKNS_12basic_stringIcNS_11char_traitsIcEENS_9allocatorIcEEEEEESA_NS_6__lessIS7_S7_EEEEbT_SD_T0_SE_T1_, symObjAddr: 0x22AB0, symBinAddr: 0x10002B574, symSize: 0x64 }
  - { offsetInCU: 0x2AFDF, offset: 0x42187, size: 0x8, addend: 0x0, symName: __ZNSt3__125__lexicographical_compareB7v160006IRNS_6__lessINS_12basic_stringIcNS_11char_traitsIcEENS_9allocatorIcEEEES7_EENS_11__wrap_iterIPKS7_EESD_EEbT0_SE_T1_SF_T_, symObjAddr: 0x22B14, symBinAddr: 0x10002B5D8, symSize: 0x11C }
  - { offsetInCU: 0x2B05E, offset: 0x42206, size: 0x8, addend: 0x0, symName: __ZNSt3__1neB7v160006IPKNS_12basic_stringIcNS_11char_traitsIcEENS_9allocatorIcEEEEEEbRKNS_11__wrap_iterIT_EESD_, symObjAddr: 0x22C30, symBinAddr: 0x10002B6F4, symSize: 0x34 }
  - { offsetInCU: 0x2B0A1, offset: 0x42249, size: 0x8, addend: 0x0, symName: __ZNSt3__1eqB7v160006IPKNS_12basic_stringIcNS_11char_traitsIcEENS_9allocatorIcEEEEEEbRKNS_11__wrap_iterIT_EESD_, symObjAddr: 0x22C64, symBinAddr: 0x10002B728, symSize: 0x48 }
  - { offsetInCU: 0x2B11F, offset: 0x422C7, size: 0x8, addend: 0x0, symName: __ZNSt3__19iter_swapB7v160006IP3RowS2_EEvT_T0_, symObjAddr: 0x22DC4, symBinAddr: 0x10002B888, symSize: 0x2C }
  - { offsetInCU: 0x2B168, offset: 0x42310, size: 0x8, addend: 0x0, symName: __ZNSt3__14swapB7v160006I3RowEENS_9enable_ifIXaasr21is_move_constructibleIT_EE5valuesr18is_move_assignableIS3_EE5valueEvE4typeERS3_S6_, symObjAddr: 0x22DF0, symBinAddr: 0x10002B8B4, symSize: 0x50 }
  - { offsetInCU: 0x2B1B9, offset: 0x42361, size: 0x8, addend: 0x0, symName: __ZNSt3__17__sort4B7v160006INS_17_ClassicAlgPolicyERNS_6__lessI3RowS3_EEPS3_EEjT1_S7_S7_S7_T0_, symObjAddr: 0x22E74, symBinAddr: 0x10002B938, symSize: 0xE4 }
  - { offsetInCU: 0x2B26A, offset: 0x42412, size: 0x8, addend: 0x0, symName: __ZNSt3__123__debug_randomize_rangeB7v160006INS_17_ClassicAlgPolicyEP3RowS3_EEvT0_T1_, symObjAddr: 0x22F9C, symBinAddr: 0x10002BA60, symSize: 0x14 }
  - { offsetInCU: 0x2B2BB, offset: 0x42463, size: 0x8, addend: 0x0, symName: __ZNSt3__119__partial_sort_implB7v160006INS_17_ClassicAlgPolicyERNS_6__lessI3RowS3_EEPS3_S6_EET1_S7_S7_T2_OT0_, symObjAddr: 0x22FB0, symBinAddr: 0x10002BA74, symSize: 0x110 }
  - { offsetInCU: 0x2B351, offset: 0x424F9, size: 0x8, addend: 0x0, symName: __ZNSt3__111__make_heapB7v160006INS_17_ClassicAlgPolicyERNS_6__lessI3RowS3_EEPS3_EEvT1_S7_OT0_, symObjAddr: 0x230C0, symBinAddr: 0x10002BB84, symSize: 0xC0 }
  - { offsetInCU: 0x2B3F4, offset: 0x4259C, size: 0x8, addend: 0x0, symName: __ZNSt3__111__sort_heapB7v160006INS_17_ClassicAlgPolicyERNS_6__lessI3RowS3_EEPS3_EEvT1_S7_OT0_, symObjAddr: 0x233EC, symBinAddr: 0x10002BEB0, symSize: 0x90 }
  - { offsetInCU: 0x2B489, offset: 0x42631, size: 0x8, addend: 0x0, symName: __ZNSt3__110__pop_heapB7v160006INS_17_ClassicAlgPolicyENS_6__lessI3RowS3_EEPS3_EEvT1_S6_RT0_NS_15iterator_traitsIS6_E15difference_typeE, symObjAddr: 0x2347C, symBinAddr: 0x10002BF40, symSize: 0x138 }
  - { offsetInCU: 0x2B532, offset: 0x426DA, size: 0x8, addend: 0x0, symName: __ZNSt3__19__sift_upB7v160006INS_17_ClassicAlgPolicyERNS_6__lessI3RowS3_EEPS3_EEvT1_S7_OT0_NS_15iterator_traitsIS7_E15difference_typeE, symObjAddr: 0x236BC, symBinAddr: 0x10002C180, symSize: 0x170 }
  - { offsetInCU: 0x2B5D3, offset: 0x4277B, size: 0x8, addend: 0x0, symName: __ZNSt3__17__sort5IRNS_6__lessI3RowS2_EEPS2_EEjT0_S6_S6_S6_S6_T_, symObjAddr: 0x2382C, symBinAddr: 0x10002C2F0, symSize: 0x12C }
  - { offsetInCU: 0x2B6D1, offset: 0x42879, size: 0x8, addend: 0x0, symName: __ZNSt3__112__to_addressB7v160006INS_11__wrap_iterIP3RowEEvEENS_5decayIDTclsr19__to_address_helperIT_EE6__callclsr3stdE7declvalIRKS6_EEEEE4typeES8_, symObjAddr: 0x23980, symBinAddr: 0x10002C444, symSize: 0x24 }
  - { offsetInCU: 0x2B7B1, offset: 0x42959, size: 0x8, addend: 0x0, symName: __ZNSt3__1miB7v160006IPK3RowPS1_EEDTmicldtfp_4baseEcldtfp0_4baseEERKNS_11__wrap_iterIT_EERKNS6_IT0_EE, symObjAddr: 0x23AAC, symBinAddr: 0x10002C570, symSize: 0x48 }
  - { offsetInCU: 0x2B7FD, offset: 0x429A5, size: 0x8, addend: 0x0, symName: __ZNSt3__1neB7v160006IPK3RowEEbRKNS_11__wrap_iterIT_EES8_, symObjAddr: 0x23AF4, symBinAddr: 0x10002C5B8, symSize: 0x34 }
  - { offsetInCU: 0x2B840, offset: 0x429E8, size: 0x8, addend: 0x0, symName: __ZNSt3__14moveB7v160006IP3RowS2_EET0_T_S4_S3_, symObjAddr: 0x23B28, symBinAddr: 0x10002C5EC, symSize: 0x40 }
  - { offsetInCU: 0x2B89A, offset: 0x42A42, size: 0x8, addend: 0x0, symName: __ZNSt3__1miB7v160006IPK3RowS3_EEDTmicldtfp_4baseEcldtfp0_4baseEERKNS_11__wrap_iterIT_EERKNS5_IT0_EE, symObjAddr: 0x23B68, symBinAddr: 0x10002C62C, symSize: 0x48 }
  - { offsetInCU: 0x2B8E6, offset: 0x42A8E, size: 0x8, addend: 0x0, symName: __ZNSt3__1eqB7v160006IPK3RowEEbRKNS_11__wrap_iterIT_EES8_, symObjAddr: 0x23BC8, symBinAddr: 0x10002C68C, symSize: 0x48 }
  - { offsetInCU: 0x2B929, offset: 0x42AD1, size: 0x8, addend: 0x0, symName: __ZNSt3__16__moveB7v160006INS_17_ClassicAlgPolicyEP3RowS3_S3_EENS_4pairIT0_T2_EES5_T1_S6_, symObjAddr: 0x23C10, symBinAddr: 0x10002C6D4, symSize: 0x44 }
  - { offsetInCU: 0x2B995, offset: 0x42B3D, size: 0x8, addend: 0x0, symName: __ZNSt3__123__dispatch_copy_or_moveB7v160006INS_17_ClassicAlgPolicyENS_11__move_loopIS1_EENS_14__move_trivialEP3RowS6_S6_EENS_4pairIT2_T4_EES8_T3_S9_, symObjAddr: 0x23C54, symBinAddr: 0x10002C718, symSize: 0x44 }
  - { offsetInCU: 0x2BA13, offset: 0x42BBB, size: 0x8, addend: 0x0, symName: __ZNSt3__121__unwrap_and_dispatchB7v160006INS_10__overloadINS_11__move_loopINS_17_ClassicAlgPolicyEEENS_14__move_trivialEEEP3RowS8_S8_Li0EEENS_4pairIT0_T2_EESA_T1_SB_, symObjAddr: 0x23C98, symBinAddr: 0x10002C75C, symSize: 0xB4 }
  - { offsetInCU: 0x2BAA1, offset: 0x42C49, size: 0x8, addend: 0x0, symName: __ZNSt3__16uniqueB7v160006INS_11__wrap_iterIP3RowEENS_10__equal_toEEET_S6_S6_T0_, symObjAddr: 0x23DDC, symBinAddr: 0x10002C8A0, symSize: 0x54 }
  - { offsetInCU: 0x2BAFB, offset: 0x42CA3, size: 0x8, addend: 0x0, symName: __ZNSt3__18__uniqueB7v160006INS_17_ClassicAlgPolicyENS_11__wrap_iterIP3RowEES5_RNS_10__equal_toEEENS_4pairIT0_S9_EES9_T1_OT2_, symObjAddr: 0x23E30, symBinAddr: 0x10002C8F4, symSize: 0x13C }
  - { offsetInCU: 0x2BB83, offset: 0x42D2B, size: 0x8, addend: 0x0, symName: __ZNSt3__115__adjacent_findB7v160006INS_11__wrap_iterIP3RowEES4_RNS_10__equal_toEEET_S7_T0_OT1_, symObjAddr: 0x23F6C, symBinAddr: 0x10002CA30, symSize: 0xCC }
  - { offsetInCU: 0x2BBF4, offset: 0x42D9C, size: 0x8, addend: 0x0, symName: __ZNSt3__1neB7v160006IP3RowEEbRKNS_11__wrap_iterIT_EES7_, symObjAddr: 0x24038, symBinAddr: 0x10002CAFC, symSize: 0x34 }
  - { offsetInCU: 0x2BDA6, offset: 0x42F4E, size: 0x8, addend: 0x0, symName: __ZNSt3__1eqB7v160006IP3RowEEbRKNS_11__wrap_iterIT_EES7_, symObjAddr: 0x24178, symBinAddr: 0x10002CC3C, symSize: 0x48 }
  - { offsetInCU: 0x2BDE9, offset: 0x42F91, size: 0x8, addend: 0x0, symName: __ZNSt3__1eqB7v160006INS_12basic_stringIcNS_11char_traitsIcEENS_9allocatorIcEEEENS4_IS6_EEEEbRKNS_6vectorIT_T0_EESD_, symObjAddr: 0x241C0, symBinAddr: 0x10002CC84, symSize: 0x9C }
  - { offsetInCU: 0x2BE47, offset: 0x42FEF, size: 0x8, addend: 0x0, symName: __ZNSt3__15equalB7v160006INS_11__wrap_iterIPKNS_12basic_stringIcNS_11char_traitsIcEENS_9allocatorIcEEEEEESA_EEbT_SB_T0_, symObjAddr: 0x2425C, symBinAddr: 0x10002CD20, symSize: 0x50 }
  - { offsetInCU: 0x2BEA1, offset: 0x43049, size: 0x8, addend: 0x0, symName: __ZNSt3__15equalB7v160006INS_11__wrap_iterIPKNS_12basic_stringIcNS_11char_traitsIcEENS_9allocatorIcEEEEEESA_NS_10__equal_toEEEbT_SC_T0_T1_, symObjAddr: 0x242AC, symBinAddr: 0x10002CD70, symSize: 0xB0 }
  - { offsetInCU: 0x2BF12, offset: 0x430BA, size: 0x8, addend: 0x0, symName: __ZNSt3__1plB7v160006IcNS_11char_traitsIcEENS_9allocatorIcEEEENS_12basic_stringIT_T0_T1_EERKS9_PKS6_, symObjAddr: 0x24790, symBinAddr: 0x10002D254, symSize: 0x11C }
  - { offsetInCU: 0x2BFB3, offset: 0x4315B, size: 0x8, addend: 0x0, symName: __ZNSt3__112__to_addressB7v160006I5TableEEPT_S3_, symObjAddr: 0x25954, symBinAddr: 0x10002D5FC, symSize: 0x14 }
  - { offsetInCU: 0x2BFE8, offset: 0x43190, size: 0x8, addend: 0x0, symName: __ZNSt3__122__make_exception_guardB7v160006INS_6vectorI3RowNS_9allocatorIS2_EEE16__destroy_vectorEEENS_28__exception_guard_exceptionsIT_EES8_, symObjAddr: 0x25CE4, symBinAddr: 0x10002D98C, symSize: 0x40 }
  - { offsetInCU: 0x2C01D, offset: 0x431C5, size: 0x8, addend: 0x0, symName: __ZNSt3__119__allocate_at_leastB7v160006INS_9allocatorI5TableEEEENS_19__allocation_resultINS_16allocator_traitsIT_E7pointerEEERS6_m, symObjAddr: 0x26408, symBinAddr: 0x10002E0B0, symSize: 0x40 }
  - { offsetInCU: 0x2C060, offset: 0x43208, size: 0x8, addend: 0x0, symName: __ZNSt3__142__uninitialized_allocator_move_if_noexceptB7v160006INS_9allocatorI5TableEENS_16reverse_iteratorIPS2_EES6_S6_EET2_RT_T0_T1_S7_, symObjAddr: 0x26694, symBinAddr: 0x10002E33C, symSize: 0x12C }
  - { offsetInCU: 0x2C100, offset: 0x432A8, size: 0x8, addend: 0x0, symName: __ZNSt3__14swapB7v160006IP5TableEENS_9enable_ifIXaasr21is_move_constructibleIT_EE5valuesr18is_move_assignableIS4_EE5valueEvE4typeERS4_S7_, symObjAddr: 0x2680C, symBinAddr: 0x10002E4B4, symSize: 0x3C }
  - { offsetInCU: 0x2C151, offset: 0x432F9, size: 0x8, addend: 0x0, symName: __ZNSt3__125__debug_db_invalidate_allB7v160006INS_6vectorI5TableNS_9allocatorIS2_EEEEEEvPT_, symObjAddr: 0x26910, symBinAddr: 0x10002E5B8, symSize: 0x10 }
  - { offsetInCU: 0x2C182, offset: 0x4332A, size: 0x8, addend: 0x0, symName: __ZNSt3__122__make_exception_guardB7v160006INS_29_AllocatorDestroyRangeReverseINS_9allocatorI5TableEENS_16reverse_iteratorIPS3_EEEEEENS_28__exception_guard_exceptionsIT_EESA_, symObjAddr: 0x26968, symBinAddr: 0x10002E610, symSize: 0x4C }
  - { offsetInCU: 0x2C1B8, offset: 0x43360, size: 0x8, addend: 0x0, symName: __ZNSt3__1neB7v160006IP5TableS2_EEbRKNS_16reverse_iteratorIT_EERKNS3_IT0_EE, symObjAddr: 0x269F8, symBinAddr: 0x10002E6A0, symSize: 0x48 }
  - { offsetInCU: 0x2C204, offset: 0x433AC, size: 0x8, addend: 0x0, symName: __ZNSt3__112__to_addressB7v160006INS_16reverse_iteratorIP5TableEEvEENS_5decayIDTclsr19__to_address_helperIT_EE6__callclsr3stdE7declvalIRKS6_EEEEE4typeES8_, symObjAddr: 0x26A74, symBinAddr: 0x10002E71C, symSize: 0x24 }
  - { offsetInCU: 0x2C264, offset: 0x4340C, size: 0x8, addend: 0x0, symName: __ZNSt3__119__allocator_destroyB7v160006INS_9allocatorI5TableEENS_16reverse_iteratorINS4_IPS2_EEEES7_EEvRT_T0_T1_, symObjAddr: 0x26F58, symBinAddr: 0x10002EC00, symSize: 0x70 }
  - { offsetInCU: 0x2C2C9, offset: 0x43471, size: 0x8, addend: 0x0, symName: __ZNSt3__1neB7v160006INS_16reverse_iteratorIP5TableEES4_EEbRKNS1_IT_EERKNS1_IT0_EE, symObjAddr: 0x27004, symBinAddr: 0x10002ECAC, symSize: 0x60 }
  - { offsetInCU: 0x2C315, offset: 0x434BD, size: 0x8, addend: 0x0, symName: __ZNSt3__112__to_addressB7v160006INS_16reverse_iteratorINS1_IP5TableEEEEvEENS_5decayIDTclsr19__to_address_helperIT_EE6__callclsr3stdE7declvalIRKS7_EEEEE4typeES9_, symObjAddr: 0x27090, symBinAddr: 0x10002ED38, symSize: 0x24 }
  - { offsetInCU: 0x2C375, offset: 0x4351D, size: 0x8, addend: 0x0, symName: __ZNSt3__118__debug_db_erase_cB7v160006INS_6vectorI9QueryItemNS_9allocatorIS2_EEEEEEvPT_, symObjAddr: 0x275CC, symBinAddr: 0x10002F274, symSize: 0x10 }
  - { offsetInCU: 0x2C3A6, offset: 0x4354E, size: 0x8, addend: 0x0, symName: __ZNSt3__118__debug_db_erase_cB7v160006INS_6vectorI5TableNS_9allocatorIS2_EEEEEEvPT_, symObjAddr: 0x277C4, symBinAddr: 0x10002F46C, symSize: 0x10 }
  - { offsetInCU: 0x2C3D7, offset: 0x4357F, size: 0x8, addend: 0x0, symName: __ZNSt3__118__debug_db_erase_cB7v160006INS_6vectorIP5TokenNS_9allocatorIS3_EEEEEEvPT_, symObjAddr: 0x28004, symBinAddr: 0x10002FAF0, symSize: 0x10 }
  - { offsetInCU: 0x2DA4B, offset: 0x44BF3, size: 0x8, addend: 0x0, symName: __ZNSt3__16vectorIP6SchemeNS_9allocatorIS2_EEE26__swap_out_circular_bufferERNS_14__split_bufferIS2_RS4_EE, symObjAddr: 0x45B4, symBinAddr: 0x10000D514, symSize: 0x118 }
  - { offsetInCU: 0x2DAA2, offset: 0x44C4A, size: 0x8, addend: 0x0, symName: __ZNSt3__16vectorIP2IdNS_9allocatorIS2_EEE26__swap_out_circular_bufferERNS_14__split_bufferIS2_RS4_EE, symObjAddr: 0x65D0, symBinAddr: 0x10000F1E4, symSize: 0x118 }
  - { offsetInCU: 0x2DE6C, offset: 0x45014, size: 0x8, addend: 0x0, symName: __ZNSt3__16vectorIP4FactNS_9allocatorIS2_EEE26__swap_out_circular_bufferERNS_14__split_bufferIS2_RS4_EE, symObjAddr: 0x88B8, symBinAddr: 0x1000113E8, symSize: 0x118 }
  - { offsetInCU: 0x2DEC3, offset: 0x4506B, size: 0x8, addend: 0x0, symName: __ZNSt3__16vectorIP8DLStringNS_9allocatorIS2_EEE26__swap_out_circular_bufferERNS_14__split_bufferIS2_RS4_EE, symObjAddr: 0xA640, symBinAddr: 0x100013170, symSize: 0x118 }
  - { offsetInCU: 0x2E462, offset: 0x4560A, size: 0x8, addend: 0x0, symName: __ZNSt3__16vectorIP4RuleNS_9allocatorIS2_EEE26__swap_out_circular_bufferERNS_14__split_bufferIS2_RS4_EE, symObjAddr: 0xC8F4, symBinAddr: 0x100015424, symSize: 0x118 }
  - { offsetInCU: 0x2E4B9, offset: 0x45661, size: 0x8, addend: 0x0, symName: __ZNSt3__16vectorIP9PredicateNS_9allocatorIS2_EEE26__swap_out_circular_bufferERNS_14__split_bufferIS2_RS4_EE, symObjAddr: 0xEA88, symBinAddr: 0x1000175B8, symSize: 0x118 }
  - { offsetInCU: 0x2E510, offset: 0x456B8, size: 0x8, addend: 0x0, symName: __ZNSt3__16vectorIP9ParameterNS_9allocatorIS2_EEE26__swap_out_circular_bufferERNS_14__split_bufferIS2_RS4_EE, symObjAddr: 0x106B0, symBinAddr: 0x1000191E0, symSize: 0x118 }
  - { offsetInCU: 0x2E725, offset: 0x458CD, size: 0x8, addend: 0x0, symName: __ZNSt3__16vectorIP5QueryNS_9allocatorIS2_EEE26__swap_out_circular_bufferERNS_14__split_bufferIS2_RS4_EE, symObjAddr: 0x12D10, symBinAddr: 0x10001B840, symSize: 0x118 }
  - { offsetInCU: 0x2F1DF, offset: 0x46387, size: 0x8, addend: 0x0, symName: __ZNSt3__16vectorINS_12basic_stringIcNS_11char_traitsIcEENS_9allocatorIcEEEENS4_IS6_EEE26__swap_out_circular_bufferERNS_14__split_bufferIS6_RS7_EE, symObjAddr: 0x15700, symBinAddr: 0x10001E230, symSize: 0x118 }
  - { offsetInCU: 0x2F317, offset: 0x464BF, size: 0x8, addend: 0x0, symName: __ZNSt3__16vectorI3RowNS_9allocatorIS1_EEE26__swap_out_circular_bufferERNS_14__split_bufferIS1_RS3_EE, symObjAddr: 0x1A010, symBinAddr: 0x100022B40, symSize: 0x118 }
  - { offsetInCU: 0x2F53A, offset: 0x466E2, size: 0x8, addend: 0x0, symName: __ZNSt3__16vectorI9QueryItemNS_9allocatorIS1_EEE26__swap_out_circular_bufferERNS_14__split_bufferIS1_RS3_EE, symObjAddr: 0x1D8C4, symBinAddr: 0x1000263E0, symSize: 0x118 }
  - { offsetInCU: 0x2FAAF, offset: 0x46C57, size: 0x8, addend: 0x0, symName: __ZNSt3__16vectorI5TableNS_9allocatorIS1_EEE26__swap_out_circular_bufferERNS_14__split_bufferIS1_RS3_EE, symObjAddr: 0x25FE8, symBinAddr: 0x10002DC90, symSize: 0x118 }
  - { offsetInCU: 0x31858, offset: 0x48A00, size: 0x8, addend: 0x0, symName: __Z9checkTypeR5LexerNSt3__112basic_stringIcNS1_11char_traitsIcEENS1_9allocatorIcEEEE, symObjAddr: 0x0, symBinAddr: 0x100009AC8, symSize: 0x310 }
  - { offsetInCU: 0x31891, offset: 0x48A39, size: 0x8, addend: 0x0, symName: __ZN5Token12getTokenTypeEv, symObjAddr: 0x344, symBinAddr: 0x100009E0C, symSize: 0x38 }
  - { offsetInCU: 0x318B7, offset: 0x48A5F, size: 0x8, addend: 0x0, symName: __ZNSt3__113basic_ostreamIcNS_11char_traitsIcEEElsB7v160006EPFRS3_S4_E, symObjAddr: 0x3F0, symBinAddr: 0x100009E44, symSize: 0x2C }
  - { offsetInCU: 0x318EB, offset: 0x48A93, size: 0x8, addend: 0x0, symName: __ZN5Token8toStringEv, symObjAddr: 0x4C0, symBinAddr: 0x100009F14, symSize: 0x1A4 }
  - { offsetInCU: 0x31910, offset: 0x48AB8, size: 0x8, addend: 0x0, symName: __Z8checkForR5LexerNSt3__112basic_stringIcNS1_11char_traitsIcEENS1_9allocatorIcEEEE, symObjAddr: 0x6E4, symBinAddr: 0x10000A0F8, symSize: 0x78 }
  - { offsetInCU: 0x31949, offset: 0x48AF1, size: 0x8, addend: 0x0, symName: __ZN5Lexer13advanceTokensEv, symObjAddr: 0x75C, symBinAddr: 0x10000A170, symSize: 0x20 }
  - { offsetInCU: 0x3196E, offset: 0x48B16, size: 0x8, addend: 0x0, symName: __Z15createParameterR5Lexer, symObjAddr: 0x77C, symBinAddr: 0x10000A190, symSize: 0x360 }
  - { offsetInCU: 0x319A9, offset: 0x48B51, size: 0x8, addend: 0x0, symName: __ZN2IdC1ER5Lexer, symObjAddr: 0xB88, symBinAddr: 0x10000A4F0, symSize: 0x34 }
  - { offsetInCU: 0x319E1, offset: 0x48B89, size: 0x8, addend: 0x0, symName: __ZN8DLStringC1ER5Lexer, symObjAddr: 0xBBC, symBinAddr: 0x10000A524, symSize: 0x34 }
  - { offsetInCU: 0x31A19, offset: 0x48BC1, size: 0x8, addend: 0x0, symName: __ZN10ExpressionC1ER5Lexer, symObjAddr: 0xBF0, symBinAddr: 0x10000A558, symSize: 0x34 }
  - { offsetInCU: 0x31A50, offset: 0x48BF8, size: 0x8, addend: 0x0, symName: __Z16deleteExpOrParamP9Parameter, symObjAddr: 0xC24, symBinAddr: 0x10000A58C, symSize: 0x94 }
  - { offsetInCU: 0x31A96, offset: 0x48C3E, size: 0x8, addend: 0x0, symName: __ZN10ExpressionD1Ev, symObjAddr: 0xCB8, symBinAddr: 0x10000A620, symSize: 0x2C }
  - { offsetInCU: 0x31AC0, offset: 0x48C68, size: 0x8, addend: 0x0, symName: __ZN9ParameterD1Ev, symObjAddr: 0xCE4, symBinAddr: 0x10000A64C, symSize: 0x2C }
  - { offsetInCU: 0x31AEB, offset: 0x48C93, size: 0x8, addend: 0x0, symName: __Z30printExpressionOrParameterHeadRPNSt3__16vectorIP4RuleNS_9allocatorIS2_EEEEiii, symObjAddr: 0xD10, symBinAddr: 0x10000A678, symSize: 0x144 }
  - { offsetInCU: 0x31B53, offset: 0x48CFB, size: 0x8, addend: 0x0, symName: __ZNSt3__16vectorIP4RuleNS_9allocatorIS2_EEE2atEm, symObjAddr: 0xE54, symBinAddr: 0x10000A7BC, symSize: 0x60 }
  - { offsetInCU: 0x31B8A, offset: 0x48D32, size: 0x8, addend: 0x0, symName: __ZNSt3__16vectorIP2IdNS_9allocatorIS2_EEE2atEm, symObjAddr: 0xEB4, symBinAddr: 0x10000A81C, symSize: 0x60 }
  - { offsetInCU: 0x31BC1, offset: 0x48D69, size: 0x8, addend: 0x0, symName: __ZN9Parameter8toStringEv, symObjAddr: 0xF14, symBinAddr: 0x10000A87C, symSize: 0x38 }
  - { offsetInCU: 0x31BE6, offset: 0x48D8E, size: 0x8, addend: 0x0, symName: __Z26printExpressionOrParameterRPNSt3__16vectorIP4RuleNS_9allocatorIS2_EEEEiii, symObjAddr: 0xF4C, symBinAddr: 0x10000A8B4, symSize: 0x168 }
  - { offsetInCU: 0x31C4E, offset: 0x48DF6, size: 0x8, addend: 0x0, symName: __ZNSt3__16vectorIP9PredicateNS_9allocatorIS2_EEE2atEm, symObjAddr: 0x10B4, symBinAddr: 0x10000AA1C, symSize: 0x60 }
  - { offsetInCU: 0x31C85, offset: 0x48E2D, size: 0x8, addend: 0x0, symName: __ZNSt3__16vectorIP9ParameterNS_9allocatorIS2_EEE2atEm, symObjAddr: 0x1114, symBinAddr: 0x10000AA7C, symSize: 0x60 }
  - { offsetInCU: 0x31CBB, offset: 0x48E63, size: 0x8, addend: 0x0, symName: __Z13printRulesAreRPNSt3__16vectorIP4RuleNS_9allocatorIS2_EEEEi, symObjAddr: 0x1174, symBinAddr: 0x10000AADC, symSize: 0x248 }
  - { offsetInCU: 0x31D1B, offset: 0x48EC3, size: 0x8, addend: 0x0, symName: __ZNKSt3__16vectorIP9PredicateNS_9allocatorIS2_EEE4sizeB7v160006Ev, symObjAddr: 0x13BC, symBinAddr: 0x10000AD24, symSize: 0x28 }
  - { offsetInCU: 0x31D41, offset: 0x48EE9, size: 0x8, addend: 0x0, symName: __ZNKSt3__16vectorIP9ParameterNS_9allocatorIS2_EEE4sizeB7v160006Ev, symObjAddr: 0x13E4, symBinAddr: 0x10000AD4C, symSize: 0x28 }
  - { offsetInCU: 0x31D66, offset: 0x48F0E, size: 0x8, addend: 0x0, symName: __Z31printExpressionOrParameterRulesRPNSt3__16vectorIP4RuleNS_9allocatorIS2_EEEEiii, symObjAddr: 0x140C, symBinAddr: 0x10000AD74, symSize: 0x168 }
  - { offsetInCU: 0x31DCD, offset: 0x48F75, size: 0x8, addend: 0x0, symName: __Z26printExpressionOrParameterRPNSt3__16vectorIP5QueryNS_9allocatorIS2_EEEEiii, symObjAddr: 0x1574, symBinAddr: 0x10000AEDC, symSize: 0x144 }
  - { offsetInCU: 0x31E35, offset: 0x48FDD, size: 0x8, addend: 0x0, symName: __ZNSt3__16vectorIP5QueryNS_9allocatorIS2_EEE2atEm, symObjAddr: 0x16B8, symBinAddr: 0x10000B020, symSize: 0x60 }
  - { offsetInCU: 0x31E6B, offset: 0x49013, size: 0x8, addend: 0x0, symName: __Z32printExpressionOrParameterStringRPNSt3__16vectorIP5QueryNS_9allocatorIS2_EEEEiii, symObjAddr: 0x1718, symBinAddr: 0x10000B080, symSize: 0xD4 }
  - { offsetInCU: 0x31EDE, offset: 0x49086, size: 0x8, addend: 0x0, symName: _main, symObjAddr: 0x17EC, symBinAddr: 0x10000B154, symSize: 0x1EC }
  - { offsetInCU: 0x3210C, offset: 0x492B4, size: 0x8, addend: 0x0, symName: __ZN14DatalogProgramC1ER5Lexer, symObjAddr: 0x1A0C, symBinAddr: 0x10000B340, symSize: 0x34 }
  - { offsetInCU: 0x3219D, offset: 0x49345, size: 0x8, addend: 0x0, symName: __ZN8DatabaseC1EP14DatalogProgram, symObjAddr: 0x1A40, symBinAddr: 0x10000B374, symSize: 0x34 }
  - { offsetInCU: 0x321D5, offset: 0x4937D, size: 0x8, addend: 0x0, symName: __ZN8Database14executeQueriesEP14DatalogProgram, symObjAddr: 0x1A74, symBinAddr: 0x10000B3A8, symSize: 0x3F8 }
  - { offsetInCU: 0x322AC, offset: 0x49454, size: 0x8, addend: 0x0, symName: __ZN14DatalogProgramD1Ev, symObjAddr: 0x1E6C, symBinAddr: 0x10000B7A0, symSize: 0x2C }
  - { offsetInCU: 0x322D6, offset: 0x4947E, size: 0x8, addend: 0x0, symName: __ZN8DatabaseD1Ev, symObjAddr: 0x1E98, symBinAddr: 0x10000B7CC, symSize: 0x2C }
  - { offsetInCU: 0x32300, offset: 0x494A8, size: 0x8, addend: 0x0, symName: __ZN5LexerD1Ev, symObjAddr: 0x1EC4, symBinAddr: 0x10000B7F8, symSize: 0x2C }
  - { offsetInCU: 0x3232A, offset: 0x494D2, size: 0x8, addend: 0x0, symName: __ZNSt3__112basic_stringIcNS_11char_traitsIcEENS_9allocatorIcEEE6appendB7v160006ERKS5_, symObjAddr: 0x1F68, symBinAddr: 0x10000B864, symSize: 0x4C }
  - { offsetInCU: 0x3235F, offset: 0x49507, size: 0x8, addend: 0x0, symName: __ZN2IdC2ER5Lexer, symObjAddr: 0x232C, symBinAddr: 0x10000B8B0, symSize: 0x100 }
  - { offsetInCU: 0x32397, offset: 0x4953F, size: 0x8, addend: 0x0, symName: __ZN9ParameterC2Ev, symObjAddr: 0x242C, symBinAddr: 0x10000B9B0, symSize: 0x30 }
  - { offsetInCU: 0x323C1, offset: 0x49569, size: 0x8, addend: 0x0, symName: __ZN5Token8getValueEv, symObjAddr: 0x245C, symBinAddr: 0x10000B9E0, symSize: 0x4C }
  - { offsetInCU: 0x323E7, offset: 0x4958F, size: 0x8, addend: 0x0, symName: __ZN9ParameterD2Ev, symObjAddr: 0x24DC, symBinAddr: 0x10000BA2C, symSize: 0x2C }
  - { offsetInCU: 0x32418, offset: 0x495C0, size: 0x8, addend: 0x0, symName: __ZNKSt3__112basic_stringIcNS_11char_traitsIcEENS_9allocatorIcEEE6substrB7v160006Emm, symObjAddr: 0x2678, symBinAddr: 0x10000BA58, symSize: 0x68 }
  - { offsetInCU: 0x3245C, offset: 0x49604, size: 0x8, addend: 0x0, symName: __ZNSt3__19allocatorIcEC1B7v160006Ev, symObjAddr: 0x26E0, symBinAddr: 0x10000BAC0, symSize: 0x2C }
  - { offsetInCU: 0x32486, offset: 0x4962E, size: 0x8, addend: 0x0, symName: __ZN8DLStringC2ER5Lexer, symObjAddr: 0x2B60, symBinAddr: 0x10000BAEC, symSize: 0x100 }
  - { offsetInCU: 0x324BE, offset: 0x49666, size: 0x8, addend: 0x0, symName: __ZN10ExpressionC2ER5Lexer, symObjAddr: 0x2C60, symBinAddr: 0x10000BBEC, symSize: 0x2C0 }
  - { offsetInCU: 0x32508, offset: 0x496B0, size: 0x8, addend: 0x0, symName: __ZN8OperatorC1ER5Lexer, symObjAddr: 0x2F20, symBinAddr: 0x10000BEAC, symSize: 0x34 }
  - { offsetInCU: 0x32540, offset: 0x496E8, size: 0x8, addend: 0x0, symName: __ZN8OperatorD1Ev, symObjAddr: 0x2F54, symBinAddr: 0x10000BEE0, symSize: 0x2C }
  - { offsetInCU: 0x3256C, offset: 0x49714, size: 0x8, addend: 0x0, symName: __ZN8OperatorC2ER5Lexer, symObjAddr: 0x2F80, symBinAddr: 0x10000BF0C, symSize: 0x3AC }
  - { offsetInCU: 0x325A4, offset: 0x4974C, size: 0x8, addend: 0x0, symName: __ZN8OperatorD2Ev, symObjAddr: 0x339C, symBinAddr: 0x10000C2FC, symSize: 0x2C }
  - { offsetInCU: 0x325D0, offset: 0x49778, size: 0x8, addend: 0x0, symName: __ZN10ExpressionD2Ev, symObjAddr: 0x33C8, symBinAddr: 0x10000C328, symSize: 0x7C }
  - { offsetInCU: 0x325FA, offset: 0x497A2, size: 0x8, addend: 0x0, symName: __ZN14DatalogProgramC2ER5Lexer, symObjAddr: 0x3444, symBinAddr: 0x10000C3A4, symSize: 0x504 }
  - { offsetInCU: 0x32664, offset: 0x4980C, size: 0x8, addend: 0x0, symName: __ZN7SchemesC1ER5Lexer, symObjAddr: 0x3948, symBinAddr: 0x10000C8A8, symSize: 0x34 }
  - { offsetInCU: 0x3269C, offset: 0x49844, size: 0x8, addend: 0x0, symName: __ZN5FactsC1ER5Lexer, symObjAddr: 0x397C, symBinAddr: 0x10000C8DC, symSize: 0x34 }
  - { offsetInCU: 0x326D4, offset: 0x4987C, size: 0x8, addend: 0x0, symName: __ZN7SchemesD1Ev, symObjAddr: 0x39B0, symBinAddr: 0x10000C910, symSize: 0x2C }
  - { offsetInCU: 0x326FE, offset: 0x498A6, size: 0x8, addend: 0x0, symName: __ZN5RulesC1ER5Lexer, symObjAddr: 0x39DC, symBinAddr: 0x10000C93C, symSize: 0x34 }
  - { offsetInCU: 0x32736, offset: 0x498DE, size: 0x8, addend: 0x0, symName: __ZN5FactsD1Ev, symObjAddr: 0x3A10, symBinAddr: 0x10000C970, symSize: 0x2C }
  - { offsetInCU: 0x32760, offset: 0x49908, size: 0x8, addend: 0x0, symName: __ZN7QueriesC1ER5Lexer, symObjAddr: 0x3A3C, symBinAddr: 0x10000C99C, symSize: 0x34 }
  - { offsetInCU: 0x32798, offset: 0x49940, size: 0x8, addend: 0x0, symName: __ZN5RulesD1Ev, symObjAddr: 0x3A70, symBinAddr: 0x10000C9D0, symSize: 0x2C }
  - { offsetInCU: 0x327C2, offset: 0x4996A, size: 0x8, addend: 0x0, symName: __ZN7SchemesC2ER5Lexer, symObjAddr: 0x3A9C, symBinAddr: 0x10000C9FC, symSize: 0x3A4 }
  - { offsetInCU: 0x32829, offset: 0x499D1, size: 0x8, addend: 0x0, symName: __ZNSt3__16vectorIP6SchemeNS_9allocatorIS2_EEEC1B7v160006Ev, symObjAddr: 0x3E40, symBinAddr: 0x10000CDA0, symSize: 0x2C }
  - { offsetInCU: 0x32853, offset: 0x499FB, size: 0x8, addend: 0x0, symName: __ZNSt3__16vectorIP6SchemeNS_9allocatorIS2_EEE9push_backB7v160006EOS2_, symObjAddr: 0x3E6C, symBinAddr: 0x10000CDCC, symSize: 0x6C }
  - { offsetInCU: 0x3288A, offset: 0x49A32, size: 0x8, addend: 0x0, symName: __ZN6SchemeC1ER5Lexer, symObjAddr: 0x3ED8, symBinAddr: 0x10000CE38, symSize: 0x34 }
  - { offsetInCU: 0x328C2, offset: 0x49A6A, size: 0x8, addend: 0x0, symName: __ZNKSt3__16vectorIP6SchemeNS_9allocatorIS2_EEE4sizeB7v160006Ev, symObjAddr: 0x3F0C, symBinAddr: 0x10000CE6C, symSize: 0x28 }
  - { offsetInCU: 0x328E8, offset: 0x49A90, size: 0x8, addend: 0x0, symName: __ZNSt3__16vectorIP6SchemeNS_9allocatorIS2_EEE2atEm, symObjAddr: 0x3F34, symBinAddr: 0x10000CE94, symSize: 0x60 }
  - { offsetInCU: 0x3291F, offset: 0x49AC7, size: 0x8, addend: 0x0, symName: __ZN6SchemeD1Ev, symObjAddr: 0x3F94, symBinAddr: 0x10000CEF4, symSize: 0x2C }
  - { offsetInCU: 0x32949, offset: 0x49AF1, size: 0x8, addend: 0x0, symName: __ZNSt3__16vectorIP6SchemeNS_9allocatorIS2_EEED1B7v160006Ev, symObjAddr: 0x3FC0, symBinAddr: 0x10000CF20, symSize: 0x2C }
  - { offsetInCU: 0x32973, offset: 0x49B1B, size: 0x8, addend: 0x0, symName: __ZNSt3__16vectorIP6SchemeNS_9allocatorIS2_EEEC2B7v160006Ev, symObjAddr: 0x3FEC, symBinAddr: 0x10000CF4C, symSize: 0x58 }
  - { offsetInCU: 0x329A2, offset: 0x49B4A, size: 0x8, addend: 0x0, symName: __ZNSt3__117__compressed_pairIPP6SchemeNS_9allocatorIS2_EEEC1B7v160006IDnNS_18__default_init_tagEEEOT_OT0_, symObjAddr: 0x4044, symBinAddr: 0x10000CFA4, symSize: 0x3C }
  - { offsetInCU: 0x329FA, offset: 0x49BA2, size: 0x8, addend: 0x0, symName: __ZNSt3__117__compressed_pairIPP6SchemeNS_9allocatorIS2_EEEC2B7v160006IDnNS_18__default_init_tagEEEOT_OT0_, symObjAddr: 0x4090, symBinAddr: 0x10000CFF0, symSize: 0x40 }
  - { offsetInCU: 0x32A52, offset: 0x49BFA, size: 0x8, addend: 0x0, symName: __ZNSt3__122__compressed_pair_elemIPP6SchemeLi0ELb0EEC2B7v160006IDnvEEOT_, symObjAddr: 0x40D0, symBinAddr: 0x10000D030, symSize: 0x1C }
  - { offsetInCU: 0x32A94, offset: 0x49C3C, size: 0x8, addend: 0x0, symName: __ZNSt3__122__compressed_pair_elemINS_9allocatorIP6SchemeEELi1ELb1EEC2B7v160006ENS_18__default_init_tagE, symObjAddr: 0x40EC, symBinAddr: 0x10000D04C, symSize: 0x2C }
  - { offsetInCU: 0x32AC9, offset: 0x49C71, size: 0x8, addend: 0x0, symName: __ZNSt3__19allocatorIP6SchemeEC2B7v160006Ev, symObjAddr: 0x4118, symBinAddr: 0x10000D078, symSize: 0x2C }
  - { offsetInCU: 0x32AF3, offset: 0x49C9B, size: 0x8, addend: 0x0, symName: __ZNSt3__116__non_trivial_ifILb1ENS_9allocatorIP6SchemeEEEC2B7v160006Ev, symObjAddr: 0x4144, symBinAddr: 0x10000D0A4, symSize: 0x14 }
  - { offsetInCU: 0x32B1D, offset: 0x49CC5, size: 0x8, addend: 0x0, symName: __ZNSt3__16vectorIP6SchemeNS_9allocatorIS2_EEE9__end_capB7v160006Ev, symObjAddr: 0x4158, symBinAddr: 0x10000D0B8, symSize: 0x28 }
  - { offsetInCU: 0x32B48, offset: 0x49CF0, size: 0x8, addend: 0x0, symName: __ZNSt3__16vectorIP6SchemeNS_9allocatorIS2_EEE22__construct_one_at_endB7v160006IJS2_EEEvDpOT_, symObjAddr: 0x4180, symBinAddr: 0x10000D0E0, symSize: 0x90 }
  - { offsetInCU: 0x32B97, offset: 0x49D3F, size: 0x8, addend: 0x0, symName: __ZNSt3__16vectorIP6SchemeNS_9allocatorIS2_EEE21__push_back_slow_pathIS2_EEvOT_, symObjAddr: 0x4210, symBinAddr: 0x10000D170, symSize: 0xD8 }
  - { offsetInCU: 0x32BF5, offset: 0x49D9D, size: 0x8, addend: 0x0, symName: __ZNSt3__117__compressed_pairIPP6SchemeNS_9allocatorIS2_EEE5firstB7v160006Ev, symObjAddr: 0x42E8, symBinAddr: 0x10000D248, symSize: 0x24 }
  - { offsetInCU: 0x32C1B, offset: 0x49DC3, size: 0x8, addend: 0x0, symName: __ZNSt3__122__compressed_pair_elemIPP6SchemeLi0ELb0EE5__getB7v160006Ev, symObjAddr: 0x430C, symBinAddr: 0x10000D26C, symSize: 0x14 }
  - { offsetInCU: 0x32C5A, offset: 0x49E02, size: 0x8, addend: 0x0, symName: __ZNSt3__16vectorIP6SchemeNS_9allocatorIS2_EEE21_ConstructTransactionC1B7v160006ERS5_m, symObjAddr: 0x4320, symBinAddr: 0x10000D280, symSize: 0x3C }
  - { offsetInCU: 0x32CA2, offset: 0x49E4A, size: 0x8, addend: 0x0, symName: __ZNSt3__116allocator_traitsINS_9allocatorIP6SchemeEEE9constructB7v160006IS3_JS3_EvEEvRS4_PT_DpOT0_, symObjAddr: 0x435C, symBinAddr: 0x10000D2BC, symSize: 0x34 }
  - { offsetInCU: 0x32CF9, offset: 0x49EA1, size: 0x8, addend: 0x0, symName: __ZNSt3__16vectorIP6SchemeNS_9allocatorIS2_EEE7__allocB7v160006Ev, symObjAddr: 0x4390, symBinAddr: 0x10000D2F0, symSize: 0x28 }
  - { offsetInCU: 0x32D1F, offset: 0x49EC7, size: 0x8, addend: 0x0, symName: __ZNSt3__16vectorIP6SchemeNS_9allocatorIS2_EEE21_ConstructTransactionD1B7v160006Ev, symObjAddr: 0x43CC, symBinAddr: 0x10000D32C, symSize: 0x2C }
  - { offsetInCU: 0x32D49, offset: 0x49EF1, size: 0x8, addend: 0x0, symName: __ZNSt3__16vectorIP6SchemeNS_9allocatorIS2_EEE21_ConstructTransactionC2B7v160006ERS5_m, symObjAddr: 0x43F8, symBinAddr: 0x10000D358, symSize: 0x44 }
  - { offsetInCU: 0x32D91, offset: 0x49F39, size: 0x8, addend: 0x0, symName: __ZNSt3__19allocatorIP6SchemeE9constructB7v160006IS2_JS2_EEEvPT_DpOT0_, symObjAddr: 0x443C, symBinAddr: 0x10000D39C, symSize: 0x28 }
  - { offsetInCU: 0x32DE7, offset: 0x49F8F, size: 0x8, addend: 0x0, symName: __ZNSt3__117__compressed_pairIPP6SchemeNS_9allocatorIS2_EEE6secondB7v160006Ev, symObjAddr: 0x4464, symBinAddr: 0x10000D3C4, symSize: 0x24 }
  - { offsetInCU: 0x32E0D, offset: 0x49FB5, size: 0x8, addend: 0x0, symName: __ZNSt3__122__compressed_pair_elemINS_9allocatorIP6SchemeEELi1ELb1EE5__getB7v160006Ev, symObjAddr: 0x4488, symBinAddr: 0x10000D3E8, symSize: 0x14 }
  - { offsetInCU: 0x32E33, offset: 0x49FDB, size: 0x8, addend: 0x0, symName: __ZNSt3__16vectorIP6SchemeNS_9allocatorIS2_EEE21_ConstructTransactionD2B7v160006Ev, symObjAddr: 0x449C, symBinAddr: 0x10000D3FC, symSize: 0x20 }
  - { offsetInCU: 0x32E5D, offset: 0x4A005, size: 0x8, addend: 0x0, symName: __ZNKSt3__16vectorIP6SchemeNS_9allocatorIS2_EEE11__recommendB7v160006Em, symObjAddr: 0x44BC, symBinAddr: 0x10000D41C, symSize: 0xB4 }
  - { offsetInCU: 0x32EB2, offset: 0x4A05A, size: 0x8, addend: 0x0, symName: __ZNSt3__114__split_bufferIP6SchemeRNS_9allocatorIS2_EEEC1EmmS5_, symObjAddr: 0x4570, symBinAddr: 0x10000D4D0, symSize: 0x44 }
  - { offsetInCU: 0x32F08, offset: 0x4A0B0, size: 0x8, addend: 0x0, symName: __ZNSt3__114__split_bufferIP6SchemeRNS_9allocatorIS2_EEED1Ev, symObjAddr: 0x46CC, symBinAddr: 0x10000D62C, symSize: 0x2C }
  - { offsetInCU: 0x32F34, offset: 0x4A0DC, size: 0x8, addend: 0x0, symName: __ZNKSt3__16vectorIP6SchemeNS_9allocatorIS2_EEE8max_sizeEv, symObjAddr: 0x46F8, symBinAddr: 0x10000D658, symSize: 0x60 }
  - { offsetInCU: 0x32F5C, offset: 0x4A104, size: 0x8, addend: 0x0, symName: __ZNKSt3__16vectorIP6SchemeNS_9allocatorIS2_EEE20__throw_length_errorB7v160006Ev, symObjAddr: 0x4758, symBinAddr: 0x10000D6B8, symSize: 0x1C }
  - { offsetInCU: 0x32F82, offset: 0x4A12A, size: 0x8, addend: 0x0, symName: __ZNKSt3__16vectorIP6SchemeNS_9allocatorIS2_EEE8capacityB7v160006Ev, symObjAddr: 0x4774, symBinAddr: 0x10000D6D4, symSize: 0x40 }
  - { offsetInCU: 0x32FB2, offset: 0x4A15A, size: 0x8, addend: 0x0, symName: __ZNSt3__116allocator_traitsINS_9allocatorIP6SchemeEEE8max_sizeB7v160006IS4_vEEmRKS4_, symObjAddr: 0x480C, symBinAddr: 0x10000D714, symSize: 0x24 }
  - { offsetInCU: 0x32FE0, offset: 0x4A188, size: 0x8, addend: 0x0, symName: __ZNKSt3__16vectorIP6SchemeNS_9allocatorIS2_EEE7__allocB7v160006Ev, symObjAddr: 0x4830, symBinAddr: 0x10000D738, symSize: 0x28 }
  - { offsetInCU: 0x33006, offset: 0x4A1AE, size: 0x8, addend: 0x0, symName: __ZNKSt3__19allocatorIP6SchemeE8max_sizeB7v160006Ev, symObjAddr: 0x48F4, symBinAddr: 0x10000D760, symSize: 0x14 }
  - { offsetInCU: 0x3302C, offset: 0x4A1D4, size: 0x8, addend: 0x0, symName: __ZNKSt3__117__compressed_pairIPP6SchemeNS_9allocatorIS2_EEE6secondB7v160006Ev, symObjAddr: 0x4908, symBinAddr: 0x10000D774, symSize: 0x24 }
  - { offsetInCU: 0x33052, offset: 0x4A1FA, size: 0x8, addend: 0x0, symName: __ZNKSt3__122__compressed_pair_elemINS_9allocatorIP6SchemeEELi1ELb1EE5__getB7v160006Ev, symObjAddr: 0x492C, symBinAddr: 0x10000D798, symSize: 0x14 }
  - { offsetInCU: 0x33078, offset: 0x4A220, size: 0x8, addend: 0x0, symName: __ZNKSt3__16vectorIP6SchemeNS_9allocatorIS2_EEE9__end_capB7v160006Ev, symObjAddr: 0x4A2C, symBinAddr: 0x10000D7AC, symSize: 0x28 }
  - { offsetInCU: 0x3309E, offset: 0x4A246, size: 0x8, addend: 0x0, symName: __ZNKSt3__117__compressed_pairIPP6SchemeNS_9allocatorIS2_EEE5firstB7v160006Ev, symObjAddr: 0x4A54, symBinAddr: 0x10000D7D4, symSize: 0x24 }
  - { offsetInCU: 0x330C4, offset: 0x4A26C, size: 0x8, addend: 0x0, symName: __ZNKSt3__122__compressed_pair_elemIPP6SchemeLi0ELb0EE5__getB7v160006Ev, symObjAddr: 0x4A78, symBinAddr: 0x10000D7F8, symSize: 0x14 }
  - { offsetInCU: 0x330EA, offset: 0x4A292, size: 0x8, addend: 0x0, symName: __ZNSt3__114__split_bufferIP6SchemeRNS_9allocatorIS2_EEEC2EmmS5_, symObjAddr: 0x4AE0, symBinAddr: 0x10000D80C, symSize: 0xD4 }
  - { offsetInCU: 0x3315D, offset: 0x4A305, size: 0x8, addend: 0x0, symName: __ZNSt3__117__compressed_pairIPP6SchemeRNS_9allocatorIS2_EEEC1B7v160006IDnS6_EEOT_OT0_, symObjAddr: 0x4BB4, symBinAddr: 0x10000D8E0, symSize: 0x3C }
  - { offsetInCU: 0x331B5, offset: 0x4A35D, size: 0x8, addend: 0x0, symName: __ZNSt3__114__split_bufferIP6SchemeRNS_9allocatorIS2_EEE7__allocB7v160006Ev, symObjAddr: 0x4C30, symBinAddr: 0x10000D95C, symSize: 0x28 }
  - { offsetInCU: 0x331DB, offset: 0x4A383, size: 0x8, addend: 0x0, symName: __ZNSt3__114__split_bufferIP6SchemeRNS_9allocatorIS2_EEE9__end_capB7v160006Ev, symObjAddr: 0x4C58, symBinAddr: 0x10000D984, symSize: 0x28 }
  - { offsetInCU: 0x33201, offset: 0x4A3A9, size: 0x8, addend: 0x0, symName: __ZNSt3__117__compressed_pairIPP6SchemeRNS_9allocatorIS2_EEEC2B7v160006IDnS6_EEOT_OT0_, symObjAddr: 0x4C80, symBinAddr: 0x10000D9AC, symSize: 0x48 }
  - { offsetInCU: 0x33259, offset: 0x4A401, size: 0x8, addend: 0x0, symName: __ZNSt3__122__compressed_pair_elemIRNS_9allocatorIP6SchemeEELi1ELb0EEC2B7v160006IS5_vEEOT_, symObjAddr: 0x4CC8, symBinAddr: 0x10000D9F4, symSize: 0x20 }
  - { offsetInCU: 0x3329B, offset: 0x4A443, size: 0x8, addend: 0x0, symName: __ZNSt3__19allocatorIP6SchemeE8allocateB7v160006Em, symObjAddr: 0x4CE8, symBinAddr: 0x10000DA14, symSize: 0x58 }
  - { offsetInCU: 0x332CF, offset: 0x4A477, size: 0x8, addend: 0x0, symName: __ZNSt3__117__compressed_pairIPP6SchemeRNS_9allocatorIS2_EEE6secondB7v160006Ev, symObjAddr: 0x4E24, symBinAddr: 0x10000DA6C, symSize: 0x28 }
  - { offsetInCU: 0x332F5, offset: 0x4A49D, size: 0x8, addend: 0x0, symName: __ZNSt3__122__compressed_pair_elemIRNS_9allocatorIP6SchemeEELi1ELb0EE5__getB7v160006Ev, symObjAddr: 0x4E4C, symBinAddr: 0x10000DA94, symSize: 0x18 }
  - { offsetInCU: 0x3331B, offset: 0x4A4C3, size: 0x8, addend: 0x0, symName: __ZNSt3__117__compressed_pairIPP6SchemeRNS_9allocatorIS2_EEE5firstB7v160006Ev, symObjAddr: 0x4E64, symBinAddr: 0x10000DAAC, symSize: 0x24 }
  - { offsetInCU: 0x33341, offset: 0x4A4E9, size: 0x8, addend: 0x0, symName: __ZNKSt3__16vectorIP6SchemeNS_9allocatorIS2_EEE17__annotate_deleteB7v160006Ev, symObjAddr: 0x4E88, symBinAddr: 0x10000DAD0, symSize: 0xB8 }
  - { offsetInCU: 0x33367, offset: 0x4A50F, size: 0x8, addend: 0x0, symName: __ZNSt3__116reverse_iteratorIPP6SchemeEC1B7v160006ES3_, symObjAddr: 0x4FB8, symBinAddr: 0x10000DC00, symSize: 0x34 }
  - { offsetInCU: 0x3339F, offset: 0x4A547, size: 0x8, addend: 0x0, symName: __ZNKSt3__116reverse_iteratorIPP6SchemeE4baseB7v160006Ev, symObjAddr: 0x4FEC, symBinAddr: 0x10000DC34, symSize: 0x18 }
  - { offsetInCU: 0x333C5, offset: 0x4A56D, size: 0x8, addend: 0x0, symName: __ZNKSt3__16vectorIP6SchemeNS_9allocatorIS2_EEE14__annotate_newB7v160006Em, symObjAddr: 0x5040, symBinAddr: 0x10000DC88, symSize: 0xAC }
  - { offsetInCU: 0x333FA, offset: 0x4A5A2, size: 0x8, addend: 0x0, symName: __ZNKSt3__16vectorIP6SchemeNS_9allocatorIS2_EEE31__annotate_contiguous_containerB7v160006EPKvS7_S7_S7_, symObjAddr: 0x50FC, symBinAddr: 0x10000DD44, symSize: 0x20 }
  - { offsetInCU: 0x3344C, offset: 0x4A5F4, size: 0x8, addend: 0x0, symName: __ZNKSt3__16vectorIP6SchemeNS_9allocatorIS2_EEE4dataB7v160006Ev, symObjAddr: 0x511C, symBinAddr: 0x10000DD64, symSize: 0x28 }
  - { offsetInCU: 0x33495, offset: 0x4A63D, size: 0x8, addend: 0x0, symName: __ZNKSt3__111__move_loopINS_17_ClassicAlgPolicyEEclB7v160006INS_16reverse_iteratorIPP6SchemeEES8_S8_EENS_4pairIT_T1_EESA_T0_SB_, symObjAddr: 0x5434, symBinAddr: 0x10000E07C, symSize: 0xA0 }
  - { offsetInCU: 0x33500, offset: 0x4A6A8, size: 0x8, addend: 0x0, symName: __ZNSt3__18_IterOpsINS_17_ClassicAlgPolicyEE11__iter_moveB7v160006IRNS_16reverse_iteratorIPP6SchemeEEEENS_9enable_ifIXsr12is_referenceIDTdeclsr3stdE7declvalIRT_EEEEE5valueEDTclsr3stdE4movedeclsr3stdE7declvalISC_EEEEE4typeEOSB_, symObjAddr: 0x5668, symBinAddr: 0x10000E2B0, symSize: 0x28 }
  - { offsetInCU: 0x3352C, offset: 0x4A6D4, size: 0x8, addend: 0x0, symName: __ZNKSt3__116reverse_iteratorIPP6SchemeEdeB7v160006Ev, symObjAddr: 0x5690, symBinAddr: 0x10000E2D8, symSize: 0x28 }
  - { offsetInCU: 0x33560, offset: 0x4A708, size: 0x8, addend: 0x0, symName: __ZNSt3__116reverse_iteratorIPP6SchemeEppB7v160006Ev, symObjAddr: 0x56B8, symBinAddr: 0x10000E300, symSize: 0x20 }
  - { offsetInCU: 0x33586, offset: 0x4A72E, size: 0x8, addend: 0x0, symName: __ZNSt3__18_IterOpsINS_17_ClassicAlgPolicyEE25__validate_iter_referenceB7v160006IRNS_16reverse_iteratorIPP6SchemeEEEEvv, symObjAddr: 0x56D8, symBinAddr: 0x10000E320, symSize: 0x4 }
  - { offsetInCU: 0x335A4, offset: 0x4A74C, size: 0x8, addend: 0x0, symName: __ZNSt3__118__unwrap_iter_implINS_16reverse_iteratorIPP6SchemeEELb0EE8__unwrapB7v160006ES5_, symObjAddr: 0x56DC, symBinAddr: 0x10000E324, symSize: 0x24 }
  - { offsetInCU: 0x335CC, offset: 0x4A774, size: 0x8, addend: 0x0, symName: __ZNSt3__14pairINS_16reverse_iteratorIPP6SchemeEES5_EC1B7v160006IS5_S5_LPv0EEEOT_OT0_, symObjAddr: 0x5700, symBinAddr: 0x10000E348, symSize: 0x3C }
  - { offsetInCU: 0x3362A, offset: 0x4A7D2, size: 0x8, addend: 0x0, symName: __ZNSt3__14pairINS_16reverse_iteratorIPP6SchemeEES5_EC2B7v160006IS5_S5_LPv0EEEOT_OT0_, symObjAddr: 0x573C, symBinAddr: 0x10000E384, symSize: 0x34 }
  - { offsetInCU: 0x33688, offset: 0x4A830, size: 0x8, addend: 0x0, symName: __ZNSt3__118__unwrap_iter_implINS_16reverse_iteratorIPP6SchemeEELb0EE8__rewrapB7v160006ES5_S5_, symObjAddr: 0x5770, symBinAddr: 0x10000E3B8, symSize: 0x2C }
  - { offsetInCU: 0x336B6, offset: 0x4A85E, size: 0x8, addend: 0x0, symName: __ZNSt3__116reverse_iteratorIPP6SchemeEC2B7v160006ES3_, symObjAddr: 0x579C, symBinAddr: 0x10000E3E4, symSize: 0x28 }
  - { offsetInCU: 0x336EE, offset: 0x4A896, size: 0x8, addend: 0x0, symName: __ZNSt3__114__split_bufferIP6SchemeRNS_9allocatorIS2_EEED2Ev, symObjAddr: 0x57C4, symBinAddr: 0x10000E40C, symSize: 0x8C }
  - { offsetInCU: 0x3371A, offset: 0x4A8C2, size: 0x8, addend: 0x0, symName: __ZNSt3__114__split_bufferIP6SchemeRNS_9allocatorIS2_EEE5clearB7v160006Ev, symObjAddr: 0x5850, symBinAddr: 0x10000E498, symSize: 0x28 }
  - { offsetInCU: 0x33740, offset: 0x4A8E8, size: 0x8, addend: 0x0, symName: __ZNSt3__116allocator_traitsINS_9allocatorIP6SchemeEEE10deallocateB7v160006ERS4_PS3_m, symObjAddr: 0x5878, symBinAddr: 0x10000E4C0, symSize: 0x34 }
  - { offsetInCU: 0x33782, offset: 0x4A92A, size: 0x8, addend: 0x0, symName: __ZNKSt3__114__split_bufferIP6SchemeRNS_9allocatorIS2_EEE8capacityB7v160006Ev, symObjAddr: 0x58AC, symBinAddr: 0x10000E4F4, symSize: 0x40 }
  - { offsetInCU: 0x337A8, offset: 0x4A950, size: 0x8, addend: 0x0, symName: __ZNSt3__114__split_bufferIP6SchemeRNS_9allocatorIS2_EEE17__destruct_at_endB7v160006EPS2_, symObjAddr: 0x58EC, symBinAddr: 0x10000E534, symSize: 0x2C }
  - { offsetInCU: 0x337DC, offset: 0x4A984, size: 0x8, addend: 0x0, symName: __ZNSt3__114__split_bufferIP6SchemeRNS_9allocatorIS2_EEE17__destruct_at_endB7v160006EPS2_NS_17integral_constantIbLb0EEE, symObjAddr: 0x5918, symBinAddr: 0x10000E560, symSize: 0x80 }
  - { offsetInCU: 0x3381D, offset: 0x4A9C5, size: 0x8, addend: 0x0, symName: __ZNSt3__116allocator_traitsINS_9allocatorIP6SchemeEEE7destroyB7v160006IS3_vEEvRS4_PT_, symObjAddr: 0x5998, symBinAddr: 0x10000E5E0, symSize: 0x2C }
  - { offsetInCU: 0x3385A, offset: 0x4AA02, size: 0x8, addend: 0x0, symName: __ZNSt3__19allocatorIP6SchemeE7destroyB7v160006EPS2_, symObjAddr: 0x59C4, symBinAddr: 0x10000E60C, symSize: 0x14 }
  - { offsetInCU: 0x3388E, offset: 0x4AA36, size: 0x8, addend: 0x0, symName: __ZNSt3__19allocatorIP6SchemeE10deallocateB7v160006EPS2_m, symObjAddr: 0x59D8, symBinAddr: 0x10000E620, symSize: 0x40 }
  - { offsetInCU: 0x338D0, offset: 0x4AA78, size: 0x8, addend: 0x0, symName: __ZNKSt3__114__split_bufferIP6SchemeRNS_9allocatorIS2_EEE9__end_capB7v160006Ev, symObjAddr: 0x5A18, symBinAddr: 0x10000E660, symSize: 0x28 }
  - { offsetInCU: 0x338F6, offset: 0x4AA9E, size: 0x8, addend: 0x0, symName: __ZNKSt3__117__compressed_pairIPP6SchemeRNS_9allocatorIS2_EEE5firstB7v160006Ev, symObjAddr: 0x5A40, symBinAddr: 0x10000E688, symSize: 0x24 }
  - { offsetInCU: 0x3391C, offset: 0x4AAC4, size: 0x8, addend: 0x0, symName: __ZN6SchemeC2ER5Lexer, symObjAddr: 0x5A64, symBinAddr: 0x10000E6AC, symSize: 0x458 }
  - { offsetInCU: 0x33983, offset: 0x4AB2B, size: 0x8, addend: 0x0, symName: __ZNSt3__16vectorIP2IdNS_9allocatorIS2_EEEC1B7v160006Ev, symObjAddr: 0x5EBC, symBinAddr: 0x10000EB04, symSize: 0x2C }
  - { offsetInCU: 0x339AD, offset: 0x4AB55, size: 0x8, addend: 0x0, symName: __ZNSt3__16vectorIP2IdNS_9allocatorIS2_EEE9push_backB7v160006EOS2_, symObjAddr: 0x5EE8, symBinAddr: 0x10000EB30, symSize: 0x6C }
  - { offsetInCU: 0x339E4, offset: 0x4AB8C, size: 0x8, addend: 0x0, symName: __ZN2IdD1Ev, symObjAddr: 0x5F88, symBinAddr: 0x10000EB9C, symSize: 0x2C }
  - { offsetInCU: 0x33A10, offset: 0x4ABB8, size: 0x8, addend: 0x0, symName: __ZNKSt3__16vectorIP2IdNS_9allocatorIS2_EEE4sizeB7v160006Ev, symObjAddr: 0x5FB4, symBinAddr: 0x10000EBC8, symSize: 0x28 }
  - { offsetInCU: 0x33A36, offset: 0x4ABDE, size: 0x8, addend: 0x0, symName: __ZNSt3__16vectorIP2IdNS_9allocatorIS2_EEED1B7v160006Ev, symObjAddr: 0x5FDC, symBinAddr: 0x10000EBF0, symSize: 0x2C }
  - { offsetInCU: 0x33A60, offset: 0x4AC08, size: 0x8, addend: 0x0, symName: __ZNSt3__16vectorIP2IdNS_9allocatorIS2_EEEC2B7v160006Ev, symObjAddr: 0x6008, symBinAddr: 0x10000EC1C, symSize: 0x58 }
  - { offsetInCU: 0x33A8A, offset: 0x4AC32, size: 0x8, addend: 0x0, symName: __ZNSt3__117__compressed_pairIPP2IdNS_9allocatorIS2_EEEC1B7v160006IDnNS_18__default_init_tagEEEOT_OT0_, symObjAddr: 0x6060, symBinAddr: 0x10000EC74, symSize: 0x3C }
  - { offsetInCU: 0x33AE2, offset: 0x4AC8A, size: 0x8, addend: 0x0, symName: __ZNSt3__117__compressed_pairIPP2IdNS_9allocatorIS2_EEEC2B7v160006IDnNS_18__default_init_tagEEEOT_OT0_, symObjAddr: 0x60AC, symBinAddr: 0x10000ECC0, symSize: 0x40 }
  - { offsetInCU: 0x33B3A, offset: 0x4ACE2, size: 0x8, addend: 0x0, symName: __ZNSt3__122__compressed_pair_elemIPP2IdLi0ELb0EEC2B7v160006IDnvEEOT_, symObjAddr: 0x60EC, symBinAddr: 0x10000ED00, symSize: 0x1C }
  - { offsetInCU: 0x33B7C, offset: 0x4AD24, size: 0x8, addend: 0x0, symName: __ZNSt3__122__compressed_pair_elemINS_9allocatorIP2IdEELi1ELb1EEC2B7v160006ENS_18__default_init_tagE, symObjAddr: 0x6108, symBinAddr: 0x10000ED1C, symSize: 0x2C }
  - { offsetInCU: 0x33BB1, offset: 0x4AD59, size: 0x8, addend: 0x0, symName: __ZNSt3__19allocatorIP2IdEC2B7v160006Ev, symObjAddr: 0x6134, symBinAddr: 0x10000ED48, symSize: 0x2C }
  - { offsetInCU: 0x33BDB, offset: 0x4AD83, size: 0x8, addend: 0x0, symName: __ZNSt3__116__non_trivial_ifILb1ENS_9allocatorIP2IdEEEC2B7v160006Ev, symObjAddr: 0x6160, symBinAddr: 0x10000ED74, symSize: 0x14 }
  - { offsetInCU: 0x33C05, offset: 0x4ADAD, size: 0x8, addend: 0x0, symName: __ZNSt3__16vectorIP2IdNS_9allocatorIS2_EEE9__end_capB7v160006Ev, symObjAddr: 0x6174, symBinAddr: 0x10000ED88, symSize: 0x28 }
  - { offsetInCU: 0x33C30, offset: 0x4ADD8, size: 0x8, addend: 0x0, symName: __ZNSt3__16vectorIP2IdNS_9allocatorIS2_EEE22__construct_one_at_endB7v160006IJS2_EEEvDpOT_, symObjAddr: 0x619C, symBinAddr: 0x10000EDB0, symSize: 0x90 }
  - { offsetInCU: 0x33C7F, offset: 0x4AE27, size: 0x8, addend: 0x0, symName: __ZNSt3__16vectorIP2IdNS_9allocatorIS2_EEE21__push_back_slow_pathIS2_EEvOT_, symObjAddr: 0x622C, symBinAddr: 0x10000EE40, symSize: 0xD8 }
  - { offsetInCU: 0x33CDD, offset: 0x4AE85, size: 0x8, addend: 0x0, symName: __ZNSt3__117__compressed_pairIPP2IdNS_9allocatorIS2_EEE5firstB7v160006Ev, symObjAddr: 0x6304, symBinAddr: 0x10000EF18, symSize: 0x24 }
  - { offsetInCU: 0x33D03, offset: 0x4AEAB, size: 0x8, addend: 0x0, symName: __ZNSt3__122__compressed_pair_elemIPP2IdLi0ELb0EE5__getB7v160006Ev, symObjAddr: 0x6328, symBinAddr: 0x10000EF3C, symSize: 0x14 }
  - { offsetInCU: 0x33D42, offset: 0x4AEEA, size: 0x8, addend: 0x0, symName: __ZNSt3__16vectorIP2IdNS_9allocatorIS2_EEE21_ConstructTransactionC1B7v160006ERS5_m, symObjAddr: 0x633C, symBinAddr: 0x10000EF50, symSize: 0x3C }
  - { offsetInCU: 0x33D8A, offset: 0x4AF32, size: 0x8, addend: 0x0, symName: __ZNSt3__116allocator_traitsINS_9allocatorIP2IdEEE9constructB7v160006IS3_JS3_EvEEvRS4_PT_DpOT0_, symObjAddr: 0x6378, symBinAddr: 0x10000EF8C, symSize: 0x34 }
  - { offsetInCU: 0x33DE1, offset: 0x4AF89, size: 0x8, addend: 0x0, symName: __ZNSt3__16vectorIP2IdNS_9allocatorIS2_EEE7__allocB7v160006Ev, symObjAddr: 0x63AC, symBinAddr: 0x10000EFC0, symSize: 0x28 }
  - { offsetInCU: 0x33E07, offset: 0x4AFAF, size: 0x8, addend: 0x0, symName: __ZNSt3__16vectorIP2IdNS_9allocatorIS2_EEE21_ConstructTransactionD1B7v160006Ev, symObjAddr: 0x63E8, symBinAddr: 0x10000EFFC, symSize: 0x2C }
  - { offsetInCU: 0x33E31, offset: 0x4AFD9, size: 0x8, addend: 0x0, symName: __ZNSt3__16vectorIP2IdNS_9allocatorIS2_EEE21_ConstructTransactionC2B7v160006ERS5_m, symObjAddr: 0x6414, symBinAddr: 0x10000F028, symSize: 0x44 }
  - { offsetInCU: 0x33E79, offset: 0x4B021, size: 0x8, addend: 0x0, symName: __ZNSt3__19allocatorIP2IdE9constructB7v160006IS2_JS2_EEEvPT_DpOT0_, symObjAddr: 0x6458, symBinAddr: 0x10000F06C, symSize: 0x28 }
  - { offsetInCU: 0x33ECF, offset: 0x4B077, size: 0x8, addend: 0x0, symName: __ZNSt3__117__compressed_pairIPP2IdNS_9allocatorIS2_EEE6secondB7v160006Ev, symObjAddr: 0x6480, symBinAddr: 0x10000F094, symSize: 0x24 }
  - { offsetInCU: 0x33EF5, offset: 0x4B09D, size: 0x8, addend: 0x0, symName: __ZNSt3__122__compressed_pair_elemINS_9allocatorIP2IdEELi1ELb1EE5__getB7v160006Ev, symObjAddr: 0x64A4, symBinAddr: 0x10000F0B8, symSize: 0x14 }
  - { offsetInCU: 0x33F1B, offset: 0x4B0C3, size: 0x8, addend: 0x0, symName: __ZNSt3__16vectorIP2IdNS_9allocatorIS2_EEE21_ConstructTransactionD2B7v160006Ev, symObjAddr: 0x64B8, symBinAddr: 0x10000F0CC, symSize: 0x20 }
  - { offsetInCU: 0x33F45, offset: 0x4B0ED, size: 0x8, addend: 0x0, symName: __ZNKSt3__16vectorIP2IdNS_9allocatorIS2_EEE11__recommendB7v160006Em, symObjAddr: 0x64D8, symBinAddr: 0x10000F0EC, symSize: 0xB4 }
  - { offsetInCU: 0x33F9A, offset: 0x4B142, size: 0x8, addend: 0x0, symName: __ZNSt3__114__split_bufferIP2IdRNS_9allocatorIS2_EEEC1EmmS5_, symObjAddr: 0x658C, symBinAddr: 0x10000F1A0, symSize: 0x44 }
  - { offsetInCU: 0x33FF0, offset: 0x4B198, size: 0x8, addend: 0x0, symName: __ZNSt3__114__split_bufferIP2IdRNS_9allocatorIS2_EEED1Ev, symObjAddr: 0x66E8, symBinAddr: 0x10000F2FC, symSize: 0x2C }
  - { offsetInCU: 0x3401C, offset: 0x4B1C4, size: 0x8, addend: 0x0, symName: __ZNKSt3__16vectorIP2IdNS_9allocatorIS2_EEE8max_sizeEv, symObjAddr: 0x6714, symBinAddr: 0x10000F328, symSize: 0x60 }
  - { offsetInCU: 0x34044, offset: 0x4B1EC, size: 0x8, addend: 0x0, symName: __ZNKSt3__16vectorIP2IdNS_9allocatorIS2_EEE20__throw_length_errorB7v160006Ev, symObjAddr: 0x6774, symBinAddr: 0x10000F388, symSize: 0x1C }
  - { offsetInCU: 0x3406A, offset: 0x4B212, size: 0x8, addend: 0x0, symName: __ZNKSt3__16vectorIP2IdNS_9allocatorIS2_EEE8capacityB7v160006Ev, symObjAddr: 0x6790, symBinAddr: 0x10000F3A4, symSize: 0x40 }
  - { offsetInCU: 0x3409A, offset: 0x4B242, size: 0x8, addend: 0x0, symName: __ZNSt3__116allocator_traitsINS_9allocatorIP2IdEEE8max_sizeB7v160006IS4_vEEmRKS4_, symObjAddr: 0x67D0, symBinAddr: 0x10000F3E4, symSize: 0x24 }
  - { offsetInCU: 0x340C8, offset: 0x4B270, size: 0x8, addend: 0x0, symName: __ZNKSt3__16vectorIP2IdNS_9allocatorIS2_EEE7__allocB7v160006Ev, symObjAddr: 0x67F4, symBinAddr: 0x10000F408, symSize: 0x28 }
  - { offsetInCU: 0x340EE, offset: 0x4B296, size: 0x8, addend: 0x0, symName: __ZNKSt3__19allocatorIP2IdE8max_sizeB7v160006Ev, symObjAddr: 0x681C, symBinAddr: 0x10000F430, symSize: 0x14 }
  - { offsetInCU: 0x34114, offset: 0x4B2BC, size: 0x8, addend: 0x0, symName: __ZNKSt3__117__compressed_pairIPP2IdNS_9allocatorIS2_EEE6secondB7v160006Ev, symObjAddr: 0x6830, symBinAddr: 0x10000F444, symSize: 0x24 }
  - { offsetInCU: 0x3413A, offset: 0x4B2E2, size: 0x8, addend: 0x0, symName: __ZNKSt3__122__compressed_pair_elemINS_9allocatorIP2IdEELi1ELb1EE5__getB7v160006Ev, symObjAddr: 0x6854, symBinAddr: 0x10000F468, symSize: 0x14 }
  - { offsetInCU: 0x34160, offset: 0x4B308, size: 0x8, addend: 0x0, symName: __ZNKSt3__16vectorIP2IdNS_9allocatorIS2_EEE9__end_capB7v160006Ev, symObjAddr: 0x6868, symBinAddr: 0x10000F47C, symSize: 0x28 }
  - { offsetInCU: 0x34186, offset: 0x4B32E, size: 0x8, addend: 0x0, symName: __ZNKSt3__117__compressed_pairIPP2IdNS_9allocatorIS2_EEE5firstB7v160006Ev, symObjAddr: 0x6890, symBinAddr: 0x10000F4A4, symSize: 0x24 }
  - { offsetInCU: 0x341AC, offset: 0x4B354, size: 0x8, addend: 0x0, symName: __ZNKSt3__122__compressed_pair_elemIPP2IdLi0ELb0EE5__getB7v160006Ev, symObjAddr: 0x68B4, symBinAddr: 0x10000F4C8, symSize: 0x14 }
  - { offsetInCU: 0x341D2, offset: 0x4B37A, size: 0x8, addend: 0x0, symName: __ZNSt3__114__split_bufferIP2IdRNS_9allocatorIS2_EEEC2EmmS5_, symObjAddr: 0x68C8, symBinAddr: 0x10000F4DC, symSize: 0xD4 }
  - { offsetInCU: 0x34245, offset: 0x4B3ED, size: 0x8, addend: 0x0, symName: __ZNSt3__117__compressed_pairIPP2IdRNS_9allocatorIS2_EEEC1B7v160006IDnS6_EEOT_OT0_, symObjAddr: 0x699C, symBinAddr: 0x10000F5B0, symSize: 0x3C }
  - { offsetInCU: 0x3429D, offset: 0x4B445, size: 0x8, addend: 0x0, symName: __ZNSt3__114__split_bufferIP2IdRNS_9allocatorIS2_EEE7__allocB7v160006Ev, symObjAddr: 0x6A18, symBinAddr: 0x10000F62C, symSize: 0x28 }
  - { offsetInCU: 0x342C3, offset: 0x4B46B, size: 0x8, addend: 0x0, symName: __ZNSt3__114__split_bufferIP2IdRNS_9allocatorIS2_EEE9__end_capB7v160006Ev, symObjAddr: 0x6A40, symBinAddr: 0x10000F654, symSize: 0x28 }
  - { offsetInCU: 0x342E9, offset: 0x4B491, size: 0x8, addend: 0x0, symName: __ZNSt3__117__compressed_pairIPP2IdRNS_9allocatorIS2_EEEC2B7v160006IDnS6_EEOT_OT0_, symObjAddr: 0x6A68, symBinAddr: 0x10000F67C, symSize: 0x48 }
  - { offsetInCU: 0x34341, offset: 0x4B4E9, size: 0x8, addend: 0x0, symName: __ZNSt3__122__compressed_pair_elemIRNS_9allocatorIP2IdEELi1ELb0EEC2B7v160006IS5_vEEOT_, symObjAddr: 0x6AB0, symBinAddr: 0x10000F6C4, symSize: 0x20 }
  - { offsetInCU: 0x34383, offset: 0x4B52B, size: 0x8, addend: 0x0, symName: __ZNSt3__19allocatorIP2IdE8allocateB7v160006Em, symObjAddr: 0x6AD0, symBinAddr: 0x10000F6E4, symSize: 0x58 }
  - { offsetInCU: 0x343B7, offset: 0x4B55F, size: 0x8, addend: 0x0, symName: __ZNSt3__117__compressed_pairIPP2IdRNS_9allocatorIS2_EEE6secondB7v160006Ev, symObjAddr: 0x6B28, symBinAddr: 0x10000F73C, symSize: 0x28 }
  - { offsetInCU: 0x343DD, offset: 0x4B585, size: 0x8, addend: 0x0, symName: __ZNSt3__122__compressed_pair_elemIRNS_9allocatorIP2IdEELi1ELb0EE5__getB7v160006Ev, symObjAddr: 0x6B50, symBinAddr: 0x10000F764, symSize: 0x18 }
  - { offsetInCU: 0x34403, offset: 0x4B5AB, size: 0x8, addend: 0x0, symName: __ZNSt3__117__compressed_pairIPP2IdRNS_9allocatorIS2_EEE5firstB7v160006Ev, symObjAddr: 0x6B68, symBinAddr: 0x10000F77C, symSize: 0x24 }
  - { offsetInCU: 0x34429, offset: 0x4B5D1, size: 0x8, addend: 0x0, symName: __ZNKSt3__16vectorIP2IdNS_9allocatorIS2_EEE17__annotate_deleteB7v160006Ev, symObjAddr: 0x6B8C, symBinAddr: 0x10000F7A0, symSize: 0xB8 }
  - { offsetInCU: 0x3444F, offset: 0x4B5F7, size: 0x8, addend: 0x0, symName: __ZNSt3__116reverse_iteratorIPP2IdEC1B7v160006ES3_, symObjAddr: 0x6CBC, symBinAddr: 0x10000F8D0, symSize: 0x34 }
  - { offsetInCU: 0x34487, offset: 0x4B62F, size: 0x8, addend: 0x0, symName: __ZNKSt3__116reverse_iteratorIPP2IdE4baseB7v160006Ev, symObjAddr: 0x6CF0, symBinAddr: 0x10000F904, symSize: 0x18 }
  - { offsetInCU: 0x344AD, offset: 0x4B655, size: 0x8, addend: 0x0, symName: __ZNKSt3__16vectorIP2IdNS_9allocatorIS2_EEE14__annotate_newB7v160006Em, symObjAddr: 0x6D44, symBinAddr: 0x10000F958, symSize: 0xAC }
  - { offsetInCU: 0x344E2, offset: 0x4B68A, size: 0x8, addend: 0x0, symName: __ZNKSt3__16vectorIP2IdNS_9allocatorIS2_EEE31__annotate_contiguous_containerB7v160006EPKvS7_S7_S7_, symObjAddr: 0x6E00, symBinAddr: 0x10000FA14, symSize: 0x20 }
  - { offsetInCU: 0x34534, offset: 0x4B6DC, size: 0x8, addend: 0x0, symName: __ZNKSt3__16vectorIP2IdNS_9allocatorIS2_EEE4dataB7v160006Ev, symObjAddr: 0x6E20, symBinAddr: 0x10000FA34, symSize: 0x28 }
  - { offsetInCU: 0x34573, offset: 0x4B71B, size: 0x8, addend: 0x0, symName: __ZNKSt3__111__move_loopINS_17_ClassicAlgPolicyEEclB7v160006INS_16reverse_iteratorIPP2IdEES8_S8_EENS_4pairIT_T1_EESA_T0_SB_, symObjAddr: 0x7138, symBinAddr: 0x10000FD4C, symSize: 0xA0 }
  - { offsetInCU: 0x345DE, offset: 0x4B786, size: 0x8, addend: 0x0, symName: __ZNSt3__18_IterOpsINS_17_ClassicAlgPolicyEE11__iter_moveB7v160006IRNS_16reverse_iteratorIPP2IdEEEENS_9enable_ifIXsr12is_referenceIDTdeclsr3stdE7declvalIRT_EEEEE5valueEDTclsr3stdE4movedeclsr3stdE7declvalISC_EEEEE4typeEOSB_, symObjAddr: 0x736C, symBinAddr: 0x10000FF80, symSize: 0x28 }
  - { offsetInCU: 0x3460A, offset: 0x4B7B2, size: 0x8, addend: 0x0, symName: __ZNKSt3__116reverse_iteratorIPP2IdEdeB7v160006Ev, symObjAddr: 0x7394, symBinAddr: 0x10000FFA8, symSize: 0x28 }
  - { offsetInCU: 0x3463E, offset: 0x4B7E6, size: 0x8, addend: 0x0, symName: __ZNSt3__116reverse_iteratorIPP2IdEppB7v160006Ev, symObjAddr: 0x73BC, symBinAddr: 0x10000FFD0, symSize: 0x20 }
  - { offsetInCU: 0x34664, offset: 0x4B80C, size: 0x8, addend: 0x0, symName: __ZNSt3__18_IterOpsINS_17_ClassicAlgPolicyEE25__validate_iter_referenceB7v160006IRNS_16reverse_iteratorIPP2IdEEEEvv, symObjAddr: 0x73DC, symBinAddr: 0x10000FFF0, symSize: 0x4 }
  - { offsetInCU: 0x34682, offset: 0x4B82A, size: 0x8, addend: 0x0, symName: __ZNSt3__118__unwrap_iter_implINS_16reverse_iteratorIPP2IdEELb0EE8__unwrapB7v160006ES5_, symObjAddr: 0x73E0, symBinAddr: 0x10000FFF4, symSize: 0x24 }
  - { offsetInCU: 0x346AA, offset: 0x4B852, size: 0x8, addend: 0x0, symName: __ZNSt3__14pairINS_16reverse_iteratorIPP2IdEES5_EC1B7v160006IS5_S5_LPv0EEEOT_OT0_, symObjAddr: 0x7404, symBinAddr: 0x100010018, symSize: 0x3C }
  - { offsetInCU: 0x34708, offset: 0x4B8B0, size: 0x8, addend: 0x0, symName: __ZNSt3__14pairINS_16reverse_iteratorIPP2IdEES5_EC2B7v160006IS5_S5_LPv0EEEOT_OT0_, symObjAddr: 0x7440, symBinAddr: 0x100010054, symSize: 0x34 }
  - { offsetInCU: 0x34766, offset: 0x4B90E, size: 0x8, addend: 0x0, symName: __ZNSt3__118__unwrap_iter_implINS_16reverse_iteratorIPP2IdEELb0EE8__rewrapB7v160006ES5_S5_, symObjAddr: 0x7474, symBinAddr: 0x100010088, symSize: 0x2C }
  - { offsetInCU: 0x34794, offset: 0x4B93C, size: 0x8, addend: 0x0, symName: __ZNSt3__116reverse_iteratorIPP2IdEC2B7v160006ES3_, symObjAddr: 0x74A0, symBinAddr: 0x1000100B4, symSize: 0x28 }
  - { offsetInCU: 0x347CC, offset: 0x4B974, size: 0x8, addend: 0x0, symName: __ZNSt3__114__split_bufferIP2IdRNS_9allocatorIS2_EEED2Ev, symObjAddr: 0x74C8, symBinAddr: 0x1000100DC, symSize: 0x8C }
  - { offsetInCU: 0x347F8, offset: 0x4B9A0, size: 0x8, addend: 0x0, symName: __ZNSt3__114__split_bufferIP2IdRNS_9allocatorIS2_EEE5clearB7v160006Ev, symObjAddr: 0x7554, symBinAddr: 0x100010168, symSize: 0x28 }
  - { offsetInCU: 0x3481E, offset: 0x4B9C6, size: 0x8, addend: 0x0, symName: __ZNSt3__116allocator_traitsINS_9allocatorIP2IdEEE10deallocateB7v160006ERS4_PS3_m, symObjAddr: 0x757C, symBinAddr: 0x100010190, symSize: 0x34 }
  - { offsetInCU: 0x34860, offset: 0x4BA08, size: 0x8, addend: 0x0, symName: __ZNKSt3__114__split_bufferIP2IdRNS_9allocatorIS2_EEE8capacityB7v160006Ev, symObjAddr: 0x75B0, symBinAddr: 0x1000101C4, symSize: 0x40 }
  - { offsetInCU: 0x34886, offset: 0x4BA2E, size: 0x8, addend: 0x0, symName: __ZNSt3__114__split_bufferIP2IdRNS_9allocatorIS2_EEE17__destruct_at_endB7v160006EPS2_, symObjAddr: 0x75F0, symBinAddr: 0x100010204, symSize: 0x2C }
  - { offsetInCU: 0x348BA, offset: 0x4BA62, size: 0x8, addend: 0x0, symName: __ZNSt3__114__split_bufferIP2IdRNS_9allocatorIS2_EEE17__destruct_at_endB7v160006EPS2_NS_17integral_constantIbLb0EEE, symObjAddr: 0x761C, symBinAddr: 0x100010230, symSize: 0x80 }
  - { offsetInCU: 0x348FB, offset: 0x4BAA3, size: 0x8, addend: 0x0, symName: __ZNSt3__116allocator_traitsINS_9allocatorIP2IdEEE7destroyB7v160006IS3_vEEvRS4_PT_, symObjAddr: 0x769C, symBinAddr: 0x1000102B0, symSize: 0x2C }
  - { offsetInCU: 0x34938, offset: 0x4BAE0, size: 0x8, addend: 0x0, symName: __ZNSt3__19allocatorIP2IdE7destroyB7v160006EPS2_, symObjAddr: 0x76C8, symBinAddr: 0x1000102DC, symSize: 0x14 }
  - { offsetInCU: 0x3496C, offset: 0x4BB14, size: 0x8, addend: 0x0, symName: __ZNSt3__19allocatorIP2IdE10deallocateB7v160006EPS2_m, symObjAddr: 0x76DC, symBinAddr: 0x1000102F0, symSize: 0x40 }
  - { offsetInCU: 0x349AE, offset: 0x4BB56, size: 0x8, addend: 0x0, symName: __ZNKSt3__114__split_bufferIP2IdRNS_9allocatorIS2_EEE9__end_capB7v160006Ev, symObjAddr: 0x771C, symBinAddr: 0x100010330, symSize: 0x28 }
  - { offsetInCU: 0x349D4, offset: 0x4BB7C, size: 0x8, addend: 0x0, symName: __ZNKSt3__117__compressed_pairIPP2IdRNS_9allocatorIS2_EEE5firstB7v160006Ev, symObjAddr: 0x7744, symBinAddr: 0x100010358, symSize: 0x24 }
  - { offsetInCU: 0x349FA, offset: 0x4BBA2, size: 0x8, addend: 0x0, symName: __ZN2IdD2Ev, symObjAddr: 0x7768, symBinAddr: 0x10001037C, symSize: 0x2C }
  - { offsetInCU: 0x34A26, offset: 0x4BBCE, size: 0x8, addend: 0x0, symName: __ZNSt3__16vectorIP2IdNS_9allocatorIS2_EEED2B7v160006Ev, symObjAddr: 0x7794, symBinAddr: 0x1000103A8, symSize: 0x44 }
  - { offsetInCU: 0x34A50, offset: 0x4BBF8, size: 0x8, addend: 0x0, symName: __ZNSt3__16vectorIP2IdNS_9allocatorIS2_EEE16__destroy_vectorC1ERS5_, symObjAddr: 0x77D8, symBinAddr: 0x1000103EC, symSize: 0x34 }
  - { offsetInCU: 0x34A89, offset: 0x4BC31, size: 0x8, addend: 0x0, symName: __ZNSt3__16vectorIP2IdNS_9allocatorIS2_EEE16__destroy_vectorclB7v160006Ev, symObjAddr: 0x780C, symBinAddr: 0x100010420, symSize: 0x9C }
  - { offsetInCU: 0x34AAF, offset: 0x4BC57, size: 0x8, addend: 0x0, symName: __ZNSt3__16vectorIP2IdNS_9allocatorIS2_EEE16__destroy_vectorC2ERS5_, symObjAddr: 0x78A8, symBinAddr: 0x1000104BC, symSize: 0x20 }
  - { offsetInCU: 0x34AE8, offset: 0x4BC90, size: 0x8, addend: 0x0, symName: __ZNSt3__16vectorIP2IdNS_9allocatorIS2_EEE7__clearB7v160006Ev, symObjAddr: 0x78D8, symBinAddr: 0x1000104EC, symSize: 0x28 }
  - { offsetInCU: 0x34B0E, offset: 0x4BCB6, size: 0x8, addend: 0x0, symName: __ZNSt3__16vectorIP2IdNS_9allocatorIS2_EEE22__base_destruct_at_endB7v160006EPS2_, symObjAddr: 0x7900, symBinAddr: 0x100010514, symSize: 0x8C }
  - { offsetInCU: 0x34B52, offset: 0x4BCFA, size: 0x8, addend: 0x0, symName: __ZNKSt3__16vectorIP6SchemeNS_9allocatorIS2_EEE20__throw_out_of_rangeB7v160006Ev, symObjAddr: 0x798C, symBinAddr: 0x1000105A0, symSize: 0x1C }
  - { offsetInCU: 0x34B78, offset: 0x4BD20, size: 0x8, addend: 0x0, symName: __ZN6SchemeD2Ev, symObjAddr: 0x7A8C, symBinAddr: 0x1000105BC, symSize: 0x120 }
  - { offsetInCU: 0x34BB6, offset: 0x4BD5E, size: 0x8, addend: 0x0, symName: __ZNSt3__16vectorIP6SchemeNS_9allocatorIS2_EEED2B7v160006Ev, symObjAddr: 0x7BAC, symBinAddr: 0x1000106DC, symSize: 0x44 }
  - { offsetInCU: 0x34BE0, offset: 0x4BD88, size: 0x8, addend: 0x0, symName: __ZNSt3__16vectorIP6SchemeNS_9allocatorIS2_EEE16__destroy_vectorC1ERS5_, symObjAddr: 0x7BF0, symBinAddr: 0x100010720, symSize: 0x34 }
  - { offsetInCU: 0x34C19, offset: 0x4BDC1, size: 0x8, addend: 0x0, symName: __ZNSt3__16vectorIP6SchemeNS_9allocatorIS2_EEE16__destroy_vectorclB7v160006Ev, symObjAddr: 0x7C24, symBinAddr: 0x100010754, symSize: 0x9C }
  - { offsetInCU: 0x34C3F, offset: 0x4BDE7, size: 0x8, addend: 0x0, symName: __ZNSt3__16vectorIP6SchemeNS_9allocatorIS2_EEE16__destroy_vectorC2ERS5_, symObjAddr: 0x7CC0, symBinAddr: 0x1000107F0, symSize: 0x20 }
  - { offsetInCU: 0x34C78, offset: 0x4BE20, size: 0x8, addend: 0x0, symName: __ZNSt3__16vectorIP6SchemeNS_9allocatorIS2_EEE7__clearB7v160006Ev, symObjAddr: 0x7CF0, symBinAddr: 0x100010820, symSize: 0x28 }
  - { offsetInCU: 0x34C9E, offset: 0x4BE46, size: 0x8, addend: 0x0, symName: __ZNSt3__16vectorIP6SchemeNS_9allocatorIS2_EEE22__base_destruct_at_endB7v160006EPS2_, symObjAddr: 0x7D18, symBinAddr: 0x100010848, symSize: 0x8C }
  - { offsetInCU: 0x34CE2, offset: 0x4BE8A, size: 0x8, addend: 0x0, symName: __ZN5FactsC2ER5Lexer, symObjAddr: 0x7DA4, symBinAddr: 0x1000108D4, symSize: 0x3A0 }
  - { offsetInCU: 0x34D41, offset: 0x4BEE9, size: 0x8, addend: 0x0, symName: __ZNSt3__16vectorIP4FactNS_9allocatorIS2_EEEC1B7v160006Ev, symObjAddr: 0x8144, symBinAddr: 0x100010C74, symSize: 0x2C }
  - { offsetInCU: 0x34D6B, offset: 0x4BF13, size: 0x8, addend: 0x0, symName: __ZNSt3__16vectorIP4FactNS_9allocatorIS2_EEE9push_backB7v160006EOS2_, symObjAddr: 0x8170, symBinAddr: 0x100010CA0, symSize: 0x6C }
  - { offsetInCU: 0x34DA2, offset: 0x4BF4A, size: 0x8, addend: 0x0, symName: __ZN4FactC1ER5Lexer, symObjAddr: 0x81DC, symBinAddr: 0x100010D0C, symSize: 0x34 }
  - { offsetInCU: 0x34DDA, offset: 0x4BF82, size: 0x8, addend: 0x0, symName: __ZNKSt3__16vectorIP4FactNS_9allocatorIS2_EEE4sizeB7v160006Ev, symObjAddr: 0x8210, symBinAddr: 0x100010D40, symSize: 0x28 }
  - { offsetInCU: 0x34E00, offset: 0x4BFA8, size: 0x8, addend: 0x0, symName: __ZNSt3__16vectorIP4FactNS_9allocatorIS2_EEE2atEm, symObjAddr: 0x8238, symBinAddr: 0x100010D68, symSize: 0x60 }
  - { offsetInCU: 0x34E37, offset: 0x4BFDF, size: 0x8, addend: 0x0, symName: __ZN4FactD1Ev, symObjAddr: 0x8298, symBinAddr: 0x100010DC8, symSize: 0x2C }
  - { offsetInCU: 0x34E61, offset: 0x4C009, size: 0x8, addend: 0x0, symName: __ZNSt3__16vectorIP4FactNS_9allocatorIS2_EEED1B7v160006Ev, symObjAddr: 0x82C4, symBinAddr: 0x100010DF4, symSize: 0x2C }
  - { offsetInCU: 0x34E8B, offset: 0x4C033, size: 0x8, addend: 0x0, symName: __ZNSt3__16vectorIP4FactNS_9allocatorIS2_EEEC2B7v160006Ev, symObjAddr: 0x82F0, symBinAddr: 0x100010E20, symSize: 0x58 }
  - { offsetInCU: 0x34EB5, offset: 0x4C05D, size: 0x8, addend: 0x0, symName: __ZNSt3__117__compressed_pairIPP4FactNS_9allocatorIS2_EEEC1B7v160006IDnNS_18__default_init_tagEEEOT_OT0_, symObjAddr: 0x8348, symBinAddr: 0x100010E78, symSize: 0x3C }
  - { offsetInCU: 0x34F0D, offset: 0x4C0B5, size: 0x8, addend: 0x0, symName: __ZNSt3__117__compressed_pairIPP4FactNS_9allocatorIS2_EEEC2B7v160006IDnNS_18__default_init_tagEEEOT_OT0_, symObjAddr: 0x8394, symBinAddr: 0x100010EC4, symSize: 0x40 }
  - { offsetInCU: 0x34F65, offset: 0x4C10D, size: 0x8, addend: 0x0, symName: __ZNSt3__122__compressed_pair_elemIPP4FactLi0ELb0EEC2B7v160006IDnvEEOT_, symObjAddr: 0x83D4, symBinAddr: 0x100010F04, symSize: 0x1C }
  - { offsetInCU: 0x34FA7, offset: 0x4C14F, size: 0x8, addend: 0x0, symName: __ZNSt3__122__compressed_pair_elemINS_9allocatorIP4FactEELi1ELb1EEC2B7v160006ENS_18__default_init_tagE, symObjAddr: 0x83F0, symBinAddr: 0x100010F20, symSize: 0x2C }
  - { offsetInCU: 0x34FDC, offset: 0x4C184, size: 0x8, addend: 0x0, symName: __ZNSt3__19allocatorIP4FactEC2B7v160006Ev, symObjAddr: 0x841C, symBinAddr: 0x100010F4C, symSize: 0x2C }
  - { offsetInCU: 0x35006, offset: 0x4C1AE, size: 0x8, addend: 0x0, symName: __ZNSt3__116__non_trivial_ifILb1ENS_9allocatorIP4FactEEEC2B7v160006Ev, symObjAddr: 0x8448, symBinAddr: 0x100010F78, symSize: 0x14 }
  - { offsetInCU: 0x35030, offset: 0x4C1D8, size: 0x8, addend: 0x0, symName: __ZNSt3__16vectorIP4FactNS_9allocatorIS2_EEE9__end_capB7v160006Ev, symObjAddr: 0x845C, symBinAddr: 0x100010F8C, symSize: 0x28 }
  - { offsetInCU: 0x3505B, offset: 0x4C203, size: 0x8, addend: 0x0, symName: __ZNSt3__16vectorIP4FactNS_9allocatorIS2_EEE22__construct_one_at_endB7v160006IJS2_EEEvDpOT_, symObjAddr: 0x8484, symBinAddr: 0x100010FB4, symSize: 0x90 }
  - { offsetInCU: 0x350AA, offset: 0x4C252, size: 0x8, addend: 0x0, symName: __ZNSt3__16vectorIP4FactNS_9allocatorIS2_EEE21__push_back_slow_pathIS2_EEvOT_, symObjAddr: 0x8514, symBinAddr: 0x100011044, symSize: 0xD8 }
  - { offsetInCU: 0x35108, offset: 0x4C2B0, size: 0x8, addend: 0x0, symName: __ZNSt3__117__compressed_pairIPP4FactNS_9allocatorIS2_EEE5firstB7v160006Ev, symObjAddr: 0x85EC, symBinAddr: 0x10001111C, symSize: 0x24 }
  - { offsetInCU: 0x3512E, offset: 0x4C2D6, size: 0x8, addend: 0x0, symName: __ZNSt3__122__compressed_pair_elemIPP4FactLi0ELb0EE5__getB7v160006Ev, symObjAddr: 0x8610, symBinAddr: 0x100011140, symSize: 0x14 }
  - { offsetInCU: 0x3516D, offset: 0x4C315, size: 0x8, addend: 0x0, symName: __ZNSt3__16vectorIP4FactNS_9allocatorIS2_EEE21_ConstructTransactionC1B7v160006ERS5_m, symObjAddr: 0x8624, symBinAddr: 0x100011154, symSize: 0x3C }
  - { offsetInCU: 0x351B5, offset: 0x4C35D, size: 0x8, addend: 0x0, symName: __ZNSt3__116allocator_traitsINS_9allocatorIP4FactEEE9constructB7v160006IS3_JS3_EvEEvRS4_PT_DpOT0_, symObjAddr: 0x8660, symBinAddr: 0x100011190, symSize: 0x34 }
  - { offsetInCU: 0x3520C, offset: 0x4C3B4, size: 0x8, addend: 0x0, symName: __ZNSt3__16vectorIP4FactNS_9allocatorIS2_EEE7__allocB7v160006Ev, symObjAddr: 0x8694, symBinAddr: 0x1000111C4, symSize: 0x28 }
  - { offsetInCU: 0x35232, offset: 0x4C3DA, size: 0x8, addend: 0x0, symName: __ZNSt3__16vectorIP4FactNS_9allocatorIS2_EEE21_ConstructTransactionD1B7v160006Ev, symObjAddr: 0x86D0, symBinAddr: 0x100011200, symSize: 0x2C }
  - { offsetInCU: 0x3525C, offset: 0x4C404, size: 0x8, addend: 0x0, symName: __ZNSt3__16vectorIP4FactNS_9allocatorIS2_EEE21_ConstructTransactionC2B7v160006ERS5_m, symObjAddr: 0x86FC, symBinAddr: 0x10001122C, symSize: 0x44 }
  - { offsetInCU: 0x352A4, offset: 0x4C44C, size: 0x8, addend: 0x0, symName: __ZNSt3__19allocatorIP4FactE9constructB7v160006IS2_JS2_EEEvPT_DpOT0_, symObjAddr: 0x8740, symBinAddr: 0x100011270, symSize: 0x28 }
  - { offsetInCU: 0x352FA, offset: 0x4C4A2, size: 0x8, addend: 0x0, symName: __ZNSt3__117__compressed_pairIPP4FactNS_9allocatorIS2_EEE6secondB7v160006Ev, symObjAddr: 0x8768, symBinAddr: 0x100011298, symSize: 0x24 }
  - { offsetInCU: 0x35320, offset: 0x4C4C8, size: 0x8, addend: 0x0, symName: __ZNSt3__122__compressed_pair_elemINS_9allocatorIP4FactEELi1ELb1EE5__getB7v160006Ev, symObjAddr: 0x878C, symBinAddr: 0x1000112BC, symSize: 0x14 }
  - { offsetInCU: 0x35346, offset: 0x4C4EE, size: 0x8, addend: 0x0, symName: __ZNSt3__16vectorIP4FactNS_9allocatorIS2_EEE21_ConstructTransactionD2B7v160006Ev, symObjAddr: 0x87A0, symBinAddr: 0x1000112D0, symSize: 0x20 }
  - { offsetInCU: 0x35370, offset: 0x4C518, size: 0x8, addend: 0x0, symName: __ZNKSt3__16vectorIP4FactNS_9allocatorIS2_EEE11__recommendB7v160006Em, symObjAddr: 0x87C0, symBinAddr: 0x1000112F0, symSize: 0xB4 }
  - { offsetInCU: 0x353C5, offset: 0x4C56D, size: 0x8, addend: 0x0, symName: __ZNSt3__114__split_bufferIP4FactRNS_9allocatorIS2_EEEC1EmmS5_, symObjAddr: 0x8874, symBinAddr: 0x1000113A4, symSize: 0x44 }
  - { offsetInCU: 0x3541B, offset: 0x4C5C3, size: 0x8, addend: 0x0, symName: __ZNSt3__114__split_bufferIP4FactRNS_9allocatorIS2_EEED1Ev, symObjAddr: 0x89D0, symBinAddr: 0x100011500, symSize: 0x2C }
  - { offsetInCU: 0x35447, offset: 0x4C5EF, size: 0x8, addend: 0x0, symName: __ZNKSt3__16vectorIP4FactNS_9allocatorIS2_EEE8max_sizeEv, symObjAddr: 0x89FC, symBinAddr: 0x10001152C, symSize: 0x60 }
  - { offsetInCU: 0x3546F, offset: 0x4C617, size: 0x8, addend: 0x0, symName: __ZNKSt3__16vectorIP4FactNS_9allocatorIS2_EEE20__throw_length_errorB7v160006Ev, symObjAddr: 0x8A5C, symBinAddr: 0x10001158C, symSize: 0x1C }
  - { offsetInCU: 0x35495, offset: 0x4C63D, size: 0x8, addend: 0x0, symName: __ZNKSt3__16vectorIP4FactNS_9allocatorIS2_EEE8capacityB7v160006Ev, symObjAddr: 0x8A78, symBinAddr: 0x1000115A8, symSize: 0x40 }
  - { offsetInCU: 0x354C5, offset: 0x4C66D, size: 0x8, addend: 0x0, symName: __ZNSt3__116allocator_traitsINS_9allocatorIP4FactEEE8max_sizeB7v160006IS4_vEEmRKS4_, symObjAddr: 0x8AB8, symBinAddr: 0x1000115E8, symSize: 0x24 }
  - { offsetInCU: 0x354F3, offset: 0x4C69B, size: 0x8, addend: 0x0, symName: __ZNKSt3__16vectorIP4FactNS_9allocatorIS2_EEE7__allocB7v160006Ev, symObjAddr: 0x8ADC, symBinAddr: 0x10001160C, symSize: 0x28 }
  - { offsetInCU: 0x35519, offset: 0x4C6C1, size: 0x8, addend: 0x0, symName: __ZNKSt3__19allocatorIP4FactE8max_sizeB7v160006Ev, symObjAddr: 0x8B04, symBinAddr: 0x100011634, symSize: 0x14 }
  - { offsetInCU: 0x3553F, offset: 0x4C6E7, size: 0x8, addend: 0x0, symName: __ZNKSt3__117__compressed_pairIPP4FactNS_9allocatorIS2_EEE6secondB7v160006Ev, symObjAddr: 0x8B18, symBinAddr: 0x100011648, symSize: 0x24 }
  - { offsetInCU: 0x35565, offset: 0x4C70D, size: 0x8, addend: 0x0, symName: __ZNKSt3__122__compressed_pair_elemINS_9allocatorIP4FactEELi1ELb1EE5__getB7v160006Ev, symObjAddr: 0x8B3C, symBinAddr: 0x10001166C, symSize: 0x14 }
  - { offsetInCU: 0x3558B, offset: 0x4C733, size: 0x8, addend: 0x0, symName: __ZNKSt3__16vectorIP4FactNS_9allocatorIS2_EEE9__end_capB7v160006Ev, symObjAddr: 0x8B50, symBinAddr: 0x100011680, symSize: 0x28 }
  - { offsetInCU: 0x355B1, offset: 0x4C759, size: 0x8, addend: 0x0, symName: __ZNKSt3__117__compressed_pairIPP4FactNS_9allocatorIS2_EEE5firstB7v160006Ev, symObjAddr: 0x8B78, symBinAddr: 0x1000116A8, symSize: 0x24 }
  - { offsetInCU: 0x355D7, offset: 0x4C77F, size: 0x8, addend: 0x0, symName: __ZNKSt3__122__compressed_pair_elemIPP4FactLi0ELb0EE5__getB7v160006Ev, symObjAddr: 0x8B9C, symBinAddr: 0x1000116CC, symSize: 0x14 }
  - { offsetInCU: 0x355FD, offset: 0x4C7A5, size: 0x8, addend: 0x0, symName: __ZNSt3__114__split_bufferIP4FactRNS_9allocatorIS2_EEEC2EmmS5_, symObjAddr: 0x8BB0, symBinAddr: 0x1000116E0, symSize: 0xD4 }
  - { offsetInCU: 0x35670, offset: 0x4C818, size: 0x8, addend: 0x0, symName: __ZNSt3__117__compressed_pairIPP4FactRNS_9allocatorIS2_EEEC1B7v160006IDnS6_EEOT_OT0_, symObjAddr: 0x8C84, symBinAddr: 0x1000117B4, symSize: 0x3C }
  - { offsetInCU: 0x356C8, offset: 0x4C870, size: 0x8, addend: 0x0, symName: __ZNSt3__114__split_bufferIP4FactRNS_9allocatorIS2_EEE7__allocB7v160006Ev, symObjAddr: 0x8D00, symBinAddr: 0x100011830, symSize: 0x28 }
  - { offsetInCU: 0x356EE, offset: 0x4C896, size: 0x8, addend: 0x0, symName: __ZNSt3__114__split_bufferIP4FactRNS_9allocatorIS2_EEE9__end_capB7v160006Ev, symObjAddr: 0x8D28, symBinAddr: 0x100011858, symSize: 0x28 }
  - { offsetInCU: 0x35714, offset: 0x4C8BC, size: 0x8, addend: 0x0, symName: __ZNSt3__117__compressed_pairIPP4FactRNS_9allocatorIS2_EEEC2B7v160006IDnS6_EEOT_OT0_, symObjAddr: 0x8D50, symBinAddr: 0x100011880, symSize: 0x48 }
  - { offsetInCU: 0x3576C, offset: 0x4C914, size: 0x8, addend: 0x0, symName: __ZNSt3__122__compressed_pair_elemIRNS_9allocatorIP4FactEELi1ELb0EEC2B7v160006IS5_vEEOT_, symObjAddr: 0x8D98, symBinAddr: 0x1000118C8, symSize: 0x20 }
  - { offsetInCU: 0x357AE, offset: 0x4C956, size: 0x8, addend: 0x0, symName: __ZNSt3__19allocatorIP4FactE8allocateB7v160006Em, symObjAddr: 0x8DB8, symBinAddr: 0x1000118E8, symSize: 0x58 }
  - { offsetInCU: 0x357E2, offset: 0x4C98A, size: 0x8, addend: 0x0, symName: __ZNSt3__117__compressed_pairIPP4FactRNS_9allocatorIS2_EEE6secondB7v160006Ev, symObjAddr: 0x8E10, symBinAddr: 0x100011940, symSize: 0x28 }
  - { offsetInCU: 0x35808, offset: 0x4C9B0, size: 0x8, addend: 0x0, symName: __ZNSt3__122__compressed_pair_elemIRNS_9allocatorIP4FactEELi1ELb0EE5__getB7v160006Ev, symObjAddr: 0x8E38, symBinAddr: 0x100011968, symSize: 0x18 }
  - { offsetInCU: 0x3582E, offset: 0x4C9D6, size: 0x8, addend: 0x0, symName: __ZNSt3__117__compressed_pairIPP4FactRNS_9allocatorIS2_EEE5firstB7v160006Ev, symObjAddr: 0x8E50, symBinAddr: 0x100011980, symSize: 0x24 }
  - { offsetInCU: 0x35854, offset: 0x4C9FC, size: 0x8, addend: 0x0, symName: __ZNKSt3__16vectorIP4FactNS_9allocatorIS2_EEE17__annotate_deleteB7v160006Ev, symObjAddr: 0x8E74, symBinAddr: 0x1000119A4, symSize: 0xB8 }
  - { offsetInCU: 0x3587A, offset: 0x4CA22, size: 0x8, addend: 0x0, symName: __ZNSt3__116reverse_iteratorIPP4FactEC1B7v160006ES3_, symObjAddr: 0x8FA4, symBinAddr: 0x100011AD4, symSize: 0x34 }
  - { offsetInCU: 0x358B2, offset: 0x4CA5A, size: 0x8, addend: 0x0, symName: __ZNKSt3__116reverse_iteratorIPP4FactE4baseB7v160006Ev, symObjAddr: 0x8FD8, symBinAddr: 0x100011B08, symSize: 0x18 }
  - { offsetInCU: 0x358D8, offset: 0x4CA80, size: 0x8, addend: 0x0, symName: __ZNKSt3__16vectorIP4FactNS_9allocatorIS2_EEE14__annotate_newB7v160006Em, symObjAddr: 0x902C, symBinAddr: 0x100011B5C, symSize: 0xAC }
  - { offsetInCU: 0x3590D, offset: 0x4CAB5, size: 0x8, addend: 0x0, symName: __ZNKSt3__16vectorIP4FactNS_9allocatorIS2_EEE31__annotate_contiguous_containerB7v160006EPKvS7_S7_S7_, symObjAddr: 0x90E8, symBinAddr: 0x100011C18, symSize: 0x20 }
  - { offsetInCU: 0x3595F, offset: 0x4CB07, size: 0x8, addend: 0x0, symName: __ZNKSt3__16vectorIP4FactNS_9allocatorIS2_EEE4dataB7v160006Ev, symObjAddr: 0x9108, symBinAddr: 0x100011C38, symSize: 0x28 }
  - { offsetInCU: 0x3599E, offset: 0x4CB46, size: 0x8, addend: 0x0, symName: __ZNKSt3__111__move_loopINS_17_ClassicAlgPolicyEEclB7v160006INS_16reverse_iteratorIPP4FactEES8_S8_EENS_4pairIT_T1_EESA_T0_SB_, symObjAddr: 0x9420, symBinAddr: 0x100011F50, symSize: 0xA0 }
  - { offsetInCU: 0x35A09, offset: 0x4CBB1, size: 0x8, addend: 0x0, symName: __ZNSt3__18_IterOpsINS_17_ClassicAlgPolicyEE11__iter_moveB7v160006IRNS_16reverse_iteratorIPP4FactEEEENS_9enable_ifIXsr12is_referenceIDTdeclsr3stdE7declvalIRT_EEEEE5valueEDTclsr3stdE4movedeclsr3stdE7declvalISC_EEEEE4typeEOSB_, symObjAddr: 0x9654, symBinAddr: 0x100012184, symSize: 0x28 }
  - { offsetInCU: 0x35A35, offset: 0x4CBDD, size: 0x8, addend: 0x0, symName: __ZNKSt3__116reverse_iteratorIPP4FactEdeB7v160006Ev, symObjAddr: 0x967C, symBinAddr: 0x1000121AC, symSize: 0x28 }
  - { offsetInCU: 0x35A69, offset: 0x4CC11, size: 0x8, addend: 0x0, symName: __ZNSt3__116reverse_iteratorIPP4FactEppB7v160006Ev, symObjAddr: 0x96A4, symBinAddr: 0x1000121D4, symSize: 0x20 }
  - { offsetInCU: 0x35A8F, offset: 0x4CC37, size: 0x8, addend: 0x0, symName: __ZNSt3__18_IterOpsINS_17_ClassicAlgPolicyEE25__validate_iter_referenceB7v160006IRNS_16reverse_iteratorIPP4FactEEEEvv, symObjAddr: 0x96C4, symBinAddr: 0x1000121F4, symSize: 0x4 }
  - { offsetInCU: 0x35AAD, offset: 0x4CC55, size: 0x8, addend: 0x0, symName: __ZNSt3__118__unwrap_iter_implINS_16reverse_iteratorIPP4FactEELb0EE8__unwrapB7v160006ES5_, symObjAddr: 0x96C8, symBinAddr: 0x1000121F8, symSize: 0x24 }
  - { offsetInCU: 0x35AD5, offset: 0x4CC7D, size: 0x8, addend: 0x0, symName: __ZNSt3__14pairINS_16reverse_iteratorIPP4FactEES5_EC1B7v160006IS5_S5_LPv0EEEOT_OT0_, symObjAddr: 0x96EC, symBinAddr: 0x10001221C, symSize: 0x3C }
  - { offsetInCU: 0x35B33, offset: 0x4CCDB, size: 0x8, addend: 0x0, symName: __ZNSt3__14pairINS_16reverse_iteratorIPP4FactEES5_EC2B7v160006IS5_S5_LPv0EEEOT_OT0_, symObjAddr: 0x9728, symBinAddr: 0x100012258, symSize: 0x34 }
  - { offsetInCU: 0x35B91, offset: 0x4CD39, size: 0x8, addend: 0x0, symName: __ZNSt3__118__unwrap_iter_implINS_16reverse_iteratorIPP4FactEELb0EE8__rewrapB7v160006ES5_S5_, symObjAddr: 0x975C, symBinAddr: 0x10001228C, symSize: 0x2C }
  - { offsetInCU: 0x35BBF, offset: 0x4CD67, size: 0x8, addend: 0x0, symName: __ZNSt3__116reverse_iteratorIPP4FactEC2B7v160006ES3_, symObjAddr: 0x9788, symBinAddr: 0x1000122B8, symSize: 0x28 }
  - { offsetInCU: 0x35BF7, offset: 0x4CD9F, size: 0x8, addend: 0x0, symName: __ZNSt3__114__split_bufferIP4FactRNS_9allocatorIS2_EEED2Ev, symObjAddr: 0x97B0, symBinAddr: 0x1000122E0, symSize: 0x8C }
  - { offsetInCU: 0x35C23, offset: 0x4CDCB, size: 0x8, addend: 0x0, symName: __ZNSt3__114__split_bufferIP4FactRNS_9allocatorIS2_EEE5clearB7v160006Ev, symObjAddr: 0x983C, symBinAddr: 0x10001236C, symSize: 0x28 }
  - { offsetInCU: 0x35C49, offset: 0x4CDF1, size: 0x8, addend: 0x0, symName: __ZNSt3__116allocator_traitsINS_9allocatorIP4FactEEE10deallocateB7v160006ERS4_PS3_m, symObjAddr: 0x9864, symBinAddr: 0x100012394, symSize: 0x34 }
  - { offsetInCU: 0x35C8B, offset: 0x4CE33, size: 0x8, addend: 0x0, symName: __ZNKSt3__114__split_bufferIP4FactRNS_9allocatorIS2_EEE8capacityB7v160006Ev, symObjAddr: 0x9898, symBinAddr: 0x1000123C8, symSize: 0x40 }
  - { offsetInCU: 0x35CB1, offset: 0x4CE59, size: 0x8, addend: 0x0, symName: __ZNSt3__114__split_bufferIP4FactRNS_9allocatorIS2_EEE17__destruct_at_endB7v160006EPS2_, symObjAddr: 0x98D8, symBinAddr: 0x100012408, symSize: 0x2C }
  - { offsetInCU: 0x35CE5, offset: 0x4CE8D, size: 0x8, addend: 0x0, symName: __ZNSt3__114__split_bufferIP4FactRNS_9allocatorIS2_EEE17__destruct_at_endB7v160006EPS2_NS_17integral_constantIbLb0EEE, symObjAddr: 0x9904, symBinAddr: 0x100012434, symSize: 0x80 }
  - { offsetInCU: 0x35D26, offset: 0x4CECE, size: 0x8, addend: 0x0, symName: __ZNSt3__116allocator_traitsINS_9allocatorIP4FactEEE7destroyB7v160006IS3_vEEvRS4_PT_, symObjAddr: 0x9984, symBinAddr: 0x1000124B4, symSize: 0x2C }
  - { offsetInCU: 0x35D63, offset: 0x4CF0B, size: 0x8, addend: 0x0, symName: __ZNSt3__19allocatorIP4FactE7destroyB7v160006EPS2_, symObjAddr: 0x99B0, symBinAddr: 0x1000124E0, symSize: 0x14 }
  - { offsetInCU: 0x35D97, offset: 0x4CF3F, size: 0x8, addend: 0x0, symName: __ZNSt3__19allocatorIP4FactE10deallocateB7v160006EPS2_m, symObjAddr: 0x99C4, symBinAddr: 0x1000124F4, symSize: 0x40 }
  - { offsetInCU: 0x35DD9, offset: 0x4CF81, size: 0x8, addend: 0x0, symName: __ZNKSt3__114__split_bufferIP4FactRNS_9allocatorIS2_EEE9__end_capB7v160006Ev, symObjAddr: 0x9A04, symBinAddr: 0x100012534, symSize: 0x28 }
  - { offsetInCU: 0x35DFF, offset: 0x4CFA7, size: 0x8, addend: 0x0, symName: __ZNKSt3__117__compressed_pairIPP4FactRNS_9allocatorIS2_EEE5firstB7v160006Ev, symObjAddr: 0x9A2C, symBinAddr: 0x10001255C, symSize: 0x24 }
  - { offsetInCU: 0x35E25, offset: 0x4CFCD, size: 0x8, addend: 0x0, symName: __ZN4FactC2ER5Lexer, symObjAddr: 0x9A50, symBinAddr: 0x100012580, symSize: 0x4B0 }
  - { offsetInCU: 0x35E8C, offset: 0x4D034, size: 0x8, addend: 0x0, symName: __ZNSt3__16vectorIP8DLStringNS_9allocatorIS2_EEEC1B7v160006Ev, symObjAddr: 0x9F00, symBinAddr: 0x100012A30, symSize: 0x2C }
  - { offsetInCU: 0x35EB6, offset: 0x4D05E, size: 0x8, addend: 0x0, symName: __ZNSt3__16vectorIP8DLStringNS_9allocatorIS2_EEE9push_backB7v160006EOS2_, symObjAddr: 0x9F2C, symBinAddr: 0x100012A5C, symSize: 0x6C }
  - { offsetInCU: 0x35EED, offset: 0x4D095, size: 0x8, addend: 0x0, symName: __ZNKSt3__16vectorIP8DLStringNS_9allocatorIS2_EEE4sizeB7v160006Ev, symObjAddr: 0x9F98, symBinAddr: 0x100012AC8, symSize: 0x28 }
  - { offsetInCU: 0x35F13, offset: 0x4D0BB, size: 0x8, addend: 0x0, symName: __ZNSt3__16vectorIP8DLStringNS_9allocatorIS2_EEE2atEm, symObjAddr: 0x9FC0, symBinAddr: 0x100012AF0, symSize: 0x60 }
  - { offsetInCU: 0x35F4A, offset: 0x4D0F2, size: 0x8, addend: 0x0, symName: __ZN8DLStringD1Ev, symObjAddr: 0xA020, symBinAddr: 0x100012B50, symSize: 0x2C }
  - { offsetInCU: 0x35F76, offset: 0x4D11E, size: 0x8, addend: 0x0, symName: __ZNSt3__16vectorIP8DLStringNS_9allocatorIS2_EEED1B7v160006Ev, symObjAddr: 0xA04C, symBinAddr: 0x100012B7C, symSize: 0x2C }
  - { offsetInCU: 0x35FA0, offset: 0x4D148, size: 0x8, addend: 0x0, symName: __ZNSt3__16vectorIP8DLStringNS_9allocatorIS2_EEEC2B7v160006Ev, symObjAddr: 0xA078, symBinAddr: 0x100012BA8, symSize: 0x58 }
  - { offsetInCU: 0x35FCA, offset: 0x4D172, size: 0x8, addend: 0x0, symName: __ZNSt3__117__compressed_pairIPP8DLStringNS_9allocatorIS2_EEEC1B7v160006IDnNS_18__default_init_tagEEEOT_OT0_, symObjAddr: 0xA0D0, symBinAddr: 0x100012C00, symSize: 0x3C }
  - { offsetInCU: 0x36022, offset: 0x4D1CA, size: 0x8, addend: 0x0, symName: __ZNSt3__117__compressed_pairIPP8DLStringNS_9allocatorIS2_EEEC2B7v160006IDnNS_18__default_init_tagEEEOT_OT0_, symObjAddr: 0xA11C, symBinAddr: 0x100012C4C, symSize: 0x40 }
  - { offsetInCU: 0x3607A, offset: 0x4D222, size: 0x8, addend: 0x0, symName: __ZNSt3__122__compressed_pair_elemIPP8DLStringLi0ELb0EEC2B7v160006IDnvEEOT_, symObjAddr: 0xA15C, symBinAddr: 0x100012C8C, symSize: 0x1C }
  - { offsetInCU: 0x360BC, offset: 0x4D264, size: 0x8, addend: 0x0, symName: __ZNSt3__122__compressed_pair_elemINS_9allocatorIP8DLStringEELi1ELb1EEC2B7v160006ENS_18__default_init_tagE, symObjAddr: 0xA178, symBinAddr: 0x100012CA8, symSize: 0x2C }
  - { offsetInCU: 0x360F1, offset: 0x4D299, size: 0x8, addend: 0x0, symName: __ZNSt3__19allocatorIP8DLStringEC2B7v160006Ev, symObjAddr: 0xA1A4, symBinAddr: 0x100012CD4, symSize: 0x2C }
  - { offsetInCU: 0x3611B, offset: 0x4D2C3, size: 0x8, addend: 0x0, symName: __ZNSt3__116__non_trivial_ifILb1ENS_9allocatorIP8DLStringEEEC2B7v160006Ev, symObjAddr: 0xA1D0, symBinAddr: 0x100012D00, symSize: 0x14 }
  - { offsetInCU: 0x36145, offset: 0x4D2ED, size: 0x8, addend: 0x0, symName: __ZNSt3__16vectorIP8DLStringNS_9allocatorIS2_EEE9__end_capB7v160006Ev, symObjAddr: 0xA1E4, symBinAddr: 0x100012D14, symSize: 0x28 }
  - { offsetInCU: 0x36170, offset: 0x4D318, size: 0x8, addend: 0x0, symName: __ZNSt3__16vectorIP8DLStringNS_9allocatorIS2_EEE22__construct_one_at_endB7v160006IJS2_EEEvDpOT_, symObjAddr: 0xA20C, symBinAddr: 0x100012D3C, symSize: 0x90 }
  - { offsetInCU: 0x361BF, offset: 0x4D367, size: 0x8, addend: 0x0, symName: __ZNSt3__16vectorIP8DLStringNS_9allocatorIS2_EEE21__push_back_slow_pathIS2_EEvOT_, symObjAddr: 0xA29C, symBinAddr: 0x100012DCC, symSize: 0xD8 }
  - { offsetInCU: 0x3621D, offset: 0x4D3C5, size: 0x8, addend: 0x0, symName: __ZNSt3__117__compressed_pairIPP8DLStringNS_9allocatorIS2_EEE5firstB7v160006Ev, symObjAddr: 0xA374, symBinAddr: 0x100012EA4, symSize: 0x24 }
  - { offsetInCU: 0x36243, offset: 0x4D3EB, size: 0x8, addend: 0x0, symName: __ZNSt3__122__compressed_pair_elemIPP8DLStringLi0ELb0EE5__getB7v160006Ev, symObjAddr: 0xA398, symBinAddr: 0x100012EC8, symSize: 0x14 }
  - { offsetInCU: 0x36282, offset: 0x4D42A, size: 0x8, addend: 0x0, symName: __ZNSt3__16vectorIP8DLStringNS_9allocatorIS2_EEE21_ConstructTransactionC1B7v160006ERS5_m, symObjAddr: 0xA3AC, symBinAddr: 0x100012EDC, symSize: 0x3C }
  - { offsetInCU: 0x362CA, offset: 0x4D472, size: 0x8, addend: 0x0, symName: __ZNSt3__116allocator_traitsINS_9allocatorIP8DLStringEEE9constructB7v160006IS3_JS3_EvEEvRS4_PT_DpOT0_, symObjAddr: 0xA3E8, symBinAddr: 0x100012F18, symSize: 0x34 }
  - { offsetInCU: 0x36321, offset: 0x4D4C9, size: 0x8, addend: 0x0, symName: __ZNSt3__16vectorIP8DLStringNS_9allocatorIS2_EEE7__allocB7v160006Ev, symObjAddr: 0xA41C, symBinAddr: 0x100012F4C, symSize: 0x28 }
  - { offsetInCU: 0x36347, offset: 0x4D4EF, size: 0x8, addend: 0x0, symName: __ZNSt3__16vectorIP8DLStringNS_9allocatorIS2_EEE21_ConstructTransactionD1B7v160006Ev, symObjAddr: 0xA458, symBinAddr: 0x100012F88, symSize: 0x2C }
  - { offsetInCU: 0x36371, offset: 0x4D519, size: 0x8, addend: 0x0, symName: __ZNSt3__16vectorIP8DLStringNS_9allocatorIS2_EEE21_ConstructTransactionC2B7v160006ERS5_m, symObjAddr: 0xA484, symBinAddr: 0x100012FB4, symSize: 0x44 }
  - { offsetInCU: 0x363B9, offset: 0x4D561, size: 0x8, addend: 0x0, symName: __ZNSt3__19allocatorIP8DLStringE9constructB7v160006IS2_JS2_EEEvPT_DpOT0_, symObjAddr: 0xA4C8, symBinAddr: 0x100012FF8, symSize: 0x28 }
  - { offsetInCU: 0x3640F, offset: 0x4D5B7, size: 0x8, addend: 0x0, symName: __ZNSt3__117__compressed_pairIPP8DLStringNS_9allocatorIS2_EEE6secondB7v160006Ev, symObjAddr: 0xA4F0, symBinAddr: 0x100013020, symSize: 0x24 }
  - { offsetInCU: 0x36435, offset: 0x4D5DD, size: 0x8, addend: 0x0, symName: __ZNSt3__122__compressed_pair_elemINS_9allocatorIP8DLStringEELi1ELb1EE5__getB7v160006Ev, symObjAddr: 0xA514, symBinAddr: 0x100013044, symSize: 0x14 }
  - { offsetInCU: 0x3645B, offset: 0x4D603, size: 0x8, addend: 0x0, symName: __ZNSt3__16vectorIP8DLStringNS_9allocatorIS2_EEE21_ConstructTransactionD2B7v160006Ev, symObjAddr: 0xA528, symBinAddr: 0x100013058, symSize: 0x20 }
  - { offsetInCU: 0x36485, offset: 0x4D62D, size: 0x8, addend: 0x0, symName: __ZNKSt3__16vectorIP8DLStringNS_9allocatorIS2_EEE11__recommendB7v160006Em, symObjAddr: 0xA548, symBinAddr: 0x100013078, symSize: 0xB4 }
  - { offsetInCU: 0x364DA, offset: 0x4D682, size: 0x8, addend: 0x0, symName: __ZNSt3__114__split_bufferIP8DLStringRNS_9allocatorIS2_EEEC1EmmS5_, symObjAddr: 0xA5FC, symBinAddr: 0x10001312C, symSize: 0x44 }
  - { offsetInCU: 0x36530, offset: 0x4D6D8, size: 0x8, addend: 0x0, symName: __ZNSt3__114__split_bufferIP8DLStringRNS_9allocatorIS2_EEED1Ev, symObjAddr: 0xA758, symBinAddr: 0x100013288, symSize: 0x2C }
  - { offsetInCU: 0x3655C, offset: 0x4D704, size: 0x8, addend: 0x0, symName: __ZNKSt3__16vectorIP8DLStringNS_9allocatorIS2_EEE8max_sizeEv, symObjAddr: 0xA784, symBinAddr: 0x1000132B4, symSize: 0x60 }
  - { offsetInCU: 0x36584, offset: 0x4D72C, size: 0x8, addend: 0x0, symName: __ZNKSt3__16vectorIP8DLStringNS_9allocatorIS2_EEE20__throw_length_errorB7v160006Ev, symObjAddr: 0xA7E4, symBinAddr: 0x100013314, symSize: 0x1C }
  - { offsetInCU: 0x365AA, offset: 0x4D752, size: 0x8, addend: 0x0, symName: __ZNKSt3__16vectorIP8DLStringNS_9allocatorIS2_EEE8capacityB7v160006Ev, symObjAddr: 0xA800, symBinAddr: 0x100013330, symSize: 0x40 }
  - { offsetInCU: 0x365DA, offset: 0x4D782, size: 0x8, addend: 0x0, symName: __ZNSt3__116allocator_traitsINS_9allocatorIP8DLStringEEE8max_sizeB7v160006IS4_vEEmRKS4_, symObjAddr: 0xA840, symBinAddr: 0x100013370, symSize: 0x24 }
  - { offsetInCU: 0x36608, offset: 0x4D7B0, size: 0x8, addend: 0x0, symName: __ZNKSt3__16vectorIP8DLStringNS_9allocatorIS2_EEE7__allocB7v160006Ev, symObjAddr: 0xA864, symBinAddr: 0x100013394, symSize: 0x28 }
  - { offsetInCU: 0x3662E, offset: 0x4D7D6, size: 0x8, addend: 0x0, symName: __ZNKSt3__19allocatorIP8DLStringE8max_sizeB7v160006Ev, symObjAddr: 0xA88C, symBinAddr: 0x1000133BC, symSize: 0x14 }
  - { offsetInCU: 0x36654, offset: 0x4D7FC, size: 0x8, addend: 0x0, symName: __ZNKSt3__117__compressed_pairIPP8DLStringNS_9allocatorIS2_EEE6secondB7v160006Ev, symObjAddr: 0xA8A0, symBinAddr: 0x1000133D0, symSize: 0x24 }
  - { offsetInCU: 0x3667A, offset: 0x4D822, size: 0x8, addend: 0x0, symName: __ZNKSt3__122__compressed_pair_elemINS_9allocatorIP8DLStringEELi1ELb1EE5__getB7v160006Ev, symObjAddr: 0xA8C4, symBinAddr: 0x1000133F4, symSize: 0x14 }
  - { offsetInCU: 0x366A0, offset: 0x4D848, size: 0x8, addend: 0x0, symName: __ZNKSt3__16vectorIP8DLStringNS_9allocatorIS2_EEE9__end_capB7v160006Ev, symObjAddr: 0xA8D8, symBinAddr: 0x100013408, symSize: 0x28 }
  - { offsetInCU: 0x366C6, offset: 0x4D86E, size: 0x8, addend: 0x0, symName: __ZNKSt3__117__compressed_pairIPP8DLStringNS_9allocatorIS2_EEE5firstB7v160006Ev, symObjAddr: 0xA900, symBinAddr: 0x100013430, symSize: 0x24 }
  - { offsetInCU: 0x366EC, offset: 0x4D894, size: 0x8, addend: 0x0, symName: __ZNKSt3__122__compressed_pair_elemIPP8DLStringLi0ELb0EE5__getB7v160006Ev, symObjAddr: 0xA924, symBinAddr: 0x100013454, symSize: 0x14 }
  - { offsetInCU: 0x36712, offset: 0x4D8BA, size: 0x8, addend: 0x0, symName: __ZNSt3__114__split_bufferIP8DLStringRNS_9allocatorIS2_EEEC2EmmS5_, symObjAddr: 0xA938, symBinAddr: 0x100013468, symSize: 0xD4 }
  - { offsetInCU: 0x36785, offset: 0x4D92D, size: 0x8, addend: 0x0, symName: __ZNSt3__117__compressed_pairIPP8DLStringRNS_9allocatorIS2_EEEC1B7v160006IDnS6_EEOT_OT0_, symObjAddr: 0xAA0C, symBinAddr: 0x10001353C, symSize: 0x3C }
  - { offsetInCU: 0x367DD, offset: 0x4D985, size: 0x8, addend: 0x0, symName: __ZNSt3__114__split_bufferIP8DLStringRNS_9allocatorIS2_EEE7__allocB7v160006Ev, symObjAddr: 0xAA88, symBinAddr: 0x1000135B8, symSize: 0x28 }
  - { offsetInCU: 0x36803, offset: 0x4D9AB, size: 0x8, addend: 0x0, symName: __ZNSt3__114__split_bufferIP8DLStringRNS_9allocatorIS2_EEE9__end_capB7v160006Ev, symObjAddr: 0xAAB0, symBinAddr: 0x1000135E0, symSize: 0x28 }
  - { offsetInCU: 0x36829, offset: 0x4D9D1, size: 0x8, addend: 0x0, symName: __ZNSt3__117__compressed_pairIPP8DLStringRNS_9allocatorIS2_EEEC2B7v160006IDnS6_EEOT_OT0_, symObjAddr: 0xAAD8, symBinAddr: 0x100013608, symSize: 0x48 }
  - { offsetInCU: 0x36881, offset: 0x4DA29, size: 0x8, addend: 0x0, symName: __ZNSt3__122__compressed_pair_elemIRNS_9allocatorIP8DLStringEELi1ELb0EEC2B7v160006IS5_vEEOT_, symObjAddr: 0xAB20, symBinAddr: 0x100013650, symSize: 0x20 }
  - { offsetInCU: 0x368C3, offset: 0x4DA6B, size: 0x8, addend: 0x0, symName: __ZNSt3__19allocatorIP8DLStringE8allocateB7v160006Em, symObjAddr: 0xAB40, symBinAddr: 0x100013670, symSize: 0x58 }
  - { offsetInCU: 0x368F7, offset: 0x4DA9F, size: 0x8, addend: 0x0, symName: __ZNSt3__117__compressed_pairIPP8DLStringRNS_9allocatorIS2_EEE6secondB7v160006Ev, symObjAddr: 0xAB98, symBinAddr: 0x1000136C8, symSize: 0x28 }
  - { offsetInCU: 0x3691D, offset: 0x4DAC5, size: 0x8, addend: 0x0, symName: __ZNSt3__122__compressed_pair_elemIRNS_9allocatorIP8DLStringEELi1ELb0EE5__getB7v160006Ev, symObjAddr: 0xABC0, symBinAddr: 0x1000136F0, symSize: 0x18 }
  - { offsetInCU: 0x36943, offset: 0x4DAEB, size: 0x8, addend: 0x0, symName: __ZNSt3__117__compressed_pairIPP8DLStringRNS_9allocatorIS2_EEE5firstB7v160006Ev, symObjAddr: 0xABD8, symBinAddr: 0x100013708, symSize: 0x24 }
  - { offsetInCU: 0x36969, offset: 0x4DB11, size: 0x8, addend: 0x0, symName: __ZNKSt3__16vectorIP8DLStringNS_9allocatorIS2_EEE17__annotate_deleteB7v160006Ev, symObjAddr: 0xABFC, symBinAddr: 0x10001372C, symSize: 0xB8 }
  - { offsetInCU: 0x3698F, offset: 0x4DB37, size: 0x8, addend: 0x0, symName: __ZNSt3__116reverse_iteratorIPP8DLStringEC1B7v160006ES3_, symObjAddr: 0xAD2C, symBinAddr: 0x10001385C, symSize: 0x34 }
  - { offsetInCU: 0x369C7, offset: 0x4DB6F, size: 0x8, addend: 0x0, symName: __ZNKSt3__116reverse_iteratorIPP8DLStringE4baseB7v160006Ev, symObjAddr: 0xAD60, symBinAddr: 0x100013890, symSize: 0x18 }
  - { offsetInCU: 0x369ED, offset: 0x4DB95, size: 0x8, addend: 0x0, symName: __ZNKSt3__16vectorIP8DLStringNS_9allocatorIS2_EEE14__annotate_newB7v160006Em, symObjAddr: 0xADB4, symBinAddr: 0x1000138E4, symSize: 0xAC }
  - { offsetInCU: 0x36A22, offset: 0x4DBCA, size: 0x8, addend: 0x0, symName: __ZNKSt3__16vectorIP8DLStringNS_9allocatorIS2_EEE31__annotate_contiguous_containerB7v160006EPKvS7_S7_S7_, symObjAddr: 0xAE70, symBinAddr: 0x1000139A0, symSize: 0x20 }
  - { offsetInCU: 0x36A74, offset: 0x4DC1C, size: 0x8, addend: 0x0, symName: __ZNKSt3__16vectorIP8DLStringNS_9allocatorIS2_EEE4dataB7v160006Ev, symObjAddr: 0xAE90, symBinAddr: 0x1000139C0, symSize: 0x28 }
  - { offsetInCU: 0x36AB3, offset: 0x4DC5B, size: 0x8, addend: 0x0, symName: __ZNKSt3__111__move_loopINS_17_ClassicAlgPolicyEEclB7v160006INS_16reverse_iteratorIPP8DLStringEES8_S8_EENS_4pairIT_T1_EESA_T0_SB_, symObjAddr: 0xB1A8, symBinAddr: 0x100013CD8, symSize: 0xA0 }
  - { offsetInCU: 0x36B1E, offset: 0x4DCC6, size: 0x8, addend: 0x0, symName: __ZNSt3__18_IterOpsINS_17_ClassicAlgPolicyEE11__iter_moveB7v160006IRNS_16reverse_iteratorIPP8DLStringEEEENS_9enable_ifIXsr12is_referenceIDTdeclsr3stdE7declvalIRT_EEEEE5valueEDTclsr3stdE4movedeclsr3stdE7declvalISC_EEEEE4typeEOSB_, symObjAddr: 0xB3DC, symBinAddr: 0x100013F0C, symSize: 0x28 }
  - { offsetInCU: 0x36B4A, offset: 0x4DCF2, size: 0x8, addend: 0x0, symName: __ZNKSt3__116reverse_iteratorIPP8DLStringEdeB7v160006Ev, symObjAddr: 0xB404, symBinAddr: 0x100013F34, symSize: 0x28 }
  - { offsetInCU: 0x36B7E, offset: 0x4DD26, size: 0x8, addend: 0x0, symName: __ZNSt3__116reverse_iteratorIPP8DLStringEppB7v160006Ev, symObjAddr: 0xB42C, symBinAddr: 0x100013F5C, symSize: 0x20 }
  - { offsetInCU: 0x36BA4, offset: 0x4DD4C, size: 0x8, addend: 0x0, symName: __ZNSt3__18_IterOpsINS_17_ClassicAlgPolicyEE25__validate_iter_referenceB7v160006IRNS_16reverse_iteratorIPP8DLStringEEEEvv, symObjAddr: 0xB44C, symBinAddr: 0x100013F7C, symSize: 0x4 }
  - { offsetInCU: 0x36BC2, offset: 0x4DD6A, size: 0x8, addend: 0x0, symName: __ZNSt3__118__unwrap_iter_implINS_16reverse_iteratorIPP8DLStringEELb0EE8__unwrapB7v160006ES5_, symObjAddr: 0xB450, symBinAddr: 0x100013F80, symSize: 0x24 }
  - { offsetInCU: 0x36BEA, offset: 0x4DD92, size: 0x8, addend: 0x0, symName: __ZNSt3__14pairINS_16reverse_iteratorIPP8DLStringEES5_EC1B7v160006IS5_S5_LPv0EEEOT_OT0_, symObjAddr: 0xB474, symBinAddr: 0x100013FA4, symSize: 0x3C }
  - { offsetInCU: 0x36C48, offset: 0x4DDF0, size: 0x8, addend: 0x0, symName: __ZNSt3__14pairINS_16reverse_iteratorIPP8DLStringEES5_EC2B7v160006IS5_S5_LPv0EEEOT_OT0_, symObjAddr: 0xB4B0, symBinAddr: 0x100013FE0, symSize: 0x34 }
  - { offsetInCU: 0x36CA6, offset: 0x4DE4E, size: 0x8, addend: 0x0, symName: __ZNSt3__118__unwrap_iter_implINS_16reverse_iteratorIPP8DLStringEELb0EE8__rewrapB7v160006ES5_S5_, symObjAddr: 0xB4E4, symBinAddr: 0x100014014, symSize: 0x2C }
  - { offsetInCU: 0x36CD4, offset: 0x4DE7C, size: 0x8, addend: 0x0, symName: __ZNSt3__116reverse_iteratorIPP8DLStringEC2B7v160006ES3_, symObjAddr: 0xB510, symBinAddr: 0x100014040, symSize: 0x28 }
  - { offsetInCU: 0x36D0C, offset: 0x4DEB4, size: 0x8, addend: 0x0, symName: __ZNSt3__114__split_bufferIP8DLStringRNS_9allocatorIS2_EEED2Ev, symObjAddr: 0xB538, symBinAddr: 0x100014068, symSize: 0x8C }
  - { offsetInCU: 0x36D38, offset: 0x4DEE0, size: 0x8, addend: 0x0, symName: __ZNSt3__114__split_bufferIP8DLStringRNS_9allocatorIS2_EEE5clearB7v160006Ev, symObjAddr: 0xB5C4, symBinAddr: 0x1000140F4, symSize: 0x28 }
  - { offsetInCU: 0x36D5E, offset: 0x4DF06, size: 0x8, addend: 0x0, symName: __ZNSt3__116allocator_traitsINS_9allocatorIP8DLStringEEE10deallocateB7v160006ERS4_PS3_m, symObjAddr: 0xB5EC, symBinAddr: 0x10001411C, symSize: 0x34 }
  - { offsetInCU: 0x36DA0, offset: 0x4DF48, size: 0x8, addend: 0x0, symName: __ZNKSt3__114__split_bufferIP8DLStringRNS_9allocatorIS2_EEE8capacityB7v160006Ev, symObjAddr: 0xB620, symBinAddr: 0x100014150, symSize: 0x40 }
  - { offsetInCU: 0x36DC6, offset: 0x4DF6E, size: 0x8, addend: 0x0, symName: __ZNSt3__114__split_bufferIP8DLStringRNS_9allocatorIS2_EEE17__destruct_at_endB7v160006EPS2_, symObjAddr: 0xB660, symBinAddr: 0x100014190, symSize: 0x2C }
  - { offsetInCU: 0x36DFA, offset: 0x4DFA2, size: 0x8, addend: 0x0, symName: __ZNSt3__114__split_bufferIP8DLStringRNS_9allocatorIS2_EEE17__destruct_at_endB7v160006EPS2_NS_17integral_constantIbLb0EEE, symObjAddr: 0xB68C, symBinAddr: 0x1000141BC, symSize: 0x80 }
  - { offsetInCU: 0x36E3B, offset: 0x4DFE3, size: 0x8, addend: 0x0, symName: __ZNSt3__116allocator_traitsINS_9allocatorIP8DLStringEEE7destroyB7v160006IS3_vEEvRS4_PT_, symObjAddr: 0xB70C, symBinAddr: 0x10001423C, symSize: 0x2C }
  - { offsetInCU: 0x36E78, offset: 0x4E020, size: 0x8, addend: 0x0, symName: __ZNSt3__19allocatorIP8DLStringE7destroyB7v160006EPS2_, symObjAddr: 0xB738, symBinAddr: 0x100014268, symSize: 0x14 }
  - { offsetInCU: 0x36EAC, offset: 0x4E054, size: 0x8, addend: 0x0, symName: __ZNSt3__19allocatorIP8DLStringE10deallocateB7v160006EPS2_m, symObjAddr: 0xB74C, symBinAddr: 0x10001427C, symSize: 0x40 }
  - { offsetInCU: 0x36EEE, offset: 0x4E096, size: 0x8, addend: 0x0, symName: __ZNKSt3__114__split_bufferIP8DLStringRNS_9allocatorIS2_EEE9__end_capB7v160006Ev, symObjAddr: 0xB78C, symBinAddr: 0x1000142BC, symSize: 0x28 }
  - { offsetInCU: 0x36F14, offset: 0x4E0BC, size: 0x8, addend: 0x0, symName: __ZNKSt3__117__compressed_pairIPP8DLStringRNS_9allocatorIS2_EEE5firstB7v160006Ev, symObjAddr: 0xB7B4, symBinAddr: 0x1000142E4, symSize: 0x24 }
  - { offsetInCU: 0x36F3A, offset: 0x4E0E2, size: 0x8, addend: 0x0, symName: __ZNKSt3__16vectorIP8DLStringNS_9allocatorIS2_EEE20__throw_out_of_rangeB7v160006Ev, symObjAddr: 0xB7D8, symBinAddr: 0x100014308, symSize: 0x1C }
  - { offsetInCU: 0x36F60, offset: 0x4E108, size: 0x8, addend: 0x0, symName: __ZN8DLStringD2Ev, symObjAddr: 0xB7F4, symBinAddr: 0x100014324, symSize: 0x2C }
  - { offsetInCU: 0x36F8C, offset: 0x4E134, size: 0x8, addend: 0x0, symName: __ZNSt3__16vectorIP8DLStringNS_9allocatorIS2_EEED2B7v160006Ev, symObjAddr: 0xB820, symBinAddr: 0x100014350, symSize: 0x44 }
  - { offsetInCU: 0x36FB6, offset: 0x4E15E, size: 0x8, addend: 0x0, symName: __ZNSt3__16vectorIP8DLStringNS_9allocatorIS2_EEE16__destroy_vectorC1ERS5_, symObjAddr: 0xB864, symBinAddr: 0x100014394, symSize: 0x34 }
  - { offsetInCU: 0x36FEF, offset: 0x4E197, size: 0x8, addend: 0x0, symName: __ZNSt3__16vectorIP8DLStringNS_9allocatorIS2_EEE16__destroy_vectorclB7v160006Ev, symObjAddr: 0xB898, symBinAddr: 0x1000143C8, symSize: 0x9C }
  - { offsetInCU: 0x37015, offset: 0x4E1BD, size: 0x8, addend: 0x0, symName: __ZNSt3__16vectorIP8DLStringNS_9allocatorIS2_EEE16__destroy_vectorC2ERS5_, symObjAddr: 0xB934, symBinAddr: 0x100014464, symSize: 0x20 }
  - { offsetInCU: 0x3704E, offset: 0x4E1F6, size: 0x8, addend: 0x0, symName: __ZNSt3__16vectorIP8DLStringNS_9allocatorIS2_EEE7__clearB7v160006Ev, symObjAddr: 0xB964, symBinAddr: 0x100014494, symSize: 0x28 }
  - { offsetInCU: 0x37074, offset: 0x4E21C, size: 0x8, addend: 0x0, symName: __ZNSt3__16vectorIP8DLStringNS_9allocatorIS2_EEE22__base_destruct_at_endB7v160006EPS2_, symObjAddr: 0xB98C, symBinAddr: 0x1000144BC, symSize: 0x8C }
  - { offsetInCU: 0x370B8, offset: 0x4E260, size: 0x8, addend: 0x0, symName: __ZNKSt3__16vectorIP4FactNS_9allocatorIS2_EEE20__throw_out_of_rangeB7v160006Ev, symObjAddr: 0xBA18, symBinAddr: 0x100014548, symSize: 0x1C }
  - { offsetInCU: 0x370DE, offset: 0x4E286, size: 0x8, addend: 0x0, symName: __ZN4FactD2Ev, symObjAddr: 0xBA34, symBinAddr: 0x100014564, symSize: 0x120 }
  - { offsetInCU: 0x3711C, offset: 0x4E2C4, size: 0x8, addend: 0x0, symName: __ZNSt3__16vectorIP4FactNS_9allocatorIS2_EEED2B7v160006Ev, symObjAddr: 0xBB54, symBinAddr: 0x100014684, symSize: 0x44 }
  - { offsetInCU: 0x37146, offset: 0x4E2EE, size: 0x8, addend: 0x0, symName: __ZNSt3__16vectorIP4FactNS_9allocatorIS2_EEE16__destroy_vectorC1ERS5_, symObjAddr: 0xBB98, symBinAddr: 0x1000146C8, symSize: 0x34 }
  - { offsetInCU: 0x3717F, offset: 0x4E327, size: 0x8, addend: 0x0, symName: __ZNSt3__16vectorIP4FactNS_9allocatorIS2_EEE16__destroy_vectorclB7v160006Ev, symObjAddr: 0xBBCC, symBinAddr: 0x1000146FC, symSize: 0x9C }
  - { offsetInCU: 0x371A5, offset: 0x4E34D, size: 0x8, addend: 0x0, symName: __ZNSt3__16vectorIP4FactNS_9allocatorIS2_EEE16__destroy_vectorC2ERS5_, symObjAddr: 0xBC68, symBinAddr: 0x100014798, symSize: 0x20 }
  - { offsetInCU: 0x371DE, offset: 0x4E386, size: 0x8, addend: 0x0, symName: __ZNSt3__16vectorIP4FactNS_9allocatorIS2_EEE7__clearB7v160006Ev, symObjAddr: 0xBC98, symBinAddr: 0x1000147C8, symSize: 0x28 }
  - { offsetInCU: 0x37204, offset: 0x4E3AC, size: 0x8, addend: 0x0, symName: __ZNSt3__16vectorIP4FactNS_9allocatorIS2_EEE22__base_destruct_at_endB7v160006EPS2_, symObjAddr: 0xBCC0, symBinAddr: 0x1000147F0, symSize: 0x8C }
  - { offsetInCU: 0x37248, offset: 0x4E3F0, size: 0x8, addend: 0x0, symName: __ZN7SchemesD2Ev, symObjAddr: 0xBD4C, symBinAddr: 0x10001487C, symSize: 0xF0 }
  - { offsetInCU: 0x37286, offset: 0x4E42E, size: 0x8, addend: 0x0, symName: __ZN5RulesC2ER5Lexer, symObjAddr: 0xBE3C, symBinAddr: 0x10001496C, symSize: 0x3A4 }
  - { offsetInCU: 0x372E5, offset: 0x4E48D, size: 0x8, addend: 0x0, symName: __ZNSt3__16vectorIP4RuleNS_9allocatorIS2_EEEC1B7v160006Ev, symObjAddr: 0xC1E0, symBinAddr: 0x100014D10, symSize: 0x2C }
  - { offsetInCU: 0x3730F, offset: 0x4E4B7, size: 0x8, addend: 0x0, symName: __ZNSt3__16vectorIP4RuleNS_9allocatorIS2_EEE9push_backB7v160006EOS2_, symObjAddr: 0xC20C, symBinAddr: 0x100014D3C, symSize: 0x6C }
  - { offsetInCU: 0x37346, offset: 0x4E4EE, size: 0x8, addend: 0x0, symName: __ZN4RuleC1ER5Lexer, symObjAddr: 0xC278, symBinAddr: 0x100014DA8, symSize: 0x34 }
  - { offsetInCU: 0x3737E, offset: 0x4E526, size: 0x8, addend: 0x0, symName: __ZNKSt3__16vectorIP4RuleNS_9allocatorIS2_EEE4sizeB7v160006Ev, symObjAddr: 0xC2AC, symBinAddr: 0x100014DDC, symSize: 0x28 }
  - { offsetInCU: 0x373A4, offset: 0x4E54C, size: 0x8, addend: 0x0, symName: __ZN4RuleD1Ev, symObjAddr: 0xC2D4, symBinAddr: 0x100014E04, symSize: 0x2C }
  - { offsetInCU: 0x373CE, offset: 0x4E576, size: 0x8, addend: 0x0, symName: __ZNSt3__16vectorIP4RuleNS_9allocatorIS2_EEED1B7v160006Ev, symObjAddr: 0xC300, symBinAddr: 0x100014E30, symSize: 0x2C }
  - { offsetInCU: 0x373F8, offset: 0x4E5A0, size: 0x8, addend: 0x0, symName: __ZNSt3__16vectorIP4RuleNS_9allocatorIS2_EEEC2B7v160006Ev, symObjAddr: 0xC32C, symBinAddr: 0x100014E5C, symSize: 0x58 }
  - { offsetInCU: 0x37422, offset: 0x4E5CA, size: 0x8, addend: 0x0, symName: __ZNSt3__117__compressed_pairIPP4RuleNS_9allocatorIS2_EEEC1B7v160006IDnNS_18__default_init_tagEEEOT_OT0_, symObjAddr: 0xC384, symBinAddr: 0x100014EB4, symSize: 0x3C }
  - { offsetInCU: 0x3747A, offset: 0x4E622, size: 0x8, addend: 0x0, symName: __ZNSt3__117__compressed_pairIPP4RuleNS_9allocatorIS2_EEEC2B7v160006IDnNS_18__default_init_tagEEEOT_OT0_, symObjAddr: 0xC3D0, symBinAddr: 0x100014F00, symSize: 0x40 }
  - { offsetInCU: 0x374D2, offset: 0x4E67A, size: 0x8, addend: 0x0, symName: __ZNSt3__122__compressed_pair_elemIPP4RuleLi0ELb0EEC2B7v160006IDnvEEOT_, symObjAddr: 0xC410, symBinAddr: 0x100014F40, symSize: 0x1C }
  - { offsetInCU: 0x37514, offset: 0x4E6BC, size: 0x8, addend: 0x0, symName: __ZNSt3__122__compressed_pair_elemINS_9allocatorIP4RuleEELi1ELb1EEC2B7v160006ENS_18__default_init_tagE, symObjAddr: 0xC42C, symBinAddr: 0x100014F5C, symSize: 0x2C }
  - { offsetInCU: 0x37549, offset: 0x4E6F1, size: 0x8, addend: 0x0, symName: __ZNSt3__19allocatorIP4RuleEC2B7v160006Ev, symObjAddr: 0xC458, symBinAddr: 0x100014F88, symSize: 0x2C }
  - { offsetInCU: 0x37573, offset: 0x4E71B, size: 0x8, addend: 0x0, symName: __ZNSt3__116__non_trivial_ifILb1ENS_9allocatorIP4RuleEEEC2B7v160006Ev, symObjAddr: 0xC484, symBinAddr: 0x100014FB4, symSize: 0x14 }
  - { offsetInCU: 0x3759D, offset: 0x4E745, size: 0x8, addend: 0x0, symName: __ZNSt3__16vectorIP4RuleNS_9allocatorIS2_EEE9__end_capB7v160006Ev, symObjAddr: 0xC498, symBinAddr: 0x100014FC8, symSize: 0x28 }
  - { offsetInCU: 0x375C8, offset: 0x4E770, size: 0x8, addend: 0x0, symName: __ZNSt3__16vectorIP4RuleNS_9allocatorIS2_EEE22__construct_one_at_endB7v160006IJS2_EEEvDpOT_, symObjAddr: 0xC4C0, symBinAddr: 0x100014FF0, symSize: 0x90 }
  - { offsetInCU: 0x37617, offset: 0x4E7BF, size: 0x8, addend: 0x0, symName: __ZNSt3__16vectorIP4RuleNS_9allocatorIS2_EEE21__push_back_slow_pathIS2_EEvOT_, symObjAddr: 0xC550, symBinAddr: 0x100015080, symSize: 0xD8 }
  - { offsetInCU: 0x37675, offset: 0x4E81D, size: 0x8, addend: 0x0, symName: __ZNSt3__117__compressed_pairIPP4RuleNS_9allocatorIS2_EEE5firstB7v160006Ev, symObjAddr: 0xC628, symBinAddr: 0x100015158, symSize: 0x24 }
  - { offsetInCU: 0x3769B, offset: 0x4E843, size: 0x8, addend: 0x0, symName: __ZNSt3__122__compressed_pair_elemIPP4RuleLi0ELb0EE5__getB7v160006Ev, symObjAddr: 0xC64C, symBinAddr: 0x10001517C, symSize: 0x14 }
  - { offsetInCU: 0x376DA, offset: 0x4E882, size: 0x8, addend: 0x0, symName: __ZNSt3__16vectorIP4RuleNS_9allocatorIS2_EEE21_ConstructTransactionC1B7v160006ERS5_m, symObjAddr: 0xC660, symBinAddr: 0x100015190, symSize: 0x3C }
  - { offsetInCU: 0x37722, offset: 0x4E8CA, size: 0x8, addend: 0x0, symName: __ZNSt3__116allocator_traitsINS_9allocatorIP4RuleEEE9constructB7v160006IS3_JS3_EvEEvRS4_PT_DpOT0_, symObjAddr: 0xC69C, symBinAddr: 0x1000151CC, symSize: 0x34 }
  - { offsetInCU: 0x37779, offset: 0x4E921, size: 0x8, addend: 0x0, symName: __ZNSt3__16vectorIP4RuleNS_9allocatorIS2_EEE7__allocB7v160006Ev, symObjAddr: 0xC6D0, symBinAddr: 0x100015200, symSize: 0x28 }
  - { offsetInCU: 0x3779F, offset: 0x4E947, size: 0x8, addend: 0x0, symName: __ZNSt3__16vectorIP4RuleNS_9allocatorIS2_EEE21_ConstructTransactionD1B7v160006Ev, symObjAddr: 0xC70C, symBinAddr: 0x10001523C, symSize: 0x2C }
  - { offsetInCU: 0x377C9, offset: 0x4E971, size: 0x8, addend: 0x0, symName: __ZNSt3__16vectorIP4RuleNS_9allocatorIS2_EEE21_ConstructTransactionC2B7v160006ERS5_m, symObjAddr: 0xC738, symBinAddr: 0x100015268, symSize: 0x44 }
  - { offsetInCU: 0x37811, offset: 0x4E9B9, size: 0x8, addend: 0x0, symName: __ZNSt3__19allocatorIP4RuleE9constructB7v160006IS2_JS2_EEEvPT_DpOT0_, symObjAddr: 0xC77C, symBinAddr: 0x1000152AC, symSize: 0x28 }
  - { offsetInCU: 0x37867, offset: 0x4EA0F, size: 0x8, addend: 0x0, symName: __ZNSt3__117__compressed_pairIPP4RuleNS_9allocatorIS2_EEE6secondB7v160006Ev, symObjAddr: 0xC7A4, symBinAddr: 0x1000152D4, symSize: 0x24 }
  - { offsetInCU: 0x3788D, offset: 0x4EA35, size: 0x8, addend: 0x0, symName: __ZNSt3__122__compressed_pair_elemINS_9allocatorIP4RuleEELi1ELb1EE5__getB7v160006Ev, symObjAddr: 0xC7C8, symBinAddr: 0x1000152F8, symSize: 0x14 }
  - { offsetInCU: 0x378B3, offset: 0x4EA5B, size: 0x8, addend: 0x0, symName: __ZNSt3__16vectorIP4RuleNS_9allocatorIS2_EEE21_ConstructTransactionD2B7v160006Ev, symObjAddr: 0xC7DC, symBinAddr: 0x10001530C, symSize: 0x20 }
  - { offsetInCU: 0x378DD, offset: 0x4EA85, size: 0x8, addend: 0x0, symName: __ZNKSt3__16vectorIP4RuleNS_9allocatorIS2_EEE11__recommendB7v160006Em, symObjAddr: 0xC7FC, symBinAddr: 0x10001532C, symSize: 0xB4 }
  - { offsetInCU: 0x37932, offset: 0x4EADA, size: 0x8, addend: 0x0, symName: __ZNSt3__114__split_bufferIP4RuleRNS_9allocatorIS2_EEEC1EmmS5_, symObjAddr: 0xC8B0, symBinAddr: 0x1000153E0, symSize: 0x44 }
  - { offsetInCU: 0x37988, offset: 0x4EB30, size: 0x8, addend: 0x0, symName: __ZNSt3__114__split_bufferIP4RuleRNS_9allocatorIS2_EEED1Ev, symObjAddr: 0xCA0C, symBinAddr: 0x10001553C, symSize: 0x2C }
  - { offsetInCU: 0x379B4, offset: 0x4EB5C, size: 0x8, addend: 0x0, symName: __ZNKSt3__16vectorIP4RuleNS_9allocatorIS2_EEE8max_sizeEv, symObjAddr: 0xCA38, symBinAddr: 0x100015568, symSize: 0x60 }
  - { offsetInCU: 0x379DC, offset: 0x4EB84, size: 0x8, addend: 0x0, symName: __ZNKSt3__16vectorIP4RuleNS_9allocatorIS2_EEE20__throw_length_errorB7v160006Ev, symObjAddr: 0xCA98, symBinAddr: 0x1000155C8, symSize: 0x1C }
  - { offsetInCU: 0x37A02, offset: 0x4EBAA, size: 0x8, addend: 0x0, symName: __ZNKSt3__16vectorIP4RuleNS_9allocatorIS2_EEE8capacityB7v160006Ev, symObjAddr: 0xCAB4, symBinAddr: 0x1000155E4, symSize: 0x40 }
  - { offsetInCU: 0x37A32, offset: 0x4EBDA, size: 0x8, addend: 0x0, symName: __ZNSt3__116allocator_traitsINS_9allocatorIP4RuleEEE8max_sizeB7v160006IS4_vEEmRKS4_, symObjAddr: 0xCAF4, symBinAddr: 0x100015624, symSize: 0x24 }
  - { offsetInCU: 0x37A60, offset: 0x4EC08, size: 0x8, addend: 0x0, symName: __ZNKSt3__16vectorIP4RuleNS_9allocatorIS2_EEE7__allocB7v160006Ev, symObjAddr: 0xCB18, symBinAddr: 0x100015648, symSize: 0x28 }
  - { offsetInCU: 0x37A86, offset: 0x4EC2E, size: 0x8, addend: 0x0, symName: __ZNKSt3__19allocatorIP4RuleE8max_sizeB7v160006Ev, symObjAddr: 0xCB40, symBinAddr: 0x100015670, symSize: 0x14 }
  - { offsetInCU: 0x37AAC, offset: 0x4EC54, size: 0x8, addend: 0x0, symName: __ZNKSt3__117__compressed_pairIPP4RuleNS_9allocatorIS2_EEE6secondB7v160006Ev, symObjAddr: 0xCB54, symBinAddr: 0x100015684, symSize: 0x24 }
  - { offsetInCU: 0x37AD2, offset: 0x4EC7A, size: 0x8, addend: 0x0, symName: __ZNKSt3__122__compressed_pair_elemINS_9allocatorIP4RuleEELi1ELb1EE5__getB7v160006Ev, symObjAddr: 0xCB78, symBinAddr: 0x1000156A8, symSize: 0x14 }
  - { offsetInCU: 0x37AF8, offset: 0x4ECA0, size: 0x8, addend: 0x0, symName: __ZNKSt3__16vectorIP4RuleNS_9allocatorIS2_EEE9__end_capB7v160006Ev, symObjAddr: 0xCB8C, symBinAddr: 0x1000156BC, symSize: 0x28 }
  - { offsetInCU: 0x37B1E, offset: 0x4ECC6, size: 0x8, addend: 0x0, symName: __ZNKSt3__117__compressed_pairIPP4RuleNS_9allocatorIS2_EEE5firstB7v160006Ev, symObjAddr: 0xCBB4, symBinAddr: 0x1000156E4, symSize: 0x24 }
  - { offsetInCU: 0x37B44, offset: 0x4ECEC, size: 0x8, addend: 0x0, symName: __ZNKSt3__122__compressed_pair_elemIPP4RuleLi0ELb0EE5__getB7v160006Ev, symObjAddr: 0xCBD8, symBinAddr: 0x100015708, symSize: 0x14 }
  - { offsetInCU: 0x37B6A, offset: 0x4ED12, size: 0x8, addend: 0x0, symName: __ZNSt3__114__split_bufferIP4RuleRNS_9allocatorIS2_EEEC2EmmS5_, symObjAddr: 0xCBEC, symBinAddr: 0x10001571C, symSize: 0xD4 }
  - { offsetInCU: 0x37BDD, offset: 0x4ED85, size: 0x8, addend: 0x0, symName: __ZNSt3__117__compressed_pairIPP4RuleRNS_9allocatorIS2_EEEC1B7v160006IDnS6_EEOT_OT0_, symObjAddr: 0xCCC0, symBinAddr: 0x1000157F0, symSize: 0x3C }
  - { offsetInCU: 0x37C35, offset: 0x4EDDD, size: 0x8, addend: 0x0, symName: __ZNSt3__114__split_bufferIP4RuleRNS_9allocatorIS2_EEE7__allocB7v160006Ev, symObjAddr: 0xCD3C, symBinAddr: 0x10001586C, symSize: 0x28 }
  - { offsetInCU: 0x37C5B, offset: 0x4EE03, size: 0x8, addend: 0x0, symName: __ZNSt3__114__split_bufferIP4RuleRNS_9allocatorIS2_EEE9__end_capB7v160006Ev, symObjAddr: 0xCD64, symBinAddr: 0x100015894, symSize: 0x28 }
  - { offsetInCU: 0x37C81, offset: 0x4EE29, size: 0x8, addend: 0x0, symName: __ZNSt3__117__compressed_pairIPP4RuleRNS_9allocatorIS2_EEEC2B7v160006IDnS6_EEOT_OT0_, symObjAddr: 0xCD8C, symBinAddr: 0x1000158BC, symSize: 0x48 }
  - { offsetInCU: 0x37CD9, offset: 0x4EE81, size: 0x8, addend: 0x0, symName: __ZNSt3__122__compressed_pair_elemIRNS_9allocatorIP4RuleEELi1ELb0EEC2B7v160006IS5_vEEOT_, symObjAddr: 0xCDD4, symBinAddr: 0x100015904, symSize: 0x20 }
  - { offsetInCU: 0x37D1B, offset: 0x4EEC3, size: 0x8, addend: 0x0, symName: __ZNSt3__19allocatorIP4RuleE8allocateB7v160006Em, symObjAddr: 0xCDF4, symBinAddr: 0x100015924, symSize: 0x58 }
  - { offsetInCU: 0x37D4F, offset: 0x4EEF7, size: 0x8, addend: 0x0, symName: __ZNSt3__117__compressed_pairIPP4RuleRNS_9allocatorIS2_EEE6secondB7v160006Ev, symObjAddr: 0xCE4C, symBinAddr: 0x10001597C, symSize: 0x28 }
  - { offsetInCU: 0x37D75, offset: 0x4EF1D, size: 0x8, addend: 0x0, symName: __ZNSt3__122__compressed_pair_elemIRNS_9allocatorIP4RuleEELi1ELb0EE5__getB7v160006Ev, symObjAddr: 0xCE74, symBinAddr: 0x1000159A4, symSize: 0x18 }
  - { offsetInCU: 0x37D9B, offset: 0x4EF43, size: 0x8, addend: 0x0, symName: __ZNSt3__117__compressed_pairIPP4RuleRNS_9allocatorIS2_EEE5firstB7v160006Ev, symObjAddr: 0xCE8C, symBinAddr: 0x1000159BC, symSize: 0x24 }
  - { offsetInCU: 0x37DC1, offset: 0x4EF69, size: 0x8, addend: 0x0, symName: __ZNKSt3__16vectorIP4RuleNS_9allocatorIS2_EEE17__annotate_deleteB7v160006Ev, symObjAddr: 0xCEB0, symBinAddr: 0x1000159E0, symSize: 0xB8 }
  - { offsetInCU: 0x37DE7, offset: 0x4EF8F, size: 0x8, addend: 0x0, symName: __ZNSt3__116reverse_iteratorIPP4RuleEC1B7v160006ES3_, symObjAddr: 0xCFE0, symBinAddr: 0x100015B10, symSize: 0x34 }
  - { offsetInCU: 0x37E1F, offset: 0x4EFC7, size: 0x8, addend: 0x0, symName: __ZNKSt3__116reverse_iteratorIPP4RuleE4baseB7v160006Ev, symObjAddr: 0xD014, symBinAddr: 0x100015B44, symSize: 0x18 }
  - { offsetInCU: 0x37E45, offset: 0x4EFED, size: 0x8, addend: 0x0, symName: __ZNKSt3__16vectorIP4RuleNS_9allocatorIS2_EEE14__annotate_newB7v160006Em, symObjAddr: 0xD068, symBinAddr: 0x100015B98, symSize: 0xAC }
  - { offsetInCU: 0x37E7A, offset: 0x4F022, size: 0x8, addend: 0x0, symName: __ZNKSt3__16vectorIP4RuleNS_9allocatorIS2_EEE31__annotate_contiguous_containerB7v160006EPKvS7_S7_S7_, symObjAddr: 0xD124, symBinAddr: 0x100015C54, symSize: 0x20 }
  - { offsetInCU: 0x37ECC, offset: 0x4F074, size: 0x8, addend: 0x0, symName: __ZNKSt3__16vectorIP4RuleNS_9allocatorIS2_EEE4dataB7v160006Ev, symObjAddr: 0xD144, symBinAddr: 0x100015C74, symSize: 0x28 }
  - { offsetInCU: 0x37F0B, offset: 0x4F0B3, size: 0x8, addend: 0x0, symName: __ZNKSt3__111__move_loopINS_17_ClassicAlgPolicyEEclB7v160006INS_16reverse_iteratorIPP4RuleEES8_S8_EENS_4pairIT_T1_EESA_T0_SB_, symObjAddr: 0xD45C, symBinAddr: 0x100015F8C, symSize: 0xA0 }
  - { offsetInCU: 0x37F76, offset: 0x4F11E, size: 0x8, addend: 0x0, symName: __ZNSt3__18_IterOpsINS_17_ClassicAlgPolicyEE11__iter_moveB7v160006IRNS_16reverse_iteratorIPP4RuleEEEENS_9enable_ifIXsr12is_referenceIDTdeclsr3stdE7declvalIRT_EEEEE5valueEDTclsr3stdE4movedeclsr3stdE7declvalISC_EEEEE4typeEOSB_, symObjAddr: 0xD690, symBinAddr: 0x1000161C0, symSize: 0x28 }
  - { offsetInCU: 0x37FA2, offset: 0x4F14A, size: 0x8, addend: 0x0, symName: __ZNKSt3__116reverse_iteratorIPP4RuleEdeB7v160006Ev, symObjAddr: 0xD6B8, symBinAddr: 0x1000161E8, symSize: 0x28 }
  - { offsetInCU: 0x37FD6, offset: 0x4F17E, size: 0x8, addend: 0x0, symName: __ZNSt3__116reverse_iteratorIPP4RuleEppB7v160006Ev, symObjAddr: 0xD6E0, symBinAddr: 0x100016210, symSize: 0x20 }
  - { offsetInCU: 0x37FFC, offset: 0x4F1A4, size: 0x8, addend: 0x0, symName: __ZNSt3__18_IterOpsINS_17_ClassicAlgPolicyEE25__validate_iter_referenceB7v160006IRNS_16reverse_iteratorIPP4RuleEEEEvv, symObjAddr: 0xD700, symBinAddr: 0x100016230, symSize: 0x4 }
  - { offsetInCU: 0x3801A, offset: 0x4F1C2, size: 0x8, addend: 0x0, symName: __ZNSt3__118__unwrap_iter_implINS_16reverse_iteratorIPP4RuleEELb0EE8__unwrapB7v160006ES5_, symObjAddr: 0xD704, symBinAddr: 0x100016234, symSize: 0x24 }
  - { offsetInCU: 0x38042, offset: 0x4F1EA, size: 0x8, addend: 0x0, symName: __ZNSt3__14pairINS_16reverse_iteratorIPP4RuleEES5_EC1B7v160006IS5_S5_LPv0EEEOT_OT0_, symObjAddr: 0xD728, symBinAddr: 0x100016258, symSize: 0x3C }
  - { offsetInCU: 0x380A0, offset: 0x4F248, size: 0x8, addend: 0x0, symName: __ZNSt3__14pairINS_16reverse_iteratorIPP4RuleEES5_EC2B7v160006IS5_S5_LPv0EEEOT_OT0_, symObjAddr: 0xD764, symBinAddr: 0x100016294, symSize: 0x34 }
  - { offsetInCU: 0x380FE, offset: 0x4F2A6, size: 0x8, addend: 0x0, symName: __ZNSt3__118__unwrap_iter_implINS_16reverse_iteratorIPP4RuleEELb0EE8__rewrapB7v160006ES5_S5_, symObjAddr: 0xD798, symBinAddr: 0x1000162C8, symSize: 0x2C }
  - { offsetInCU: 0x3812C, offset: 0x4F2D4, size: 0x8, addend: 0x0, symName: __ZNSt3__116reverse_iteratorIPP4RuleEC2B7v160006ES3_, symObjAddr: 0xD7C4, symBinAddr: 0x1000162F4, symSize: 0x28 }
  - { offsetInCU: 0x38164, offset: 0x4F30C, size: 0x8, addend: 0x0, symName: __ZNSt3__114__split_bufferIP4RuleRNS_9allocatorIS2_EEED2Ev, symObjAddr: 0xD7EC, symBinAddr: 0x10001631C, symSize: 0x8C }
  - { offsetInCU: 0x38190, offset: 0x4F338, size: 0x8, addend: 0x0, symName: __ZNSt3__114__split_bufferIP4RuleRNS_9allocatorIS2_EEE5clearB7v160006Ev, symObjAddr: 0xD878, symBinAddr: 0x1000163A8, symSize: 0x28 }
  - { offsetInCU: 0x381B6, offset: 0x4F35E, size: 0x8, addend: 0x0, symName: __ZNSt3__116allocator_traitsINS_9allocatorIP4RuleEEE10deallocateB7v160006ERS4_PS3_m, symObjAddr: 0xD8A0, symBinAddr: 0x1000163D0, symSize: 0x34 }
  - { offsetInCU: 0x381F8, offset: 0x4F3A0, size: 0x8, addend: 0x0, symName: __ZNKSt3__114__split_bufferIP4RuleRNS_9allocatorIS2_EEE8capacityB7v160006Ev, symObjAddr: 0xD8D4, symBinAddr: 0x100016404, symSize: 0x40 }
  - { offsetInCU: 0x3821E, offset: 0x4F3C6, size: 0x8, addend: 0x0, symName: __ZNSt3__114__split_bufferIP4RuleRNS_9allocatorIS2_EEE17__destruct_at_endB7v160006EPS2_, symObjAddr: 0xD914, symBinAddr: 0x100016444, symSize: 0x2C }
  - { offsetInCU: 0x38252, offset: 0x4F3FA, size: 0x8, addend: 0x0, symName: __ZNSt3__114__split_bufferIP4RuleRNS_9allocatorIS2_EEE17__destruct_at_endB7v160006EPS2_NS_17integral_constantIbLb0EEE, symObjAddr: 0xD940, symBinAddr: 0x100016470, symSize: 0x80 }
  - { offsetInCU: 0x38293, offset: 0x4F43B, size: 0x8, addend: 0x0, symName: __ZNSt3__116allocator_traitsINS_9allocatorIP4RuleEEE7destroyB7v160006IS3_vEEvRS4_PT_, symObjAddr: 0xD9C0, symBinAddr: 0x1000164F0, symSize: 0x2C }
  - { offsetInCU: 0x382D0, offset: 0x4F478, size: 0x8, addend: 0x0, symName: __ZNSt3__19allocatorIP4RuleE7destroyB7v160006EPS2_, symObjAddr: 0xD9EC, symBinAddr: 0x10001651C, symSize: 0x14 }
  - { offsetInCU: 0x38304, offset: 0x4F4AC, size: 0x8, addend: 0x0, symName: __ZNSt3__19allocatorIP4RuleE10deallocateB7v160006EPS2_m, symObjAddr: 0xDA00, symBinAddr: 0x100016530, symSize: 0x40 }
  - { offsetInCU: 0x38346, offset: 0x4F4EE, size: 0x8, addend: 0x0, symName: __ZNKSt3__114__split_bufferIP4RuleRNS_9allocatorIS2_EEE9__end_capB7v160006Ev, symObjAddr: 0xDA40, symBinAddr: 0x100016570, symSize: 0x28 }
  - { offsetInCU: 0x3836C, offset: 0x4F514, size: 0x8, addend: 0x0, symName: __ZNKSt3__117__compressed_pairIPP4RuleRNS_9allocatorIS2_EEE5firstB7v160006Ev, symObjAddr: 0xDA68, symBinAddr: 0x100016598, symSize: 0x24 }
  - { offsetInCU: 0x38392, offset: 0x4F53A, size: 0x8, addend: 0x0, symName: __ZN4RuleC2ER5Lexer, symObjAddr: 0xDA8C, symBinAddr: 0x1000165BC, symSize: 0x458 }
  - { offsetInCU: 0x383F9, offset: 0x4F5A1, size: 0x8, addend: 0x0, symName: __ZN13HeadPredicateC1ER5Lexer, symObjAddr: 0xDEE4, symBinAddr: 0x100016A14, symSize: 0x34 }
  - { offsetInCU: 0x38431, offset: 0x4F5D9, size: 0x8, addend: 0x0, symName: __ZNSt3__16vectorIP9PredicateNS_9allocatorIS2_EEEC1B7v160006Ev, symObjAddr: 0xDF18, symBinAddr: 0x100016A48, symSize: 0x2C }
  - { offsetInCU: 0x3845B, offset: 0x4F603, size: 0x8, addend: 0x0, symName: __ZNSt3__16vectorIP9PredicateNS_9allocatorIS2_EEE9push_backB7v160006EOS2_, symObjAddr: 0xDF44, symBinAddr: 0x100016A74, symSize: 0x6C }
  - { offsetInCU: 0x38492, offset: 0x4F63A, size: 0x8, addend: 0x0, symName: __ZN9PredicateC1ER5Lexer, symObjAddr: 0xDFB0, symBinAddr: 0x100016AE0, symSize: 0x34 }
  - { offsetInCU: 0x384CA, offset: 0x4F672, size: 0x8, addend: 0x0, symName: __ZN9PredicateD1Ev, symObjAddr: 0xDFE4, symBinAddr: 0x100016B14, symSize: 0x2C }
  - { offsetInCU: 0x384F4, offset: 0x4F69C, size: 0x8, addend: 0x0, symName: __ZNSt3__16vectorIP9PredicateNS_9allocatorIS2_EEED1B7v160006Ev, symObjAddr: 0xE010, symBinAddr: 0x100016B40, symSize: 0x2C }
  - { offsetInCU: 0x3851E, offset: 0x4F6C6, size: 0x8, addend: 0x0, symName: __ZN13HeadPredicateD1Ev, symObjAddr: 0xE03C, symBinAddr: 0x100016B6C, symSize: 0x2C }
  - { offsetInCU: 0x38548, offset: 0x4F6F0, size: 0x8, addend: 0x0, symName: __ZN13HeadPredicateC2ER5Lexer, symObjAddr: 0xE068, symBinAddr: 0x100016B98, symSize: 0x458 }
  - { offsetInCU: 0x385AF, offset: 0x4F757, size: 0x8, addend: 0x0, symName: __ZNSt3__16vectorIP9PredicateNS_9allocatorIS2_EEEC2B7v160006Ev, symObjAddr: 0xE4C0, symBinAddr: 0x100016FF0, symSize: 0x58 }
  - { offsetInCU: 0x385D9, offset: 0x4F781, size: 0x8, addend: 0x0, symName: __ZNSt3__117__compressed_pairIPP9PredicateNS_9allocatorIS2_EEEC1B7v160006IDnNS_18__default_init_tagEEEOT_OT0_, symObjAddr: 0xE518, symBinAddr: 0x100017048, symSize: 0x3C }
  - { offsetInCU: 0x38631, offset: 0x4F7D9, size: 0x8, addend: 0x0, symName: __ZNSt3__117__compressed_pairIPP9PredicateNS_9allocatorIS2_EEEC2B7v160006IDnNS_18__default_init_tagEEEOT_OT0_, symObjAddr: 0xE564, symBinAddr: 0x100017094, symSize: 0x40 }
  - { offsetInCU: 0x38689, offset: 0x4F831, size: 0x8, addend: 0x0, symName: __ZNSt3__122__compressed_pair_elemIPP9PredicateLi0ELb0EEC2B7v160006IDnvEEOT_, symObjAddr: 0xE5A4, symBinAddr: 0x1000170D4, symSize: 0x1C }
  - { offsetInCU: 0x386CB, offset: 0x4F873, size: 0x8, addend: 0x0, symName: __ZNSt3__122__compressed_pair_elemINS_9allocatorIP9PredicateEELi1ELb1EEC2B7v160006ENS_18__default_init_tagE, symObjAddr: 0xE5C0, symBinAddr: 0x1000170F0, symSize: 0x2C }
  - { offsetInCU: 0x38700, offset: 0x4F8A8, size: 0x8, addend: 0x0, symName: __ZNSt3__19allocatorIP9PredicateEC2B7v160006Ev, symObjAddr: 0xE5EC, symBinAddr: 0x10001711C, symSize: 0x2C }
  - { offsetInCU: 0x3872A, offset: 0x4F8D2, size: 0x8, addend: 0x0, symName: __ZNSt3__116__non_trivial_ifILb1ENS_9allocatorIP9PredicateEEEC2B7v160006Ev, symObjAddr: 0xE618, symBinAddr: 0x100017148, symSize: 0x14 }
  - { offsetInCU: 0x38754, offset: 0x4F8FC, size: 0x8, addend: 0x0, symName: __ZNSt3__16vectorIP9PredicateNS_9allocatorIS2_EEE9__end_capB7v160006Ev, symObjAddr: 0xE62C, symBinAddr: 0x10001715C, symSize: 0x28 }
  - { offsetInCU: 0x3877F, offset: 0x4F927, size: 0x8, addend: 0x0, symName: __ZNSt3__16vectorIP9PredicateNS_9allocatorIS2_EEE22__construct_one_at_endB7v160006IJS2_EEEvDpOT_, symObjAddr: 0xE654, symBinAddr: 0x100017184, symSize: 0x90 }
  - { offsetInCU: 0x387CE, offset: 0x4F976, size: 0x8, addend: 0x0, symName: __ZNSt3__16vectorIP9PredicateNS_9allocatorIS2_EEE21__push_back_slow_pathIS2_EEvOT_, symObjAddr: 0xE6E4, symBinAddr: 0x100017214, symSize: 0xD8 }
  - { offsetInCU: 0x3882C, offset: 0x4F9D4, size: 0x8, addend: 0x0, symName: __ZNSt3__117__compressed_pairIPP9PredicateNS_9allocatorIS2_EEE5firstB7v160006Ev, symObjAddr: 0xE7BC, symBinAddr: 0x1000172EC, symSize: 0x24 }
  - { offsetInCU: 0x38852, offset: 0x4F9FA, size: 0x8, addend: 0x0, symName: __ZNSt3__122__compressed_pair_elemIPP9PredicateLi0ELb0EE5__getB7v160006Ev, symObjAddr: 0xE7E0, symBinAddr: 0x100017310, symSize: 0x14 }
  - { offsetInCU: 0x38891, offset: 0x4FA39, size: 0x8, addend: 0x0, symName: __ZNSt3__16vectorIP9PredicateNS_9allocatorIS2_EEE21_ConstructTransactionC1B7v160006ERS5_m, symObjAddr: 0xE7F4, symBinAddr: 0x100017324, symSize: 0x3C }
  - { offsetInCU: 0x388D9, offset: 0x4FA81, size: 0x8, addend: 0x0, symName: __ZNSt3__116allocator_traitsINS_9allocatorIP9PredicateEEE9constructB7v160006IS3_JS3_EvEEvRS4_PT_DpOT0_, symObjAddr: 0xE830, symBinAddr: 0x100017360, symSize: 0x34 }
  - { offsetInCU: 0x38930, offset: 0x4FAD8, size: 0x8, addend: 0x0, symName: __ZNSt3__16vectorIP9PredicateNS_9allocatorIS2_EEE7__allocB7v160006Ev, symObjAddr: 0xE864, symBinAddr: 0x100017394, symSize: 0x28 }
  - { offsetInCU: 0x38956, offset: 0x4FAFE, size: 0x8, addend: 0x0, symName: __ZNSt3__16vectorIP9PredicateNS_9allocatorIS2_EEE21_ConstructTransactionD1B7v160006Ev, symObjAddr: 0xE8A0, symBinAddr: 0x1000173D0, symSize: 0x2C }
  - { offsetInCU: 0x38980, offset: 0x4FB28, size: 0x8, addend: 0x0, symName: __ZNSt3__16vectorIP9PredicateNS_9allocatorIS2_EEE21_ConstructTransactionC2B7v160006ERS5_m, symObjAddr: 0xE8CC, symBinAddr: 0x1000173FC, symSize: 0x44 }
  - { offsetInCU: 0x389C8, offset: 0x4FB70, size: 0x8, addend: 0x0, symName: __ZNSt3__19allocatorIP9PredicateE9constructB7v160006IS2_JS2_EEEvPT_DpOT0_, symObjAddr: 0xE910, symBinAddr: 0x100017440, symSize: 0x28 }
  - { offsetInCU: 0x38A1E, offset: 0x4FBC6, size: 0x8, addend: 0x0, symName: __ZNSt3__117__compressed_pairIPP9PredicateNS_9allocatorIS2_EEE6secondB7v160006Ev, symObjAddr: 0xE938, symBinAddr: 0x100017468, symSize: 0x24 }
  - { offsetInCU: 0x38A44, offset: 0x4FBEC, size: 0x8, addend: 0x0, symName: __ZNSt3__122__compressed_pair_elemINS_9allocatorIP9PredicateEELi1ELb1EE5__getB7v160006Ev, symObjAddr: 0xE95C, symBinAddr: 0x10001748C, symSize: 0x14 }
  - { offsetInCU: 0x38A6A, offset: 0x4FC12, size: 0x8, addend: 0x0, symName: __ZNSt3__16vectorIP9PredicateNS_9allocatorIS2_EEE21_ConstructTransactionD2B7v160006Ev, symObjAddr: 0xE970, symBinAddr: 0x1000174A0, symSize: 0x20 }
  - { offsetInCU: 0x38A94, offset: 0x4FC3C, size: 0x8, addend: 0x0, symName: __ZNKSt3__16vectorIP9PredicateNS_9allocatorIS2_EEE11__recommendB7v160006Em, symObjAddr: 0xE990, symBinAddr: 0x1000174C0, symSize: 0xB4 }
  - { offsetInCU: 0x38AE9, offset: 0x4FC91, size: 0x8, addend: 0x0, symName: __ZNSt3__114__split_bufferIP9PredicateRNS_9allocatorIS2_EEEC1EmmS5_, symObjAddr: 0xEA44, symBinAddr: 0x100017574, symSize: 0x44 }
  - { offsetInCU: 0x38B3F, offset: 0x4FCE7, size: 0x8, addend: 0x0, symName: __ZNSt3__114__split_bufferIP9PredicateRNS_9allocatorIS2_EEED1Ev, symObjAddr: 0xEBA0, symBinAddr: 0x1000176D0, symSize: 0x2C }
  - { offsetInCU: 0x38B6B, offset: 0x4FD13, size: 0x8, addend: 0x0, symName: __ZNKSt3__16vectorIP9PredicateNS_9allocatorIS2_EEE8max_sizeEv, symObjAddr: 0xEBCC, symBinAddr: 0x1000176FC, symSize: 0x60 }
  - { offsetInCU: 0x38B93, offset: 0x4FD3B, size: 0x8, addend: 0x0, symName: __ZNKSt3__16vectorIP9PredicateNS_9allocatorIS2_EEE20__throw_length_errorB7v160006Ev, symObjAddr: 0xEC2C, symBinAddr: 0x10001775C, symSize: 0x1C }
  - { offsetInCU: 0x38BB9, offset: 0x4FD61, size: 0x8, addend: 0x0, symName: __ZNKSt3__16vectorIP9PredicateNS_9allocatorIS2_EEE8capacityB7v160006Ev, symObjAddr: 0xEC48, symBinAddr: 0x100017778, symSize: 0x40 }
  - { offsetInCU: 0x38BE9, offset: 0x4FD91, size: 0x8, addend: 0x0, symName: __ZNSt3__116allocator_traitsINS_9allocatorIP9PredicateEEE8max_sizeB7v160006IS4_vEEmRKS4_, symObjAddr: 0xEC88, symBinAddr: 0x1000177B8, symSize: 0x24 }
  - { offsetInCU: 0x38C17, offset: 0x4FDBF, size: 0x8, addend: 0x0, symName: __ZNKSt3__16vectorIP9PredicateNS_9allocatorIS2_EEE7__allocB7v160006Ev, symObjAddr: 0xECAC, symBinAddr: 0x1000177DC, symSize: 0x28 }
  - { offsetInCU: 0x38C3D, offset: 0x4FDE5, size: 0x8, addend: 0x0, symName: __ZNKSt3__19allocatorIP9PredicateE8max_sizeB7v160006Ev, symObjAddr: 0xECD4, symBinAddr: 0x100017804, symSize: 0x14 }
  - { offsetInCU: 0x38C63, offset: 0x4FE0B, size: 0x8, addend: 0x0, symName: __ZNKSt3__117__compressed_pairIPP9PredicateNS_9allocatorIS2_EEE6secondB7v160006Ev, symObjAddr: 0xECE8, symBinAddr: 0x100017818, symSize: 0x24 }
  - { offsetInCU: 0x38C89, offset: 0x4FE31, size: 0x8, addend: 0x0, symName: __ZNKSt3__122__compressed_pair_elemINS_9allocatorIP9PredicateEELi1ELb1EE5__getB7v160006Ev, symObjAddr: 0xED0C, symBinAddr: 0x10001783C, symSize: 0x14 }
  - { offsetInCU: 0x38CAF, offset: 0x4FE57, size: 0x8, addend: 0x0, symName: __ZNKSt3__16vectorIP9PredicateNS_9allocatorIS2_EEE9__end_capB7v160006Ev, symObjAddr: 0xED20, symBinAddr: 0x100017850, symSize: 0x28 }
  - { offsetInCU: 0x38CD5, offset: 0x4FE7D, size: 0x8, addend: 0x0, symName: __ZNKSt3__117__compressed_pairIPP9PredicateNS_9allocatorIS2_EEE5firstB7v160006Ev, symObjAddr: 0xED48, symBinAddr: 0x100017878, symSize: 0x24 }
  - { offsetInCU: 0x38CFB, offset: 0x4FEA3, size: 0x8, addend: 0x0, symName: __ZNKSt3__122__compressed_pair_elemIPP9PredicateLi0ELb0EE5__getB7v160006Ev, symObjAddr: 0xED6C, symBinAddr: 0x10001789C, symSize: 0x14 }
  - { offsetInCU: 0x38D21, offset: 0x4FEC9, size: 0x8, addend: 0x0, symName: __ZNSt3__114__split_bufferIP9PredicateRNS_9allocatorIS2_EEEC2EmmS5_, symObjAddr: 0xED80, symBinAddr: 0x1000178B0, symSize: 0xD4 }
  - { offsetInCU: 0x38D94, offset: 0x4FF3C, size: 0x8, addend: 0x0, symName: __ZNSt3__117__compressed_pairIPP9PredicateRNS_9allocatorIS2_EEEC1B7v160006IDnS6_EEOT_OT0_, symObjAddr: 0xEE54, symBinAddr: 0x100017984, symSize: 0x3C }
  - { offsetInCU: 0x38DEC, offset: 0x4FF94, size: 0x8, addend: 0x0, symName: __ZNSt3__114__split_bufferIP9PredicateRNS_9allocatorIS2_EEE7__allocB7v160006Ev, symObjAddr: 0xEED0, symBinAddr: 0x100017A00, symSize: 0x28 }
  - { offsetInCU: 0x38E12, offset: 0x4FFBA, size: 0x8, addend: 0x0, symName: __ZNSt3__114__split_bufferIP9PredicateRNS_9allocatorIS2_EEE9__end_capB7v160006Ev, symObjAddr: 0xEEF8, symBinAddr: 0x100017A28, symSize: 0x28 }
  - { offsetInCU: 0x38E38, offset: 0x4FFE0, size: 0x8, addend: 0x0, symName: __ZNSt3__117__compressed_pairIPP9PredicateRNS_9allocatorIS2_EEEC2B7v160006IDnS6_EEOT_OT0_, symObjAddr: 0xEF20, symBinAddr: 0x100017A50, symSize: 0x48 }
  - { offsetInCU: 0x38E90, offset: 0x50038, size: 0x8, addend: 0x0, symName: __ZNSt3__122__compressed_pair_elemIRNS_9allocatorIP9PredicateEELi1ELb0EEC2B7v160006IS5_vEEOT_, symObjAddr: 0xEF68, symBinAddr: 0x100017A98, symSize: 0x20 }
  - { offsetInCU: 0x38ED2, offset: 0x5007A, size: 0x8, addend: 0x0, symName: __ZNSt3__19allocatorIP9PredicateE8allocateB7v160006Em, symObjAddr: 0xEF88, symBinAddr: 0x100017AB8, symSize: 0x58 }
  - { offsetInCU: 0x38F06, offset: 0x500AE, size: 0x8, addend: 0x0, symName: __ZNSt3__117__compressed_pairIPP9PredicateRNS_9allocatorIS2_EEE6secondB7v160006Ev, symObjAddr: 0xEFE0, symBinAddr: 0x100017B10, symSize: 0x28 }
  - { offsetInCU: 0x38F2C, offset: 0x500D4, size: 0x8, addend: 0x0, symName: __ZNSt3__122__compressed_pair_elemIRNS_9allocatorIP9PredicateEELi1ELb0EE5__getB7v160006Ev, symObjAddr: 0xF008, symBinAddr: 0x100017B38, symSize: 0x18 }
  - { offsetInCU: 0x38F52, offset: 0x500FA, size: 0x8, addend: 0x0, symName: __ZNSt3__117__compressed_pairIPP9PredicateRNS_9allocatorIS2_EEE5firstB7v160006Ev, symObjAddr: 0xF020, symBinAddr: 0x100017B50, symSize: 0x24 }
  - { offsetInCU: 0x38F78, offset: 0x50120, size: 0x8, addend: 0x0, symName: __ZNKSt3__16vectorIP9PredicateNS_9allocatorIS2_EEE17__annotate_deleteB7v160006Ev, symObjAddr: 0xF044, symBinAddr: 0x100017B74, symSize: 0xB8 }
  - { offsetInCU: 0x38F9E, offset: 0x50146, size: 0x8, addend: 0x0, symName: __ZNSt3__116reverse_iteratorIPP9PredicateEC1B7v160006ES3_, symObjAddr: 0xF174, symBinAddr: 0x100017CA4, symSize: 0x34 }
  - { offsetInCU: 0x38FD6, offset: 0x5017E, size: 0x8, addend: 0x0, symName: __ZNKSt3__116reverse_iteratorIPP9PredicateE4baseB7v160006Ev, symObjAddr: 0xF1A8, symBinAddr: 0x100017CD8, symSize: 0x18 }
  - { offsetInCU: 0x38FFC, offset: 0x501A4, size: 0x8, addend: 0x0, symName: __ZNKSt3__16vectorIP9PredicateNS_9allocatorIS2_EEE14__annotate_newB7v160006Em, symObjAddr: 0xF1FC, symBinAddr: 0x100017D2C, symSize: 0xAC }
  - { offsetInCU: 0x39031, offset: 0x501D9, size: 0x8, addend: 0x0, symName: __ZNKSt3__16vectorIP9PredicateNS_9allocatorIS2_EEE31__annotate_contiguous_containerB7v160006EPKvS7_S7_S7_, symObjAddr: 0xF2B8, symBinAddr: 0x100017DE8, symSize: 0x20 }
  - { offsetInCU: 0x39083, offset: 0x5022B, size: 0x8, addend: 0x0, symName: __ZNKSt3__16vectorIP9PredicateNS_9allocatorIS2_EEE4dataB7v160006Ev, symObjAddr: 0xF2D8, symBinAddr: 0x100017E08, symSize: 0x28 }
  - { offsetInCU: 0x390C2, offset: 0x5026A, size: 0x8, addend: 0x0, symName: __ZNKSt3__111__move_loopINS_17_ClassicAlgPolicyEEclB7v160006INS_16reverse_iteratorIPP9PredicateEES8_S8_EENS_4pairIT_T1_EESA_T0_SB_, symObjAddr: 0xF5F0, symBinAddr: 0x100018120, symSize: 0xA0 }
  - { offsetInCU: 0x3912D, offset: 0x502D5, size: 0x8, addend: 0x0, symName: __ZNSt3__18_IterOpsINS_17_ClassicAlgPolicyEE11__iter_moveB7v160006IRNS_16reverse_iteratorIPP9PredicateEEEENS_9enable_ifIXsr12is_referenceIDTdeclsr3stdE7declvalIRT_EEEEE5valueEDTclsr3stdE4movedeclsr3stdE7declvalISC_EEEEE4typeEOSB_, symObjAddr: 0xF824, symBinAddr: 0x100018354, symSize: 0x28 }
  - { offsetInCU: 0x39159, offset: 0x50301, size: 0x8, addend: 0x0, symName: __ZNKSt3__116reverse_iteratorIPP9PredicateEdeB7v160006Ev, symObjAddr: 0xF84C, symBinAddr: 0x10001837C, symSize: 0x28 }
  - { offsetInCU: 0x3918D, offset: 0x50335, size: 0x8, addend: 0x0, symName: __ZNSt3__116reverse_iteratorIPP9PredicateEppB7v160006Ev, symObjAddr: 0xF874, symBinAddr: 0x1000183A4, symSize: 0x20 }
  - { offsetInCU: 0x391B3, offset: 0x5035B, size: 0x8, addend: 0x0, symName: __ZNSt3__18_IterOpsINS_17_ClassicAlgPolicyEE25__validate_iter_referenceB7v160006IRNS_16reverse_iteratorIPP9PredicateEEEEvv, symObjAddr: 0xF894, symBinAddr: 0x1000183C4, symSize: 0x4 }
  - { offsetInCU: 0x391D1, offset: 0x50379, size: 0x8, addend: 0x0, symName: __ZNSt3__118__unwrap_iter_implINS_16reverse_iteratorIPP9PredicateEELb0EE8__unwrapB7v160006ES5_, symObjAddr: 0xF898, symBinAddr: 0x1000183C8, symSize: 0x24 }
  - { offsetInCU: 0x391F9, offset: 0x503A1, size: 0x8, addend: 0x0, symName: __ZNSt3__14pairINS_16reverse_iteratorIPP9PredicateEES5_EC1B7v160006IS5_S5_LPv0EEEOT_OT0_, symObjAddr: 0xF8BC, symBinAddr: 0x1000183EC, symSize: 0x3C }
  - { offsetInCU: 0x39257, offset: 0x503FF, size: 0x8, addend: 0x0, symName: __ZNSt3__14pairINS_16reverse_iteratorIPP9PredicateEES5_EC2B7v160006IS5_S5_LPv0EEEOT_OT0_, symObjAddr: 0xF8F8, symBinAddr: 0x100018428, symSize: 0x34 }
  - { offsetInCU: 0x392B5, offset: 0x5045D, size: 0x8, addend: 0x0, symName: __ZNSt3__118__unwrap_iter_implINS_16reverse_iteratorIPP9PredicateEELb0EE8__rewrapB7v160006ES5_S5_, symObjAddr: 0xF92C, symBinAddr: 0x10001845C, symSize: 0x2C }
  - { offsetInCU: 0x392E3, offset: 0x5048B, size: 0x8, addend: 0x0, symName: __ZNSt3__116reverse_iteratorIPP9PredicateEC2B7v160006ES3_, symObjAddr: 0xF958, symBinAddr: 0x100018488, symSize: 0x28 }
  - { offsetInCU: 0x3931B, offset: 0x504C3, size: 0x8, addend: 0x0, symName: __ZNSt3__114__split_bufferIP9PredicateRNS_9allocatorIS2_EEED2Ev, symObjAddr: 0xF980, symBinAddr: 0x1000184B0, symSize: 0x8C }
  - { offsetInCU: 0x39347, offset: 0x504EF, size: 0x8, addend: 0x0, symName: __ZNSt3__114__split_bufferIP9PredicateRNS_9allocatorIS2_EEE5clearB7v160006Ev, symObjAddr: 0xFA0C, symBinAddr: 0x10001853C, symSize: 0x28 }
  - { offsetInCU: 0x3936D, offset: 0x50515, size: 0x8, addend: 0x0, symName: __ZNSt3__116allocator_traitsINS_9allocatorIP9PredicateEEE10deallocateB7v160006ERS4_PS3_m, symObjAddr: 0xFA34, symBinAddr: 0x100018564, symSize: 0x34 }
  - { offsetInCU: 0x393AF, offset: 0x50557, size: 0x8, addend: 0x0, symName: __ZNKSt3__114__split_bufferIP9PredicateRNS_9allocatorIS2_EEE8capacityB7v160006Ev, symObjAddr: 0xFA68, symBinAddr: 0x100018598, symSize: 0x40 }
  - { offsetInCU: 0x393D5, offset: 0x5057D, size: 0x8, addend: 0x0, symName: __ZNSt3__114__split_bufferIP9PredicateRNS_9allocatorIS2_EEE17__destruct_at_endB7v160006EPS2_, symObjAddr: 0xFAA8, symBinAddr: 0x1000185D8, symSize: 0x2C }
  - { offsetInCU: 0x39409, offset: 0x505B1, size: 0x8, addend: 0x0, symName: __ZNSt3__114__split_bufferIP9PredicateRNS_9allocatorIS2_EEE17__destruct_at_endB7v160006EPS2_NS_17integral_constantIbLb0EEE, symObjAddr: 0xFAD4, symBinAddr: 0x100018604, symSize: 0x80 }
  - { offsetInCU: 0x3944A, offset: 0x505F2, size: 0x8, addend: 0x0, symName: __ZNSt3__116allocator_traitsINS_9allocatorIP9PredicateEEE7destroyB7v160006IS3_vEEvRS4_PT_, symObjAddr: 0xFB54, symBinAddr: 0x100018684, symSize: 0x2C }
  - { offsetInCU: 0x39487, offset: 0x5062F, size: 0x8, addend: 0x0, symName: __ZNSt3__19allocatorIP9PredicateE7destroyB7v160006EPS2_, symObjAddr: 0xFB80, symBinAddr: 0x1000186B0, symSize: 0x14 }
  - { offsetInCU: 0x394BB, offset: 0x50663, size: 0x8, addend: 0x0, symName: __ZNSt3__19allocatorIP9PredicateE10deallocateB7v160006EPS2_m, symObjAddr: 0xFB94, symBinAddr: 0x1000186C4, symSize: 0x40 }
  - { offsetInCU: 0x394FD, offset: 0x506A5, size: 0x8, addend: 0x0, symName: __ZNKSt3__114__split_bufferIP9PredicateRNS_9allocatorIS2_EEE9__end_capB7v160006Ev, symObjAddr: 0xFBD4, symBinAddr: 0x100018704, symSize: 0x28 }
  - { offsetInCU: 0x39523, offset: 0x506CB, size: 0x8, addend: 0x0, symName: __ZNKSt3__117__compressed_pairIPP9PredicateRNS_9allocatorIS2_EEE5firstB7v160006Ev, symObjAddr: 0xFBFC, symBinAddr: 0x10001872C, symSize: 0x24 }
  - { offsetInCU: 0x39549, offset: 0x506F1, size: 0x8, addend: 0x0, symName: __ZN9PredicateC2ER5Lexer, symObjAddr: 0xFC20, symBinAddr: 0x100018750, symSize: 0x404 }
  - { offsetInCU: 0x395B0, offset: 0x50758, size: 0x8, addend: 0x0, symName: __ZNSt3__16vectorIP9ParameterNS_9allocatorIS2_EEEC1B7v160006Ev, symObjAddr: 0x10024, symBinAddr: 0x100018B54, symSize: 0x2C }
  - { offsetInCU: 0x395DA, offset: 0x50782, size: 0x8, addend: 0x0, symName: __ZNSt3__16vectorIP9ParameterNS_9allocatorIS2_EEE9push_backB7v160006EOS2_, symObjAddr: 0x10050, symBinAddr: 0x100018B80, symSize: 0x6C }
  - { offsetInCU: 0x39611, offset: 0x507B9, size: 0x8, addend: 0x0, symName: __ZNSt3__16vectorIP9ParameterNS_9allocatorIS2_EEED1B7v160006Ev, symObjAddr: 0x100BC, symBinAddr: 0x100018BEC, symSize: 0x2C }
  - { offsetInCU: 0x3963B, offset: 0x507E3, size: 0x8, addend: 0x0, symName: __ZNSt3__16vectorIP9ParameterNS_9allocatorIS2_EEEC2B7v160006Ev, symObjAddr: 0x100E8, symBinAddr: 0x100018C18, symSize: 0x58 }
  - { offsetInCU: 0x39665, offset: 0x5080D, size: 0x8, addend: 0x0, symName: __ZNSt3__117__compressed_pairIPP9ParameterNS_9allocatorIS2_EEEC1B7v160006IDnNS_18__default_init_tagEEEOT_OT0_, symObjAddr: 0x10140, symBinAddr: 0x100018C70, symSize: 0x3C }
  - { offsetInCU: 0x396BD, offset: 0x50865, size: 0x8, addend: 0x0, symName: __ZNSt3__117__compressed_pairIPP9ParameterNS_9allocatorIS2_EEEC2B7v160006IDnNS_18__default_init_tagEEEOT_OT0_, symObjAddr: 0x1018C, symBinAddr: 0x100018CBC, symSize: 0x40 }
  - { offsetInCU: 0x39715, offset: 0x508BD, size: 0x8, addend: 0x0, symName: __ZNSt3__122__compressed_pair_elemIPP9ParameterLi0ELb0EEC2B7v160006IDnvEEOT_, symObjAddr: 0x101CC, symBinAddr: 0x100018CFC, symSize: 0x1C }
  - { offsetInCU: 0x39757, offset: 0x508FF, size: 0x8, addend: 0x0, symName: __ZNSt3__122__compressed_pair_elemINS_9allocatorIP9ParameterEELi1ELb1EEC2B7v160006ENS_18__default_init_tagE, symObjAddr: 0x101E8, symBinAddr: 0x100018D18, symSize: 0x2C }
  - { offsetInCU: 0x3978C, offset: 0x50934, size: 0x8, addend: 0x0, symName: __ZNSt3__19allocatorIP9ParameterEC2B7v160006Ev, symObjAddr: 0x10214, symBinAddr: 0x100018D44, symSize: 0x2C }
  - { offsetInCU: 0x397B6, offset: 0x5095E, size: 0x8, addend: 0x0, symName: __ZNSt3__116__non_trivial_ifILb1ENS_9allocatorIP9ParameterEEEC2B7v160006Ev, symObjAddr: 0x10240, symBinAddr: 0x100018D70, symSize: 0x14 }
  - { offsetInCU: 0x397E0, offset: 0x50988, size: 0x8, addend: 0x0, symName: __ZNSt3__16vectorIP9ParameterNS_9allocatorIS2_EEE9__end_capB7v160006Ev, symObjAddr: 0x10254, symBinAddr: 0x100018D84, symSize: 0x28 }
  - { offsetInCU: 0x3980B, offset: 0x509B3, size: 0x8, addend: 0x0, symName: __ZNSt3__16vectorIP9ParameterNS_9allocatorIS2_EEE22__construct_one_at_endB7v160006IJS2_EEEvDpOT_, symObjAddr: 0x1027C, symBinAddr: 0x100018DAC, symSize: 0x90 }
  - { offsetInCU: 0x3985A, offset: 0x50A02, size: 0x8, addend: 0x0, symName: __ZNSt3__16vectorIP9ParameterNS_9allocatorIS2_EEE21__push_back_slow_pathIS2_EEvOT_, symObjAddr: 0x1030C, symBinAddr: 0x100018E3C, symSize: 0xD8 }
  - { offsetInCU: 0x398B8, offset: 0x50A60, size: 0x8, addend: 0x0, symName: __ZNSt3__117__compressed_pairIPP9ParameterNS_9allocatorIS2_EEE5firstB7v160006Ev, symObjAddr: 0x103E4, symBinAddr: 0x100018F14, symSize: 0x24 }
  - { offsetInCU: 0x398DE, offset: 0x50A86, size: 0x8, addend: 0x0, symName: __ZNSt3__122__compressed_pair_elemIPP9ParameterLi0ELb0EE5__getB7v160006Ev, symObjAddr: 0x10408, symBinAddr: 0x100018F38, symSize: 0x14 }
  - { offsetInCU: 0x3991D, offset: 0x50AC5, size: 0x8, addend: 0x0, symName: __ZNSt3__16vectorIP9ParameterNS_9allocatorIS2_EEE21_ConstructTransactionC1B7v160006ERS5_m, symObjAddr: 0x1041C, symBinAddr: 0x100018F4C, symSize: 0x3C }
  - { offsetInCU: 0x39965, offset: 0x50B0D, size: 0x8, addend: 0x0, symName: __ZNSt3__116allocator_traitsINS_9allocatorIP9ParameterEEE9constructB7v160006IS3_JS3_EvEEvRS4_PT_DpOT0_, symObjAddr: 0x10458, symBinAddr: 0x100018F88, symSize: 0x34 }
  - { offsetInCU: 0x399BC, offset: 0x50B64, size: 0x8, addend: 0x0, symName: __ZNSt3__16vectorIP9ParameterNS_9allocatorIS2_EEE7__allocB7v160006Ev, symObjAddr: 0x1048C, symBinAddr: 0x100018FBC, symSize: 0x28 }
  - { offsetInCU: 0x399E2, offset: 0x50B8A, size: 0x8, addend: 0x0, symName: __ZNSt3__16vectorIP9ParameterNS_9allocatorIS2_EEE21_ConstructTransactionD1B7v160006Ev, symObjAddr: 0x104C8, symBinAddr: 0x100018FF8, symSize: 0x2C }
  - { offsetInCU: 0x39A0C, offset: 0x50BB4, size: 0x8, addend: 0x0, symName: __ZNSt3__16vectorIP9ParameterNS_9allocatorIS2_EEE21_ConstructTransactionC2B7v160006ERS5_m, symObjAddr: 0x104F4, symBinAddr: 0x100019024, symSize: 0x44 }
  - { offsetInCU: 0x39A54, offset: 0x50BFC, size: 0x8, addend: 0x0, symName: __ZNSt3__19allocatorIP9ParameterE9constructB7v160006IS2_JS2_EEEvPT_DpOT0_, symObjAddr: 0x10538, symBinAddr: 0x100019068, symSize: 0x28 }
  - { offsetInCU: 0x39AAA, offset: 0x50C52, size: 0x8, addend: 0x0, symName: __ZNSt3__117__compressed_pairIPP9ParameterNS_9allocatorIS2_EEE6secondB7v160006Ev, symObjAddr: 0x10560, symBinAddr: 0x100019090, symSize: 0x24 }
  - { offsetInCU: 0x39AD0, offset: 0x50C78, size: 0x8, addend: 0x0, symName: __ZNSt3__122__compressed_pair_elemINS_9allocatorIP9ParameterEELi1ELb1EE5__getB7v160006Ev, symObjAddr: 0x10584, symBinAddr: 0x1000190B4, symSize: 0x14 }
  - { offsetInCU: 0x39AF6, offset: 0x50C9E, size: 0x8, addend: 0x0, symName: __ZNSt3__16vectorIP9ParameterNS_9allocatorIS2_EEE21_ConstructTransactionD2B7v160006Ev, symObjAddr: 0x10598, symBinAddr: 0x1000190C8, symSize: 0x20 }
  - { offsetInCU: 0x39B20, offset: 0x50CC8, size: 0x8, addend: 0x0, symName: __ZNKSt3__16vectorIP9ParameterNS_9allocatorIS2_EEE11__recommendB7v160006Em, symObjAddr: 0x105B8, symBinAddr: 0x1000190E8, symSize: 0xB4 }
  - { offsetInCU: 0x39B75, offset: 0x50D1D, size: 0x8, addend: 0x0, symName: __ZNSt3__114__split_bufferIP9ParameterRNS_9allocatorIS2_EEEC1EmmS5_, symObjAddr: 0x1066C, symBinAddr: 0x10001919C, symSize: 0x44 }
  - { offsetInCU: 0x39BCB, offset: 0x50D73, size: 0x8, addend: 0x0, symName: __ZNSt3__114__split_bufferIP9ParameterRNS_9allocatorIS2_EEED1Ev, symObjAddr: 0x107C8, symBinAddr: 0x1000192F8, symSize: 0x2C }
  - { offsetInCU: 0x39BF7, offset: 0x50D9F, size: 0x8, addend: 0x0, symName: __ZNKSt3__16vectorIP9ParameterNS_9allocatorIS2_EEE8max_sizeEv, symObjAddr: 0x107F4, symBinAddr: 0x100019324, symSize: 0x60 }
  - { offsetInCU: 0x39C1F, offset: 0x50DC7, size: 0x8, addend: 0x0, symName: __ZNKSt3__16vectorIP9ParameterNS_9allocatorIS2_EEE20__throw_length_errorB7v160006Ev, symObjAddr: 0x10854, symBinAddr: 0x100019384, symSize: 0x1C }
  - { offsetInCU: 0x39C45, offset: 0x50DED, size: 0x8, addend: 0x0, symName: __ZNKSt3__16vectorIP9ParameterNS_9allocatorIS2_EEE8capacityB7v160006Ev, symObjAddr: 0x10870, symBinAddr: 0x1000193A0, symSize: 0x40 }
  - { offsetInCU: 0x39C75, offset: 0x50E1D, size: 0x8, addend: 0x0, symName: __ZNSt3__116allocator_traitsINS_9allocatorIP9ParameterEEE8max_sizeB7v160006IS4_vEEmRKS4_, symObjAddr: 0x108B0, symBinAddr: 0x1000193E0, symSize: 0x24 }
  - { offsetInCU: 0x39CA3, offset: 0x50E4B, size: 0x8, addend: 0x0, symName: __ZNKSt3__16vectorIP9ParameterNS_9allocatorIS2_EEE7__allocB7v160006Ev, symObjAddr: 0x108D4, symBinAddr: 0x100019404, symSize: 0x28 }
  - { offsetInCU: 0x39CC9, offset: 0x50E71, size: 0x8, addend: 0x0, symName: __ZNKSt3__19allocatorIP9ParameterE8max_sizeB7v160006Ev, symObjAddr: 0x108FC, symBinAddr: 0x10001942C, symSize: 0x14 }
  - { offsetInCU: 0x39CEF, offset: 0x50E97, size: 0x8, addend: 0x0, symName: __ZNKSt3__117__compressed_pairIPP9ParameterNS_9allocatorIS2_EEE6secondB7v160006Ev, symObjAddr: 0x10910, symBinAddr: 0x100019440, symSize: 0x24 }
  - { offsetInCU: 0x39D15, offset: 0x50EBD, size: 0x8, addend: 0x0, symName: __ZNKSt3__122__compressed_pair_elemINS_9allocatorIP9ParameterEELi1ELb1EE5__getB7v160006Ev, symObjAddr: 0x10934, symBinAddr: 0x100019464, symSize: 0x14 }
  - { offsetInCU: 0x39D3B, offset: 0x50EE3, size: 0x8, addend: 0x0, symName: __ZNKSt3__16vectorIP9ParameterNS_9allocatorIS2_EEE9__end_capB7v160006Ev, symObjAddr: 0x10948, symBinAddr: 0x100019478, symSize: 0x28 }
  - { offsetInCU: 0x39D61, offset: 0x50F09, size: 0x8, addend: 0x0, symName: __ZNKSt3__117__compressed_pairIPP9ParameterNS_9allocatorIS2_EEE5firstB7v160006Ev, symObjAddr: 0x10970, symBinAddr: 0x1000194A0, symSize: 0x24 }
  - { offsetInCU: 0x39D87, offset: 0x50F2F, size: 0x8, addend: 0x0, symName: __ZNKSt3__122__compressed_pair_elemIPP9ParameterLi0ELb0EE5__getB7v160006Ev, symObjAddr: 0x10994, symBinAddr: 0x1000194C4, symSize: 0x14 }
  - { offsetInCU: 0x39DAD, offset: 0x50F55, size: 0x8, addend: 0x0, symName: __ZNSt3__114__split_bufferIP9ParameterRNS_9allocatorIS2_EEEC2EmmS5_, symObjAddr: 0x109A8, symBinAddr: 0x1000194D8, symSize: 0xD4 }
  - { offsetInCU: 0x39E20, offset: 0x50FC8, size: 0x8, addend: 0x0, symName: __ZNSt3__117__compressed_pairIPP9ParameterRNS_9allocatorIS2_EEEC1B7v160006IDnS6_EEOT_OT0_, symObjAddr: 0x10A7C, symBinAddr: 0x1000195AC, symSize: 0x3C }
  - { offsetInCU: 0x39E78, offset: 0x51020, size: 0x8, addend: 0x0, symName: __ZNSt3__114__split_bufferIP9ParameterRNS_9allocatorIS2_EEE7__allocB7v160006Ev, symObjAddr: 0x10AF8, symBinAddr: 0x100019628, symSize: 0x28 }
  - { offsetInCU: 0x39E9E, offset: 0x51046, size: 0x8, addend: 0x0, symName: __ZNSt3__114__split_bufferIP9ParameterRNS_9allocatorIS2_EEE9__end_capB7v160006Ev, symObjAddr: 0x10B20, symBinAddr: 0x100019650, symSize: 0x28 }
  - { offsetInCU: 0x39EC4, offset: 0x5106C, size: 0x8, addend: 0x0, symName: __ZNSt3__117__compressed_pairIPP9ParameterRNS_9allocatorIS2_EEEC2B7v160006IDnS6_EEOT_OT0_, symObjAddr: 0x10B48, symBinAddr: 0x100019678, symSize: 0x48 }
  - { offsetInCU: 0x39F1C, offset: 0x510C4, size: 0x8, addend: 0x0, symName: __ZNSt3__122__compressed_pair_elemIRNS_9allocatorIP9ParameterEELi1ELb0EEC2B7v160006IS5_vEEOT_, symObjAddr: 0x10B90, symBinAddr: 0x1000196C0, symSize: 0x20 }
  - { offsetInCU: 0x39F5E, offset: 0x51106, size: 0x8, addend: 0x0, symName: __ZNSt3__19allocatorIP9ParameterE8allocateB7v160006Em, symObjAddr: 0x10BB0, symBinAddr: 0x1000196E0, symSize: 0x58 }
  - { offsetInCU: 0x39F92, offset: 0x5113A, size: 0x8, addend: 0x0, symName: __ZNSt3__117__compressed_pairIPP9ParameterRNS_9allocatorIS2_EEE6secondB7v160006Ev, symObjAddr: 0x10C08, symBinAddr: 0x100019738, symSize: 0x28 }
  - { offsetInCU: 0x39FB8, offset: 0x51160, size: 0x8, addend: 0x0, symName: __ZNSt3__122__compressed_pair_elemIRNS_9allocatorIP9ParameterEELi1ELb0EE5__getB7v160006Ev, symObjAddr: 0x10C30, symBinAddr: 0x100019760, symSize: 0x18 }
  - { offsetInCU: 0x39FDE, offset: 0x51186, size: 0x8, addend: 0x0, symName: __ZNSt3__117__compressed_pairIPP9ParameterRNS_9allocatorIS2_EEE5firstB7v160006Ev, symObjAddr: 0x10C48, symBinAddr: 0x100019778, symSize: 0x24 }
  - { offsetInCU: 0x3A004, offset: 0x511AC, size: 0x8, addend: 0x0, symName: __ZNKSt3__16vectorIP9ParameterNS_9allocatorIS2_EEE17__annotate_deleteB7v160006Ev, symObjAddr: 0x10C6C, symBinAddr: 0x10001979C, symSize: 0xB8 }
  - { offsetInCU: 0x3A02A, offset: 0x511D2, size: 0x8, addend: 0x0, symName: __ZNSt3__116reverse_iteratorIPP9ParameterEC1B7v160006ES3_, symObjAddr: 0x10D9C, symBinAddr: 0x1000198CC, symSize: 0x34 }
  - { offsetInCU: 0x3A062, offset: 0x5120A, size: 0x8, addend: 0x0, symName: __ZNKSt3__116reverse_iteratorIPP9ParameterE4baseB7v160006Ev, symObjAddr: 0x10DD0, symBinAddr: 0x100019900, symSize: 0x18 }
  - { offsetInCU: 0x3A088, offset: 0x51230, size: 0x8, addend: 0x0, symName: __ZNKSt3__16vectorIP9ParameterNS_9allocatorIS2_EEE14__annotate_newB7v160006Em, symObjAddr: 0x10E24, symBinAddr: 0x100019954, symSize: 0xAC }
  - { offsetInCU: 0x3A0BD, offset: 0x51265, size: 0x8, addend: 0x0, symName: __ZNKSt3__16vectorIP9ParameterNS_9allocatorIS2_EEE31__annotate_contiguous_containerB7v160006EPKvS7_S7_S7_, symObjAddr: 0x10EE0, symBinAddr: 0x100019A10, symSize: 0x20 }
  - { offsetInCU: 0x3A10F, offset: 0x512B7, size: 0x8, addend: 0x0, symName: __ZNKSt3__16vectorIP9ParameterNS_9allocatorIS2_EEE4dataB7v160006Ev, symObjAddr: 0x10F00, symBinAddr: 0x100019A30, symSize: 0x28 }
  - { offsetInCU: 0x3A14E, offset: 0x512F6, size: 0x8, addend: 0x0, symName: __ZNKSt3__111__move_loopINS_17_ClassicAlgPolicyEEclB7v160006INS_16reverse_iteratorIPP9ParameterEES8_S8_EENS_4pairIT_T1_EESA_T0_SB_, symObjAddr: 0x11218, symBinAddr: 0x100019D48, symSize: 0xA0 }
  - { offsetInCU: 0x3A1B9, offset: 0x51361, size: 0x8, addend: 0x0, symName: __ZNSt3__18_IterOpsINS_17_ClassicAlgPolicyEE11__iter_moveB7v160006IRNS_16reverse_iteratorIPP9ParameterEEEENS_9enable_ifIXsr12is_referenceIDTdeclsr3stdE7declvalIRT_EEEEE5valueEDTclsr3stdE4movedeclsr3stdE7declvalISC_EEEEE4typeEOSB_, symObjAddr: 0x1144C, symBinAddr: 0x100019F7C, symSize: 0x28 }
  - { offsetInCU: 0x3A1E5, offset: 0x5138D, size: 0x8, addend: 0x0, symName: __ZNKSt3__116reverse_iteratorIPP9ParameterEdeB7v160006Ev, symObjAddr: 0x11474, symBinAddr: 0x100019FA4, symSize: 0x28 }
  - { offsetInCU: 0x3A219, offset: 0x513C1, size: 0x8, addend: 0x0, symName: __ZNSt3__116reverse_iteratorIPP9ParameterEppB7v160006Ev, symObjAddr: 0x1149C, symBinAddr: 0x100019FCC, symSize: 0x20 }
  - { offsetInCU: 0x3A23F, offset: 0x513E7, size: 0x8, addend: 0x0, symName: __ZNSt3__18_IterOpsINS_17_ClassicAlgPolicyEE25__validate_iter_referenceB7v160006IRNS_16reverse_iteratorIPP9ParameterEEEEvv, symObjAddr: 0x114BC, symBinAddr: 0x100019FEC, symSize: 0x4 }
  - { offsetInCU: 0x3A25D, offset: 0x51405, size: 0x8, addend: 0x0, symName: __ZNSt3__118__unwrap_iter_implINS_16reverse_iteratorIPP9ParameterEELb0EE8__unwrapB7v160006ES5_, symObjAddr: 0x114C0, symBinAddr: 0x100019FF0, symSize: 0x24 }
  - { offsetInCU: 0x3A285, offset: 0x5142D, size: 0x8, addend: 0x0, symName: __ZNSt3__14pairINS_16reverse_iteratorIPP9ParameterEES5_EC1B7v160006IS5_S5_LPv0EEEOT_OT0_, symObjAddr: 0x114E4, symBinAddr: 0x10001A014, symSize: 0x3C }
  - { offsetInCU: 0x3A2E3, offset: 0x5148B, size: 0x8, addend: 0x0, symName: __ZNSt3__14pairINS_16reverse_iteratorIPP9ParameterEES5_EC2B7v160006IS5_S5_LPv0EEEOT_OT0_, symObjAddr: 0x11520, symBinAddr: 0x10001A050, symSize: 0x34 }
  - { offsetInCU: 0x3A341, offset: 0x514E9, size: 0x8, addend: 0x0, symName: __ZNSt3__118__unwrap_iter_implINS_16reverse_iteratorIPP9ParameterEELb0EE8__rewrapB7v160006ES5_S5_, symObjAddr: 0x11554, symBinAddr: 0x10001A084, symSize: 0x2C }
  - { offsetInCU: 0x3A36F, offset: 0x51517, size: 0x8, addend: 0x0, symName: __ZNSt3__116reverse_iteratorIPP9ParameterEC2B7v160006ES3_, symObjAddr: 0x11580, symBinAddr: 0x10001A0B0, symSize: 0x28 }
  - { offsetInCU: 0x3A3A7, offset: 0x5154F, size: 0x8, addend: 0x0, symName: __ZNSt3__114__split_bufferIP9ParameterRNS_9allocatorIS2_EEED2Ev, symObjAddr: 0x115A8, symBinAddr: 0x10001A0D8, symSize: 0x8C }
  - { offsetInCU: 0x3A3D3, offset: 0x5157B, size: 0x8, addend: 0x0, symName: __ZNSt3__114__split_bufferIP9ParameterRNS_9allocatorIS2_EEE5clearB7v160006Ev, symObjAddr: 0x11634, symBinAddr: 0x10001A164, symSize: 0x28 }
  - { offsetInCU: 0x3A3F9, offset: 0x515A1, size: 0x8, addend: 0x0, symName: __ZNSt3__116allocator_traitsINS_9allocatorIP9ParameterEEE10deallocateB7v160006ERS4_PS3_m, symObjAddr: 0x1165C, symBinAddr: 0x10001A18C, symSize: 0x34 }
  - { offsetInCU: 0x3A43B, offset: 0x515E3, size: 0x8, addend: 0x0, symName: __ZNKSt3__114__split_bufferIP9ParameterRNS_9allocatorIS2_EEE8capacityB7v160006Ev, symObjAddr: 0x11690, symBinAddr: 0x10001A1C0, symSize: 0x40 }
  - { offsetInCU: 0x3A461, offset: 0x51609, size: 0x8, addend: 0x0, symName: __ZNSt3__114__split_bufferIP9ParameterRNS_9allocatorIS2_EEE17__destruct_at_endB7v160006EPS2_, symObjAddr: 0x116D0, symBinAddr: 0x10001A200, symSize: 0x2C }
  - { offsetInCU: 0x3A495, offset: 0x5163D, size: 0x8, addend: 0x0, symName: __ZNSt3__114__split_bufferIP9ParameterRNS_9allocatorIS2_EEE17__destruct_at_endB7v160006EPS2_NS_17integral_constantIbLb0EEE, symObjAddr: 0x116FC, symBinAddr: 0x10001A22C, symSize: 0x80 }
  - { offsetInCU: 0x3A4D6, offset: 0x5167E, size: 0x8, addend: 0x0, symName: __ZNSt3__116allocator_traitsINS_9allocatorIP9ParameterEEE7destroyB7v160006IS3_vEEvRS4_PT_, symObjAddr: 0x1177C, symBinAddr: 0x10001A2AC, symSize: 0x2C }
  - { offsetInCU: 0x3A513, offset: 0x516BB, size: 0x8, addend: 0x0, symName: __ZNSt3__19allocatorIP9ParameterE7destroyB7v160006EPS2_, symObjAddr: 0x117A8, symBinAddr: 0x10001A2D8, symSize: 0x14 }
  - { offsetInCU: 0x3A547, offset: 0x516EF, size: 0x8, addend: 0x0, symName: __ZNSt3__19allocatorIP9ParameterE10deallocateB7v160006EPS2_m, symObjAddr: 0x117BC, symBinAddr: 0x10001A2EC, symSize: 0x40 }
  - { offsetInCU: 0x3A589, offset: 0x51731, size: 0x8, addend: 0x0, symName: __ZNKSt3__114__split_bufferIP9ParameterRNS_9allocatorIS2_EEE9__end_capB7v160006Ev, symObjAddr: 0x117FC, symBinAddr: 0x10001A32C, symSize: 0x28 }
  - { offsetInCU: 0x3A5AF, offset: 0x51757, size: 0x8, addend: 0x0, symName: __ZNKSt3__117__compressed_pairIPP9ParameterRNS_9allocatorIS2_EEE5firstB7v160006Ev, symObjAddr: 0x11824, symBinAddr: 0x10001A354, symSize: 0x24 }
  - { offsetInCU: 0x3A5D5, offset: 0x5177D, size: 0x8, addend: 0x0, symName: __ZNSt3__16vectorIP9ParameterNS_9allocatorIS2_EEED2B7v160006Ev, symObjAddr: 0x11848, symBinAddr: 0x10001A378, symSize: 0x44 }
  - { offsetInCU: 0x3A5FF, offset: 0x517A7, size: 0x8, addend: 0x0, symName: __ZNSt3__16vectorIP9ParameterNS_9allocatorIS2_EEE16__destroy_vectorC1ERS5_, symObjAddr: 0x1188C, symBinAddr: 0x10001A3BC, symSize: 0x34 }
  - { offsetInCU: 0x3A638, offset: 0x517E0, size: 0x8, addend: 0x0, symName: __ZNSt3__16vectorIP9ParameterNS_9allocatorIS2_EEE16__destroy_vectorclB7v160006Ev, symObjAddr: 0x118C0, symBinAddr: 0x10001A3F0, symSize: 0x9C }
  - { offsetInCU: 0x3A65E, offset: 0x51806, size: 0x8, addend: 0x0, symName: __ZNSt3__16vectorIP9ParameterNS_9allocatorIS2_EEE16__destroy_vectorC2ERS5_, symObjAddr: 0x1195C, symBinAddr: 0x10001A48C, symSize: 0x20 }
  - { offsetInCU: 0x3A697, offset: 0x5183F, size: 0x8, addend: 0x0, symName: __ZNSt3__16vectorIP9ParameterNS_9allocatorIS2_EEE7__clearB7v160006Ev, symObjAddr: 0x1198C, symBinAddr: 0x10001A4BC, symSize: 0x28 }
  - { offsetInCU: 0x3A6BD, offset: 0x51865, size: 0x8, addend: 0x0, symName: __ZNSt3__16vectorIP9ParameterNS_9allocatorIS2_EEE22__base_destruct_at_endB7v160006EPS2_, symObjAddr: 0x119B4, symBinAddr: 0x10001A4E4, symSize: 0x8C }
  - { offsetInCU: 0x3A701, offset: 0x518A9, size: 0x8, addend: 0x0, symName: __ZN9PredicateD2Ev, symObjAddr: 0x11A40, symBinAddr: 0x10001A570, symSize: 0xFC }
  - { offsetInCU: 0x3A73F, offset: 0x518E7, size: 0x8, addend: 0x0, symName: __ZNSt3__16vectorIP9PredicateNS_9allocatorIS2_EEED2B7v160006Ev, symObjAddr: 0x11B3C, symBinAddr: 0x10001A66C, symSize: 0x44 }
  - { offsetInCU: 0x3A769, offset: 0x51911, size: 0x8, addend: 0x0, symName: __ZNSt3__16vectorIP9PredicateNS_9allocatorIS2_EEE16__destroy_vectorC1ERS5_, symObjAddr: 0x11B80, symBinAddr: 0x10001A6B0, symSize: 0x34 }
  - { offsetInCU: 0x3A7A2, offset: 0x5194A, size: 0x8, addend: 0x0, symName: __ZNSt3__16vectorIP9PredicateNS_9allocatorIS2_EEE16__destroy_vectorclB7v160006Ev, symObjAddr: 0x11BB4, symBinAddr: 0x10001A6E4, symSize: 0x9C }
  - { offsetInCU: 0x3A7C8, offset: 0x51970, size: 0x8, addend: 0x0, symName: __ZNSt3__16vectorIP9PredicateNS_9allocatorIS2_EEE16__destroy_vectorC2ERS5_, symObjAddr: 0x11C50, symBinAddr: 0x10001A780, symSize: 0x20 }
  - { offsetInCU: 0x3A801, offset: 0x519A9, size: 0x8, addend: 0x0, symName: __ZNSt3__16vectorIP9PredicateNS_9allocatorIS2_EEE7__clearB7v160006Ev, symObjAddr: 0x11C80, symBinAddr: 0x10001A7B0, symSize: 0x28 }
  - { offsetInCU: 0x3A827, offset: 0x519CF, size: 0x8, addend: 0x0, symName: __ZNSt3__16vectorIP9PredicateNS_9allocatorIS2_EEE22__base_destruct_at_endB7v160006EPS2_, symObjAddr: 0x11CA8, symBinAddr: 0x10001A7D8, symSize: 0x8C }
  - { offsetInCU: 0x3A86B, offset: 0x51A13, size: 0x8, addend: 0x0, symName: __ZN13HeadPredicateD2Ev, symObjAddr: 0x11D34, symBinAddr: 0x10001A864, symSize: 0x120 }
  - { offsetInCU: 0x3A8A9, offset: 0x51A51, size: 0x8, addend: 0x0, symName: __ZN4RuleD2Ev, symObjAddr: 0x11E54, symBinAddr: 0x10001A984, symSize: 0x120 }
  - { offsetInCU: 0x3A8E7, offset: 0x51A8F, size: 0x8, addend: 0x0, symName: __ZNSt3__16vectorIP4RuleNS_9allocatorIS2_EEED2B7v160006Ev, symObjAddr: 0x11F74, symBinAddr: 0x10001AAA4, symSize: 0x44 }
  - { offsetInCU: 0x3A911, offset: 0x51AB9, size: 0x8, addend: 0x0, symName: __ZNSt3__16vectorIP4RuleNS_9allocatorIS2_EEE16__destroy_vectorC1ERS5_, symObjAddr: 0x11FB8, symBinAddr: 0x10001AAE8, symSize: 0x34 }
  - { offsetInCU: 0x3A94A, offset: 0x51AF2, size: 0x8, addend: 0x0, symName: __ZNSt3__16vectorIP4RuleNS_9allocatorIS2_EEE16__destroy_vectorclB7v160006Ev, symObjAddr: 0x11FEC, symBinAddr: 0x10001AB1C, symSize: 0x9C }
  - { offsetInCU: 0x3A970, offset: 0x51B18, size: 0x8, addend: 0x0, symName: __ZNSt3__16vectorIP4RuleNS_9allocatorIS2_EEE16__destroy_vectorC2ERS5_, symObjAddr: 0x12088, symBinAddr: 0x10001ABB8, symSize: 0x20 }
  - { offsetInCU: 0x3A9A9, offset: 0x51B51, size: 0x8, addend: 0x0, symName: __ZNSt3__16vectorIP4RuleNS_9allocatorIS2_EEE7__clearB7v160006Ev, symObjAddr: 0x120B8, symBinAddr: 0x10001ABE8, symSize: 0x28 }
  - { offsetInCU: 0x3A9CF, offset: 0x51B77, size: 0x8, addend: 0x0, symName: __ZNSt3__16vectorIP4RuleNS_9allocatorIS2_EEE22__base_destruct_at_endB7v160006EPS2_, symObjAddr: 0x120E0, symBinAddr: 0x10001AC10, symSize: 0x8C }
  - { offsetInCU: 0x3AA13, offset: 0x51BBB, size: 0x8, addend: 0x0, symName: __ZN5FactsD2Ev, symObjAddr: 0x1216C, symBinAddr: 0x10001AC9C, symSize: 0xF0 }
  - { offsetInCU: 0x3AA51, offset: 0x51BF9, size: 0x8, addend: 0x0, symName: __ZN7QueriesC2ER5Lexer, symObjAddr: 0x1225C, symBinAddr: 0x10001AD8C, symSize: 0x3A0 }
  - { offsetInCU: 0x3AAB8, offset: 0x51C60, size: 0x8, addend: 0x0, symName: __ZNSt3__16vectorIP5QueryNS_9allocatorIS2_EEEC1B7v160006Ev, symObjAddr: 0x125FC, symBinAddr: 0x10001B12C, symSize: 0x2C }
  - { offsetInCU: 0x3AAE2, offset: 0x51C8A, size: 0x8, addend: 0x0, symName: __ZNSt3__16vectorIP5QueryNS_9allocatorIS2_EEE9push_backB7v160006EOS2_, symObjAddr: 0x12628, symBinAddr: 0x10001B158, symSize: 0x6C }
  - { offsetInCU: 0x3AB19, offset: 0x51CC1, size: 0x8, addend: 0x0, symName: __ZN5QueryC1ER5Lexer, symObjAddr: 0x12694, symBinAddr: 0x10001B1C4, symSize: 0x34 }
  - { offsetInCU: 0x3AB51, offset: 0x51CF9, size: 0x8, addend: 0x0, symName: __ZNKSt3__16vectorIP5QueryNS_9allocatorIS2_EEE4sizeB7v160006Ev, symObjAddr: 0x126C8, symBinAddr: 0x10001B1F8, symSize: 0x28 }
  - { offsetInCU: 0x3AB77, offset: 0x51D1F, size: 0x8, addend: 0x0, symName: __ZN5QueryD1Ev, symObjAddr: 0x126F0, symBinAddr: 0x10001B220, symSize: 0x2C }
  - { offsetInCU: 0x3ABA1, offset: 0x51D49, size: 0x8, addend: 0x0, symName: __ZNSt3__16vectorIP5QueryNS_9allocatorIS2_EEED1B7v160006Ev, symObjAddr: 0x1271C, symBinAddr: 0x10001B24C, symSize: 0x2C }
  - { offsetInCU: 0x3ABCB, offset: 0x51D73, size: 0x8, addend: 0x0, symName: __ZNSt3__16vectorIP5QueryNS_9allocatorIS2_EEEC2B7v160006Ev, symObjAddr: 0x12748, symBinAddr: 0x10001B278, symSize: 0x58 }
  - { offsetInCU: 0x3ABF5, offset: 0x51D9D, size: 0x8, addend: 0x0, symName: __ZNSt3__117__compressed_pairIPP5QueryNS_9allocatorIS2_EEEC1B7v160006IDnNS_18__default_init_tagEEEOT_OT0_, symObjAddr: 0x127A0, symBinAddr: 0x10001B2D0, symSize: 0x3C }
  - { offsetInCU: 0x3AC4D, offset: 0x51DF5, size: 0x8, addend: 0x0, symName: __ZNSt3__117__compressed_pairIPP5QueryNS_9allocatorIS2_EEEC2B7v160006IDnNS_18__default_init_tagEEEOT_OT0_, symObjAddr: 0x127EC, symBinAddr: 0x10001B31C, symSize: 0x40 }
  - { offsetInCU: 0x3ACA5, offset: 0x51E4D, size: 0x8, addend: 0x0, symName: __ZNSt3__122__compressed_pair_elemIPP5QueryLi0ELb0EEC2B7v160006IDnvEEOT_, symObjAddr: 0x1282C, symBinAddr: 0x10001B35C, symSize: 0x1C }
  - { offsetInCU: 0x3ACE7, offset: 0x51E8F, size: 0x8, addend: 0x0, symName: __ZNSt3__122__compressed_pair_elemINS_9allocatorIP5QueryEELi1ELb1EEC2B7v160006ENS_18__default_init_tagE, symObjAddr: 0x12848, symBinAddr: 0x10001B378, symSize: 0x2C }
  - { offsetInCU: 0x3AD1C, offset: 0x51EC4, size: 0x8, addend: 0x0, symName: __ZNSt3__19allocatorIP5QueryEC2B7v160006Ev, symObjAddr: 0x12874, symBinAddr: 0x10001B3A4, symSize: 0x2C }
  - { offsetInCU: 0x3AD46, offset: 0x51EEE, size: 0x8, addend: 0x0, symName: __ZNSt3__116__non_trivial_ifILb1ENS_9allocatorIP5QueryEEEC2B7v160006Ev, symObjAddr: 0x128A0, symBinAddr: 0x10001B3D0, symSize: 0x14 }
  - { offsetInCU: 0x3AD70, offset: 0x51F18, size: 0x8, addend: 0x0, symName: __ZNSt3__16vectorIP5QueryNS_9allocatorIS2_EEE9__end_capB7v160006Ev, symObjAddr: 0x128B4, symBinAddr: 0x10001B3E4, symSize: 0x28 }
  - { offsetInCU: 0x3AD9B, offset: 0x51F43, size: 0x8, addend: 0x0, symName: __ZNSt3__16vectorIP5QueryNS_9allocatorIS2_EEE22__construct_one_at_endB7v160006IJS2_EEEvDpOT_, symObjAddr: 0x128DC, symBinAddr: 0x10001B40C, symSize: 0x90 }
  - { offsetInCU: 0x3ADEA, offset: 0x51F92, size: 0x8, addend: 0x0, symName: __ZNSt3__16vectorIP5QueryNS_9allocatorIS2_EEE21__push_back_slow_pathIS2_EEvOT_, symObjAddr: 0x1296C, symBinAddr: 0x10001B49C, symSize: 0xD8 }
  - { offsetInCU: 0x3AE48, offset: 0x51FF0, size: 0x8, addend: 0x0, symName: __ZNSt3__117__compressed_pairIPP5QueryNS_9allocatorIS2_EEE5firstB7v160006Ev, symObjAddr: 0x12A44, symBinAddr: 0x10001B574, symSize: 0x24 }
  - { offsetInCU: 0x3AE6E, offset: 0x52016, size: 0x8, addend: 0x0, symName: __ZNSt3__122__compressed_pair_elemIPP5QueryLi0ELb0EE5__getB7v160006Ev, symObjAddr: 0x12A68, symBinAddr: 0x10001B598, symSize: 0x14 }
  - { offsetInCU: 0x3AEAD, offset: 0x52055, size: 0x8, addend: 0x0, symName: __ZNSt3__16vectorIP5QueryNS_9allocatorIS2_EEE21_ConstructTransactionC1B7v160006ERS5_m, symObjAddr: 0x12A7C, symBinAddr: 0x10001B5AC, symSize: 0x3C }
  - { offsetInCU: 0x3AEF5, offset: 0x5209D, size: 0x8, addend: 0x0, symName: __ZNSt3__116allocator_traitsINS_9allocatorIP5QueryEEE9constructB7v160006IS3_JS3_EvEEvRS4_PT_DpOT0_, symObjAddr: 0x12AB8, symBinAddr: 0x10001B5E8, symSize: 0x34 }
  - { offsetInCU: 0x3AF4C, offset: 0x520F4, size: 0x8, addend: 0x0, symName: __ZNSt3__16vectorIP5QueryNS_9allocatorIS2_EEE7__allocB7v160006Ev, symObjAddr: 0x12AEC, symBinAddr: 0x10001B61C, symSize: 0x28 }
  - { offsetInCU: 0x3AF72, offset: 0x5211A, size: 0x8, addend: 0x0, symName: __ZNSt3__16vectorIP5QueryNS_9allocatorIS2_EEE21_ConstructTransactionD1B7v160006Ev, symObjAddr: 0x12B28, symBinAddr: 0x10001B658, symSize: 0x2C }
  - { offsetInCU: 0x3AF9C, offset: 0x52144, size: 0x8, addend: 0x0, symName: __ZNSt3__16vectorIP5QueryNS_9allocatorIS2_EEE21_ConstructTransactionC2B7v160006ERS5_m, symObjAddr: 0x12B54, symBinAddr: 0x10001B684, symSize: 0x44 }
  - { offsetInCU: 0x3AFE4, offset: 0x5218C, size: 0x8, addend: 0x0, symName: __ZNSt3__19allocatorIP5QueryE9constructB7v160006IS2_JS2_EEEvPT_DpOT0_, symObjAddr: 0x12B98, symBinAddr: 0x10001B6C8, symSize: 0x28 }
  - { offsetInCU: 0x3B03A, offset: 0x521E2, size: 0x8, addend: 0x0, symName: __ZNSt3__117__compressed_pairIPP5QueryNS_9allocatorIS2_EEE6secondB7v160006Ev, symObjAddr: 0x12BC0, symBinAddr: 0x10001B6F0, symSize: 0x24 }
  - { offsetInCU: 0x3B060, offset: 0x52208, size: 0x8, addend: 0x0, symName: __ZNSt3__122__compressed_pair_elemINS_9allocatorIP5QueryEELi1ELb1EE5__getB7v160006Ev, symObjAddr: 0x12BE4, symBinAddr: 0x10001B714, symSize: 0x14 }
  - { offsetInCU: 0x3B086, offset: 0x5222E, size: 0x8, addend: 0x0, symName: __ZNSt3__16vectorIP5QueryNS_9allocatorIS2_EEE21_ConstructTransactionD2B7v160006Ev, symObjAddr: 0x12BF8, symBinAddr: 0x10001B728, symSize: 0x20 }
  - { offsetInCU: 0x3B0B0, offset: 0x52258, size: 0x8, addend: 0x0, symName: __ZNKSt3__16vectorIP5QueryNS_9allocatorIS2_EEE11__recommendB7v160006Em, symObjAddr: 0x12C18, symBinAddr: 0x10001B748, symSize: 0xB4 }
  - { offsetInCU: 0x3B105, offset: 0x522AD, size: 0x8, addend: 0x0, symName: __ZNSt3__114__split_bufferIP5QueryRNS_9allocatorIS2_EEEC1EmmS5_, symObjAddr: 0x12CCC, symBinAddr: 0x10001B7FC, symSize: 0x44 }
  - { offsetInCU: 0x3B15B, offset: 0x52303, size: 0x8, addend: 0x0, symName: __ZNSt3__114__split_bufferIP5QueryRNS_9allocatorIS2_EEED1Ev, symObjAddr: 0x12E28, symBinAddr: 0x10001B958, symSize: 0x2C }
  - { offsetInCU: 0x3B187, offset: 0x5232F, size: 0x8, addend: 0x0, symName: __ZNKSt3__16vectorIP5QueryNS_9allocatorIS2_EEE8max_sizeEv, symObjAddr: 0x12E54, symBinAddr: 0x10001B984, symSize: 0x60 }
  - { offsetInCU: 0x3B1AF, offset: 0x52357, size: 0x8, addend: 0x0, symName: __ZNKSt3__16vectorIP5QueryNS_9allocatorIS2_EEE20__throw_length_errorB7v160006Ev, symObjAddr: 0x12EB4, symBinAddr: 0x10001B9E4, symSize: 0x1C }
  - { offsetInCU: 0x3B1D5, offset: 0x5237D, size: 0x8, addend: 0x0, symName: __ZNKSt3__16vectorIP5QueryNS_9allocatorIS2_EEE8capacityB7v160006Ev, symObjAddr: 0x12ED0, symBinAddr: 0x10001BA00, symSize: 0x40 }
  - { offsetInCU: 0x3B205, offset: 0x523AD, size: 0x8, addend: 0x0, symName: __ZNSt3__116allocator_traitsINS_9allocatorIP5QueryEEE8max_sizeB7v160006IS4_vEEmRKS4_, symObjAddr: 0x12F10, symBinAddr: 0x10001BA40, symSize: 0x24 }
  - { offsetInCU: 0x3B233, offset: 0x523DB, size: 0x8, addend: 0x0, symName: __ZNKSt3__16vectorIP5QueryNS_9allocatorIS2_EEE7__allocB7v160006Ev, symObjAddr: 0x12F34, symBinAddr: 0x10001BA64, symSize: 0x28 }
  - { offsetInCU: 0x3B259, offset: 0x52401, size: 0x8, addend: 0x0, symName: __ZNKSt3__19allocatorIP5QueryE8max_sizeB7v160006Ev, symObjAddr: 0x12F5C, symBinAddr: 0x10001BA8C, symSize: 0x14 }
  - { offsetInCU: 0x3B27F, offset: 0x52427, size: 0x8, addend: 0x0, symName: __ZNKSt3__117__compressed_pairIPP5QueryNS_9allocatorIS2_EEE6secondB7v160006Ev, symObjAddr: 0x12F70, symBinAddr: 0x10001BAA0, symSize: 0x24 }
  - { offsetInCU: 0x3B2A5, offset: 0x5244D, size: 0x8, addend: 0x0, symName: __ZNKSt3__122__compressed_pair_elemINS_9allocatorIP5QueryEELi1ELb1EE5__getB7v160006Ev, symObjAddr: 0x12F94, symBinAddr: 0x10001BAC4, symSize: 0x14 }
  - { offsetInCU: 0x3B2CB, offset: 0x52473, size: 0x8, addend: 0x0, symName: __ZNKSt3__16vectorIP5QueryNS_9allocatorIS2_EEE9__end_capB7v160006Ev, symObjAddr: 0x12FA8, symBinAddr: 0x10001BAD8, symSize: 0x28 }
  - { offsetInCU: 0x3B2F1, offset: 0x52499, size: 0x8, addend: 0x0, symName: __ZNKSt3__117__compressed_pairIPP5QueryNS_9allocatorIS2_EEE5firstB7v160006Ev, symObjAddr: 0x12FD0, symBinAddr: 0x10001BB00, symSize: 0x24 }
  - { offsetInCU: 0x3B317, offset: 0x524BF, size: 0x8, addend: 0x0, symName: __ZNKSt3__122__compressed_pair_elemIPP5QueryLi0ELb0EE5__getB7v160006Ev, symObjAddr: 0x12FF4, symBinAddr: 0x10001BB24, symSize: 0x14 }
  - { offsetInCU: 0x3B33D, offset: 0x524E5, size: 0x8, addend: 0x0, symName: __ZNSt3__114__split_bufferIP5QueryRNS_9allocatorIS2_EEEC2EmmS5_, symObjAddr: 0x13008, symBinAddr: 0x10001BB38, symSize: 0xD4 }
  - { offsetInCU: 0x3B3B0, offset: 0x52558, size: 0x8, addend: 0x0, symName: __ZNSt3__117__compressed_pairIPP5QueryRNS_9allocatorIS2_EEEC1B7v160006IDnS6_EEOT_OT0_, symObjAddr: 0x130DC, symBinAddr: 0x10001BC0C, symSize: 0x3C }
  - { offsetInCU: 0x3B408, offset: 0x525B0, size: 0x8, addend: 0x0, symName: __ZNSt3__114__split_bufferIP5QueryRNS_9allocatorIS2_EEE7__allocB7v160006Ev, symObjAddr: 0x13158, symBinAddr: 0x10001BC88, symSize: 0x28 }
  - { offsetInCU: 0x3B42E, offset: 0x525D6, size: 0x8, addend: 0x0, symName: __ZNSt3__114__split_bufferIP5QueryRNS_9allocatorIS2_EEE9__end_capB7v160006Ev, symObjAddr: 0x13180, symBinAddr: 0x10001BCB0, symSize: 0x28 }
  - { offsetInCU: 0x3B454, offset: 0x525FC, size: 0x8, addend: 0x0, symName: __ZNSt3__117__compressed_pairIPP5QueryRNS_9allocatorIS2_EEEC2B7v160006IDnS6_EEOT_OT0_, symObjAddr: 0x131A8, symBinAddr: 0x10001BCD8, symSize: 0x48 }
  - { offsetInCU: 0x3B4AC, offset: 0x52654, size: 0x8, addend: 0x0, symName: __ZNSt3__122__compressed_pair_elemIRNS_9allocatorIP5QueryEELi1ELb0EEC2B7v160006IS5_vEEOT_, symObjAddr: 0x131F0, symBinAddr: 0x10001BD20, symSize: 0x20 }
  - { offsetInCU: 0x3B4EE, offset: 0x52696, size: 0x8, addend: 0x0, symName: __ZNSt3__19allocatorIP5QueryE8allocateB7v160006Em, symObjAddr: 0x13210, symBinAddr: 0x10001BD40, symSize: 0x58 }
  - { offsetInCU: 0x3B522, offset: 0x526CA, size: 0x8, addend: 0x0, symName: __ZNSt3__117__compressed_pairIPP5QueryRNS_9allocatorIS2_EEE6secondB7v160006Ev, symObjAddr: 0x13268, symBinAddr: 0x10001BD98, symSize: 0x28 }
  - { offsetInCU: 0x3B548, offset: 0x526F0, size: 0x8, addend: 0x0, symName: __ZNSt3__122__compressed_pair_elemIRNS_9allocatorIP5QueryEELi1ELb0EE5__getB7v160006Ev, symObjAddr: 0x13290, symBinAddr: 0x10001BDC0, symSize: 0x18 }
  - { offsetInCU: 0x3B56E, offset: 0x52716, size: 0x8, addend: 0x0, symName: __ZNSt3__117__compressed_pairIPP5QueryRNS_9allocatorIS2_EEE5firstB7v160006Ev, symObjAddr: 0x132A8, symBinAddr: 0x10001BDD8, symSize: 0x24 }
  - { offsetInCU: 0x3B594, offset: 0x5273C, size: 0x8, addend: 0x0, symName: __ZNKSt3__16vectorIP5QueryNS_9allocatorIS2_EEE17__annotate_deleteB7v160006Ev, symObjAddr: 0x132CC, symBinAddr: 0x10001BDFC, symSize: 0xB8 }
  - { offsetInCU: 0x3B5BA, offset: 0x52762, size: 0x8, addend: 0x0, symName: __ZNSt3__116reverse_iteratorIPP5QueryEC1B7v160006ES3_, symObjAddr: 0x133FC, symBinAddr: 0x10001BF2C, symSize: 0x34 }
  - { offsetInCU: 0x3B5F2, offset: 0x5279A, size: 0x8, addend: 0x0, symName: __ZNKSt3__116reverse_iteratorIPP5QueryE4baseB7v160006Ev, symObjAddr: 0x13430, symBinAddr: 0x10001BF60, symSize: 0x18 }
  - { offsetInCU: 0x3B618, offset: 0x527C0, size: 0x8, addend: 0x0, symName: __ZNKSt3__16vectorIP5QueryNS_9allocatorIS2_EEE14__annotate_newB7v160006Em, symObjAddr: 0x13484, symBinAddr: 0x10001BFB4, symSize: 0xAC }
  - { offsetInCU: 0x3B64D, offset: 0x527F5, size: 0x8, addend: 0x0, symName: __ZNKSt3__16vectorIP5QueryNS_9allocatorIS2_EEE31__annotate_contiguous_containerB7v160006EPKvS7_S7_S7_, symObjAddr: 0x13540, symBinAddr: 0x10001C070, symSize: 0x20 }
  - { offsetInCU: 0x3B69F, offset: 0x52847, size: 0x8, addend: 0x0, symName: __ZNKSt3__16vectorIP5QueryNS_9allocatorIS2_EEE4dataB7v160006Ev, symObjAddr: 0x13560, symBinAddr: 0x10001C090, symSize: 0x28 }
  - { offsetInCU: 0x3B6DE, offset: 0x52886, size: 0x8, addend: 0x0, symName: __ZNKSt3__111__move_loopINS_17_ClassicAlgPolicyEEclB7v160006INS_16reverse_iteratorIPP5QueryEES8_S8_EENS_4pairIT_T1_EESA_T0_SB_, symObjAddr: 0x13878, symBinAddr: 0x10001C3A8, symSize: 0xA0 }
  - { offsetInCU: 0x3B749, offset: 0x528F1, size: 0x8, addend: 0x0, symName: __ZNSt3__18_IterOpsINS_17_ClassicAlgPolicyEE11__iter_moveB7v160006IRNS_16reverse_iteratorIPP5QueryEEEENS_9enable_ifIXsr12is_referenceIDTdeclsr3stdE7declvalIRT_EEEEE5valueEDTclsr3stdE4movedeclsr3stdE7declvalISC_EEEEE4typeEOSB_, symObjAddr: 0x13AAC, symBinAddr: 0x10001C5DC, symSize: 0x28 }
  - { offsetInCU: 0x3B775, offset: 0x5291D, size: 0x8, addend: 0x0, symName: __ZNKSt3__116reverse_iteratorIPP5QueryEdeB7v160006Ev, symObjAddr: 0x13AD4, symBinAddr: 0x10001C604, symSize: 0x28 }
  - { offsetInCU: 0x3B7A9, offset: 0x52951, size: 0x8, addend: 0x0, symName: __ZNSt3__116reverse_iteratorIPP5QueryEppB7v160006Ev, symObjAddr: 0x13AFC, symBinAddr: 0x10001C62C, symSize: 0x20 }
  - { offsetInCU: 0x3B7CF, offset: 0x52977, size: 0x8, addend: 0x0, symName: __ZNSt3__18_IterOpsINS_17_ClassicAlgPolicyEE25__validate_iter_referenceB7v160006IRNS_16reverse_iteratorIPP5QueryEEEEvv, symObjAddr: 0x13B1C, symBinAddr: 0x10001C64C, symSize: 0x4 }
  - { offsetInCU: 0x3B7ED, offset: 0x52995, size: 0x8, addend: 0x0, symName: __ZNSt3__118__unwrap_iter_implINS_16reverse_iteratorIPP5QueryEELb0EE8__unwrapB7v160006ES5_, symObjAddr: 0x13B20, symBinAddr: 0x10001C650, symSize: 0x24 }
  - { offsetInCU: 0x3B815, offset: 0x529BD, size: 0x8, addend: 0x0, symName: __ZNSt3__14pairINS_16reverse_iteratorIPP5QueryEES5_EC1B7v160006IS5_S5_LPv0EEEOT_OT0_, symObjAddr: 0x13B44, symBinAddr: 0x10001C674, symSize: 0x3C }
  - { offsetInCU: 0x3B873, offset: 0x52A1B, size: 0x8, addend: 0x0, symName: __ZNSt3__14pairINS_16reverse_iteratorIPP5QueryEES5_EC2B7v160006IS5_S5_LPv0EEEOT_OT0_, symObjAddr: 0x13B80, symBinAddr: 0x10001C6B0, symSize: 0x34 }
  - { offsetInCU: 0x3B8D1, offset: 0x52A79, size: 0x8, addend: 0x0, symName: __ZNSt3__118__unwrap_iter_implINS_16reverse_iteratorIPP5QueryEELb0EE8__rewrapB7v160006ES5_S5_, symObjAddr: 0x13BB4, symBinAddr: 0x10001C6E4, symSize: 0x2C }
  - { offsetInCU: 0x3B8FF, offset: 0x52AA7, size: 0x8, addend: 0x0, symName: __ZNSt3__116reverse_iteratorIPP5QueryEC2B7v160006ES3_, symObjAddr: 0x13BE0, symBinAddr: 0x10001C710, symSize: 0x28 }
  - { offsetInCU: 0x3B937, offset: 0x52ADF, size: 0x8, addend: 0x0, symName: __ZNSt3__114__split_bufferIP5QueryRNS_9allocatorIS2_EEED2Ev, symObjAddr: 0x13C08, symBinAddr: 0x10001C738, symSize: 0x8C }
  - { offsetInCU: 0x3B963, offset: 0x52B0B, size: 0x8, addend: 0x0, symName: __ZNSt3__114__split_bufferIP5QueryRNS_9allocatorIS2_EEE5clearB7v160006Ev, symObjAddr: 0x13C94, symBinAddr: 0x10001C7C4, symSize: 0x28 }
  - { offsetInCU: 0x3B989, offset: 0x52B31, size: 0x8, addend: 0x0, symName: __ZNSt3__116allocator_traitsINS_9allocatorIP5QueryEEE10deallocateB7v160006ERS4_PS3_m, symObjAddr: 0x13CBC, symBinAddr: 0x10001C7EC, symSize: 0x34 }
  - { offsetInCU: 0x3B9CB, offset: 0x52B73, size: 0x8, addend: 0x0, symName: __ZNKSt3__114__split_bufferIP5QueryRNS_9allocatorIS2_EEE8capacityB7v160006Ev, symObjAddr: 0x13CF0, symBinAddr: 0x10001C820, symSize: 0x40 }
  - { offsetInCU: 0x3B9F1, offset: 0x52B99, size: 0x8, addend: 0x0, symName: __ZNSt3__114__split_bufferIP5QueryRNS_9allocatorIS2_EEE17__destruct_at_endB7v160006EPS2_, symObjAddr: 0x13D30, symBinAddr: 0x10001C860, symSize: 0x2C }
  - { offsetInCU: 0x3BA25, offset: 0x52BCD, size: 0x8, addend: 0x0, symName: __ZNSt3__114__split_bufferIP5QueryRNS_9allocatorIS2_EEE17__destruct_at_endB7v160006EPS2_NS_17integral_constantIbLb0EEE, symObjAddr: 0x13D5C, symBinAddr: 0x10001C88C, symSize: 0x80 }
  - { offsetInCU: 0x3BA66, offset: 0x52C0E, size: 0x8, addend: 0x0, symName: __ZNSt3__116allocator_traitsINS_9allocatorIP5QueryEEE7destroyB7v160006IS3_vEEvRS4_PT_, symObjAddr: 0x13DDC, symBinAddr: 0x10001C90C, symSize: 0x2C }
  - { offsetInCU: 0x3BAA3, offset: 0x52C4B, size: 0x8, addend: 0x0, symName: __ZNSt3__19allocatorIP5QueryE7destroyB7v160006EPS2_, symObjAddr: 0x13E08, symBinAddr: 0x10001C938, symSize: 0x14 }
  - { offsetInCU: 0x3BAD7, offset: 0x52C7F, size: 0x8, addend: 0x0, symName: __ZNSt3__19allocatorIP5QueryE10deallocateB7v160006EPS2_m, symObjAddr: 0x13E1C, symBinAddr: 0x10001C94C, symSize: 0x40 }
  - { offsetInCU: 0x3BB19, offset: 0x52CC1, size: 0x8, addend: 0x0, symName: __ZNKSt3__114__split_bufferIP5QueryRNS_9allocatorIS2_EEE9__end_capB7v160006Ev, symObjAddr: 0x13E5C, symBinAddr: 0x10001C98C, symSize: 0x28 }
  - { offsetInCU: 0x3BB3F, offset: 0x52CE7, size: 0x8, addend: 0x0, symName: __ZNKSt3__117__compressed_pairIPP5QueryRNS_9allocatorIS2_EEE5firstB7v160006Ev, symObjAddr: 0x13E84, symBinAddr: 0x10001C9B4, symSize: 0x24 }
  - { offsetInCU: 0x3BB65, offset: 0x52D0D, size: 0x8, addend: 0x0, symName: __ZN5QueryC2ER5Lexer, symObjAddr: 0x13EA8, symBinAddr: 0x10001C9D8, symSize: 0x1C4 }
  - { offsetInCU: 0x3BBAE, offset: 0x52D56, size: 0x8, addend: 0x0, symName: __ZN5QueryD2Ev, symObjAddr: 0x1406C, symBinAddr: 0x10001CB9C, symSize: 0x58 }
  - { offsetInCU: 0x3BBD8, offset: 0x52D80, size: 0x8, addend: 0x0, symName: __ZNSt3__16vectorIP5QueryNS_9allocatorIS2_EEED2B7v160006Ev, symObjAddr: 0x140C4, symBinAddr: 0x10001CBF4, symSize: 0x44 }
  - { offsetInCU: 0x3BC02, offset: 0x52DAA, size: 0x8, addend: 0x0, symName: __ZNSt3__16vectorIP5QueryNS_9allocatorIS2_EEE16__destroy_vectorC1ERS5_, symObjAddr: 0x14108, symBinAddr: 0x10001CC38, symSize: 0x34 }
  - { offsetInCU: 0x3BC3B, offset: 0x52DE3, size: 0x8, addend: 0x0, symName: __ZNSt3__16vectorIP5QueryNS_9allocatorIS2_EEE16__destroy_vectorclB7v160006Ev, symObjAddr: 0x1413C, symBinAddr: 0x10001CC6C, symSize: 0x9C }
  - { offsetInCU: 0x3BC61, offset: 0x52E09, size: 0x8, addend: 0x0, symName: __ZNSt3__16vectorIP5QueryNS_9allocatorIS2_EEE16__destroy_vectorC2ERS5_, symObjAddr: 0x141D8, symBinAddr: 0x10001CD08, symSize: 0x20 }
  - { offsetInCU: 0x3BC9A, offset: 0x52E42, size: 0x8, addend: 0x0, symName: __ZNSt3__16vectorIP5QueryNS_9allocatorIS2_EEE7__clearB7v160006Ev, symObjAddr: 0x14208, symBinAddr: 0x10001CD38, symSize: 0x28 }
  - { offsetInCU: 0x3BCC0, offset: 0x52E68, size: 0x8, addend: 0x0, symName: __ZNSt3__16vectorIP5QueryNS_9allocatorIS2_EEE22__base_destruct_at_endB7v160006EPS2_, symObjAddr: 0x14230, symBinAddr: 0x10001CD60, symSize: 0x8C }
  - { offsetInCU: 0x3BD04, offset: 0x52EAC, size: 0x8, addend: 0x0, symName: __ZN5RulesD2Ev, symObjAddr: 0x142BC, symBinAddr: 0x10001CDEC, symSize: 0xF0 }
  - { offsetInCU: 0x3BD42, offset: 0x52EEA, size: 0x8, addend: 0x0, symName: __ZN8DatabaseC2EP14DatalogProgram, symObjAddr: 0x143AC, symBinAddr: 0x10001CEDC, symSize: 0x210 }
  - { offsetInCU: 0x3BDC8, offset: 0x52F70, size: 0x8, addend: 0x0, symName: __ZNSt3__13mapINS_12basic_stringIcNS_11char_traitsIcEENS_9allocatorIcEEEE5TableNS_4lessIS6_EENS4_INS_4pairIKS6_S7_EEEEEC1B7v160006Ev, symObjAddr: 0x145BC, symBinAddr: 0x10001D0EC, symSize: 0x2C }
  - { offsetInCU: 0x3BDF2, offset: 0x52F9A, size: 0x8, addend: 0x0, symName: __ZN5TableC1EP7Schemesi, symObjAddr: 0x145E8, symBinAddr: 0x10001D118, symSize: 0x3C }
  - { offsetInCU: 0x3BE38, offset: 0x52FE0, size: 0x8, addend: 0x0, symName: __ZNSt3__13mapINS_12basic_stringIcNS_11char_traitsIcEENS_9allocatorIcEEEE5TableNS_4lessIS6_EENS4_INS_4pairIKS6_S7_EEEEEixERSB_, symObjAddr: 0x14624, symBinAddr: 0x10001D154, symSize: 0x80 }
  - { offsetInCU: 0x3BE74, offset: 0x5301C, size: 0x8, addend: 0x0, symName: __ZN5TableaSEOS_, symObjAddr: 0x146A4, symBinAddr: 0x10001D1D4, symSize: 0x5C }
  - { offsetInCU: 0x3BEA5, offset: 0x5304D, size: 0x8, addend: 0x0, symName: __ZN5TableD1Ev, symObjAddr: 0x14700, symBinAddr: 0x10001D230, symSize: 0x2C }
  - { offsetInCU: 0x3BED1, offset: 0x53079, size: 0x8, addend: 0x0, symName: __ZN5Table13initializeRowEPNSt3__16vectorIP8DLStringNS0_9allocatorIS3_EEEE, symObjAddr: 0x1472C, symBinAddr: 0x10001D25C, symSize: 0xD8 }
  - { offsetInCU: 0x3BF2F, offset: 0x530D7, size: 0x8, addend: 0x0, symName: __ZNSt3__13mapINS_12basic_stringIcNS_11char_traitsIcEENS_9allocatorIcEEEE5TableNS_4lessIS6_EENS4_INS_4pairIKS6_S7_EEEEED1B7v160006Ev, symObjAddr: 0x14804, symBinAddr: 0x10001D334, symSize: 0x2C }
  - { offsetInCU: 0x3BF59, offset: 0x53101, size: 0x8, addend: 0x0, symName: __ZNSt3__13mapINS_12basic_stringIcNS_11char_traitsIcEENS_9allocatorIcEEEE5TableNS_4lessIS6_EENS4_INS_4pairIKS6_S7_EEEEEC2B7v160006Ev, symObjAddr: 0x14830, symBinAddr: 0x10001D360, symSize: 0x40 }
  - { offsetInCU: 0x3BF83, offset: 0x5312B, size: 0x8, addend: 0x0, symName: __ZNSt3__119__map_value_compareINS_12basic_stringIcNS_11char_traitsIcEENS_9allocatorIcEEEENS_12__value_typeIS6_5TableEENS_4lessIS6_EELb1EEC1B7v160006ESB_, symObjAddr: 0x14870, symBinAddr: 0x10001D3A0, symSize: 0x2C }
  - { offsetInCU: 0x3BFBC, offset: 0x53164, size: 0x8, addend: 0x0, symName: __ZNSt3__16__treeINS_12__value_typeINS_12basic_stringIcNS_11char_traitsIcEENS_9allocatorIcEEEE5TableEENS_19__map_value_compareIS7_S9_NS_4lessIS7_EELb1EEENS5_IS9_EEEC1ERKSD_, symObjAddr: 0x1489C, symBinAddr: 0x10001D3CC, symSize: 0x34 }
  - { offsetInCU: 0x3BFF7, offset: 0x5319F, size: 0x8, addend: 0x0, symName: __ZNSt3__119__map_value_compareINS_12basic_stringIcNS_11char_traitsIcEENS_9allocatorIcEEEENS_12__value_typeIS6_5TableEENS_4lessIS6_EELb1EEC2B7v160006ESB_, symObjAddr: 0x148D0, symBinAddr: 0x10001D400, symSize: 0x14 }
  - { offsetInCU: 0x3C030, offset: 0x531D8, size: 0x8, addend: 0x0, symName: __ZNSt3__16__treeINS_12__value_typeINS_12basic_stringIcNS_11char_traitsIcEENS_9allocatorIcEEEE5TableEENS_19__map_value_compareIS7_S9_NS_4lessIS7_EELb1EEENS5_IS9_EEEC2ERKSD_, symObjAddr: 0x148E4, symBinAddr: 0x10001D414, symSize: 0x7C }
  - { offsetInCU: 0x3C06B, offset: 0x53213, size: 0x8, addend: 0x0, symName: __ZNSt3__117__compressed_pairINS_15__tree_end_nodeIPNS_16__tree_node_baseIPvEEEENS_9allocatorINS_11__tree_nodeINS_12__value_typeINS_12basic_stringIcNS_11char_traitsIcEENS7_IcEEEE5TableEES3_EEEEEC1B7v160006ILb1EvEEv, symObjAddr: 0x14960, symBinAddr: 0x10001D490, symSize: 0x2C }
  - { offsetInCU: 0x3C0A5, offset: 0x5324D, size: 0x8, addend: 0x0, symName: __ZNSt3__117__compressed_pairImNS_19__map_value_compareINS_12basic_stringIcNS_11char_traitsIcEENS_9allocatorIcEEEENS_12__value_typeIS7_5TableEENS_4lessIS7_EELb1EEEEC1B7v160006IiRKSD_EEOT_OT0_, symObjAddr: 0x1498C, symBinAddr: 0x10001D4BC, symSize: 0x3C }
  - { offsetInCU: 0x3C0FD, offset: 0x532A5, size: 0x8, addend: 0x0, symName: __ZNSt3__16__treeINS_12__value_typeINS_12basic_stringIcNS_11char_traitsIcEENS_9allocatorIcEEEE5TableEENS_19__map_value_compareIS7_S9_NS_4lessIS7_EELb1EEENS5_IS9_EEE10__end_nodeB7v160006Ev, symObjAddr: 0x149C8, symBinAddr: 0x10001D4F8, symSize: 0x2C }
  - { offsetInCU: 0x3C123, offset: 0x532CB, size: 0x8, addend: 0x0, symName: __ZNSt3__16__treeINS_12__value_typeINS_12basic_stringIcNS_11char_traitsIcEENS_9allocatorIcEEEE5TableEENS_19__map_value_compareIS7_S9_NS_4lessIS7_EELb1EEENS5_IS9_EEE12__begin_nodeB7v160006Ev, symObjAddr: 0x149F4, symBinAddr: 0x10001D524, symSize: 0x14 }
  - { offsetInCU: 0x3C149, offset: 0x532F1, size: 0x8, addend: 0x0, symName: __ZNSt3__117__compressed_pairINS_15__tree_end_nodeIPNS_16__tree_node_baseIPvEEEENS_9allocatorINS_11__tree_nodeINS_12__value_typeINS_12basic_stringIcNS_11char_traitsIcEENS7_IcEEEE5TableEES3_EEEEEC2B7v160006ILb1EvEEv, symObjAddr: 0x14A08, symBinAddr: 0x10001D538, symSize: 0x34 }
  - { offsetInCU: 0x3C17E, offset: 0x53326, size: 0x8, addend: 0x0, symName: __ZNSt3__122__compressed_pair_elemINS_15__tree_end_nodeIPNS_16__tree_node_baseIPvEEEELi0ELb0EEC2B7v160006ENS_16__value_init_tagE, symObjAddr: 0x14A3C, symBinAddr: 0x10001D56C, symSize: 0x2C }
  - { offsetInCU: 0x3C1B3, offset: 0x5335B, size: 0x8, addend: 0x0, symName: __ZNSt3__122__compressed_pair_elemINS_9allocatorINS_11__tree_nodeINS_12__value_typeINS_12basic_stringIcNS_11char_traitsIcEENS1_IcEEEE5TableEEPvEEEELi1ELb1EEC2B7v160006ENS_16__value_init_tagE, symObjAddr: 0x14A68, symBinAddr: 0x10001D598, symSize: 0x2C }
  - { offsetInCU: 0x3C1E8, offset: 0x53390, size: 0x8, addend: 0x0, symName: __ZNSt3__115__tree_end_nodeIPNS_16__tree_node_baseIPvEEEC1B7v160006Ev, symObjAddr: 0x14A94, symBinAddr: 0x10001D5C4, symSize: 0x2C }
  - { offsetInCU: 0x3C212, offset: 0x533BA, size: 0x8, addend: 0x0, symName: __ZNSt3__115__tree_end_nodeIPNS_16__tree_node_baseIPvEEEC2B7v160006Ev, symObjAddr: 0x14AC0, symBinAddr: 0x10001D5F0, symSize: 0x18 }
  - { offsetInCU: 0x3C23C, offset: 0x533E4, size: 0x8, addend: 0x0, symName: __ZNSt3__19allocatorINS_11__tree_nodeINS_12__value_typeINS_12basic_stringIcNS_11char_traitsIcEENS0_IcEEEE5TableEEPvEEEC2B7v160006Ev, symObjAddr: 0x14AD8, symBinAddr: 0x10001D608, symSize: 0x2C }
  - { offsetInCU: 0x3C266, offset: 0x5340E, size: 0x8, addend: 0x0, symName: __ZNSt3__116__non_trivial_ifILb1ENS_9allocatorINS_11__tree_nodeINS_12__value_typeINS_12basic_stringIcNS_11char_traitsIcEENS1_IcEEEE5TableEEPvEEEEEC2B7v160006Ev, symObjAddr: 0x14B04, symBinAddr: 0x10001D634, symSize: 0x14 }
  - { offsetInCU: 0x3C290, offset: 0x53438, size: 0x8, addend: 0x0, symName: __ZNSt3__117__compressed_pairImNS_19__map_value_compareINS_12basic_stringIcNS_11char_traitsIcEENS_9allocatorIcEEEENS_12__value_typeIS7_5TableEENS_4lessIS7_EELb1EEEEC2B7v160006IiRKSD_EEOT_OT0_, symObjAddr: 0x14B18, symBinAddr: 0x10001D648, symSize: 0x44 }
  - { offsetInCU: 0x3C2E8, offset: 0x53490, size: 0x8, addend: 0x0, symName: __ZNSt3__122__compressed_pair_elemImLi0ELb0EEC2B7v160006IivEEOT_, symObjAddr: 0x14B5C, symBinAddr: 0x10001D68C, symSize: 0x24 }
  - { offsetInCU: 0x3C32A, offset: 0x534D2, size: 0x8, addend: 0x0, symName: __ZNSt3__122__compressed_pair_elemINS_19__map_value_compareINS_12basic_stringIcNS_11char_traitsIcEENS_9allocatorIcEEEENS_12__value_typeIS7_5TableEENS_4lessIS7_EELb1EEELi1ELb1EEC2B7v160006IRKSD_vEEOT_, symObjAddr: 0x14B80, symBinAddr: 0x10001D6B0, symSize: 0x18 }
  - { offsetInCU: 0x3C36C, offset: 0x53514, size: 0x8, addend: 0x0, symName: __ZNSt3__114pointer_traitsIPNS_15__tree_end_nodeIPNS_16__tree_node_baseIPvEEEEE10pointer_toB7v160006ERS6_, symObjAddr: 0x14B98, symBinAddr: 0x10001D6C8, symSize: 0x14 }
  - { offsetInCU: 0x3C38F, offset: 0x53537, size: 0x8, addend: 0x0, symName: __ZNSt3__117__compressed_pairINS_15__tree_end_nodeIPNS_16__tree_node_baseIPvEEEENS_9allocatorINS_11__tree_nodeINS_12__value_typeINS_12basic_stringIcNS_11char_traitsIcEENS7_IcEEEE5TableEES3_EEEEE5firstB7v160006Ev, symObjAddr: 0x14BAC, symBinAddr: 0x10001D6DC, symSize: 0x24 }
  - { offsetInCU: 0x3C3B5, offset: 0x5355D, size: 0x8, addend: 0x0, symName: __ZNSt3__122__compressed_pair_elemINS_15__tree_end_nodeIPNS_16__tree_node_baseIPvEEEELi0ELb0EE5__getB7v160006Ev, symObjAddr: 0x14BD0, symBinAddr: 0x10001D700, symSize: 0x14 }
  - { offsetInCU: 0x3C3DB, offset: 0x53583, size: 0x8, addend: 0x0, symName: __ZN5TableC2EP7Schemesi, symObjAddr: 0x14BE4, symBinAddr: 0x10001D714, symSize: 0xE8 }
  - { offsetInCU: 0x3C426, offset: 0x535CE, size: 0x8, addend: 0x0, symName: __ZN6HeaderC1Ev, symObjAddr: 0x14CCC, symBinAddr: 0x10001D7FC, symSize: 0x2C }
  - { offsetInCU: 0x3C452, offset: 0x535FA, size: 0x8, addend: 0x0, symName: __ZNSt3__16vectorI3RowNS_9allocatorIS1_EEEC1B7v160006Ev, symObjAddr: 0x14CF8, symBinAddr: 0x10001D828, symSize: 0x2C }
  - { offsetInCU: 0x3C47C, offset: 0x53624, size: 0x8, addend: 0x0, symName: __ZN7Schemes13getParametersEi, symObjAddr: 0x14D24, symBinAddr: 0x10001D854, symSize: 0x14C }
  - { offsetInCU: 0x3C4E5, offset: 0x5368D, size: 0x8, addend: 0x0, symName: __ZN6HeaderaSEOS_, symObjAddr: 0x14E70, symBinAddr: 0x10001D9A0, symSize: 0x34 }
  - { offsetInCU: 0x3C516, offset: 0x536BE, size: 0x8, addend: 0x0, symName: __ZN6HeaderD1Ev, symObjAddr: 0x14EA4, symBinAddr: 0x10001D9D4, symSize: 0x2C }
  - { offsetInCU: 0x3C542, offset: 0x536EA, size: 0x8, addend: 0x0, symName: __ZNSt3__16vectorI3RowNS_9allocatorIS1_EEED1B7v160006Ev, symObjAddr: 0x14ED0, symBinAddr: 0x10001DA00, symSize: 0x2C }
  - { offsetInCU: 0x3C56C, offset: 0x53714, size: 0x8, addend: 0x0, symName: __ZN6HeaderC2Ev, symObjAddr: 0x14EFC, symBinAddr: 0x10001DA2C, symSize: 0x2C }
  - { offsetInCU: 0x3C598, offset: 0x53740, size: 0x8, addend: 0x0, symName: __ZNSt3__16vectorINS_12basic_stringIcNS_11char_traitsIcEENS_9allocatorIcEEEENS4_IS6_EEEC2B7v160006Ev, symObjAddr: 0x14F28, symBinAddr: 0x10001DA58, symSize: 0x58 }
  - { offsetInCU: 0x3C5C2, offset: 0x5376A, size: 0x8, addend: 0x0, symName: __ZNSt3__117__compressed_pairIPNS_12basic_stringIcNS_11char_traitsIcEENS_9allocatorIcEEEENS4_IS6_EEEC1B7v160006IDnNS_18__default_init_tagEEEOT_OT0_, symObjAddr: 0x14F80, symBinAddr: 0x10001DAB0, symSize: 0x3C }
  - { offsetInCU: 0x3C61A, offset: 0x537C2, size: 0x8, addend: 0x0, symName: __ZNSt3__117__compressed_pairIPNS_12basic_stringIcNS_11char_traitsIcEENS_9allocatorIcEEEENS4_IS6_EEEC2B7v160006IDnNS_18__default_init_tagEEEOT_OT0_, symObjAddr: 0x14FCC, symBinAddr: 0x10001DAFC, symSize: 0x40 }
  - { offsetInCU: 0x3C672, offset: 0x5381A, size: 0x8, addend: 0x0, symName: __ZNSt3__122__compressed_pair_elemIPNS_12basic_stringIcNS_11char_traitsIcEENS_9allocatorIcEEEELi0ELb0EEC2B7v160006IDnvEEOT_, symObjAddr: 0x1500C, symBinAddr: 0x10001DB3C, symSize: 0x1C }
  - { offsetInCU: 0x3C6B4, offset: 0x5385C, size: 0x8, addend: 0x0, symName: __ZNSt3__122__compressed_pair_elemINS_9allocatorINS_12basic_stringIcNS_11char_traitsIcEENS1_IcEEEEEELi1ELb1EEC2B7v160006ENS_18__default_init_tagE, symObjAddr: 0x15028, symBinAddr: 0x10001DB58, symSize: 0x2C }
  - { offsetInCU: 0x3C6E9, offset: 0x53891, size: 0x8, addend: 0x0, symName: __ZNSt3__19allocatorINS_12basic_stringIcNS_11char_traitsIcEENS0_IcEEEEEC2B7v160006Ev, symObjAddr: 0x15054, symBinAddr: 0x10001DB84, symSize: 0x2C }
  - { offsetInCU: 0x3C713, offset: 0x538BB, size: 0x8, addend: 0x0, symName: __ZNSt3__116__non_trivial_ifILb1ENS_9allocatorINS_12basic_stringIcNS_11char_traitsIcEENS1_IcEEEEEEEC2B7v160006Ev, symObjAddr: 0x15080, symBinAddr: 0x10001DBB0, symSize: 0x14 }
  - { offsetInCU: 0x3C73D, offset: 0x538E5, size: 0x8, addend: 0x0, symName: __ZNSt3__16vectorI3RowNS_9allocatorIS1_EEEC2B7v160006Ev, symObjAddr: 0x15094, symBinAddr: 0x10001DBC4, symSize: 0x58 }
  - { offsetInCU: 0x3C767, offset: 0x5390F, size: 0x8, addend: 0x0, symName: __ZNSt3__117__compressed_pairIP3RowNS_9allocatorIS1_EEEC1B7v160006IDnNS_18__default_init_tagEEEOT_OT0_, symObjAddr: 0x150EC, symBinAddr: 0x10001DC1C, symSize: 0x3C }
  - { offsetInCU: 0x3C7BF, offset: 0x53967, size: 0x8, addend: 0x0, symName: __ZNSt3__117__compressed_pairIP3RowNS_9allocatorIS1_EEEC2B7v160006IDnNS_18__default_init_tagEEEOT_OT0_, symObjAddr: 0x15138, symBinAddr: 0x10001DC68, symSize: 0x40 }
  - { offsetInCU: 0x3C817, offset: 0x539BF, size: 0x8, addend: 0x0, symName: __ZNSt3__122__compressed_pair_elemIP3RowLi0ELb0EEC2B7v160006IDnvEEOT_, symObjAddr: 0x15178, symBinAddr: 0x10001DCA8, symSize: 0x1C }
  - { offsetInCU: 0x3C859, offset: 0x53A01, size: 0x8, addend: 0x0, symName: __ZNSt3__122__compressed_pair_elemINS_9allocatorI3RowEELi1ELb1EEC2B7v160006ENS_18__default_init_tagE, symObjAddr: 0x15194, symBinAddr: 0x10001DCC4, symSize: 0x2C }
  - { offsetInCU: 0x3C88E, offset: 0x53A36, size: 0x8, addend: 0x0, symName: __ZNSt3__19allocatorI3RowEC2B7v160006Ev, symObjAddr: 0x151C0, symBinAddr: 0x10001DCF0, symSize: 0x2C }
  - { offsetInCU: 0x3C8B8, offset: 0x53A60, size: 0x8, addend: 0x0, symName: __ZNSt3__116__non_trivial_ifILb1ENS_9allocatorI3RowEEEC2B7v160006Ev, symObjAddr: 0x151EC, symBinAddr: 0x10001DD1C, symSize: 0x14 }
  - { offsetInCU: 0x3C8E2, offset: 0x53A8A, size: 0x8, addend: 0x0, symName: __ZNSt3__16vectorINS_12basic_stringIcNS_11char_traitsIcEENS_9allocatorIcEEEENS4_IS6_EEE9push_backB7v160006ERKS6_, symObjAddr: 0x15200, symBinAddr: 0x10001DD30, symSize: 0x6C }
  - { offsetInCU: 0x3C919, offset: 0x53AC1, size: 0x8, addend: 0x0, symName: __ZNSt3__16vectorINS_12basic_stringIcNS_11char_traitsIcEENS_9allocatorIcEEEENS4_IS6_EEE9__end_capB7v160006Ev, symObjAddr: 0x1526C, symBinAddr: 0x10001DD9C, symSize: 0x28 }
  - { offsetInCU: 0x3C93F, offset: 0x53AE7, size: 0x8, addend: 0x0, symName: __ZNSt3__16vectorINS_12basic_stringIcNS_11char_traitsIcEENS_9allocatorIcEEEENS4_IS6_EEE22__construct_one_at_endB7v160006IJRKS6_EEEvDpOT_, symObjAddr: 0x15294, symBinAddr: 0x10001DDC4, symSize: 0x90 }
  - { offsetInCU: 0x3C98E, offset: 0x53B36, size: 0x8, addend: 0x0, symName: __ZNSt3__16vectorINS_12basic_stringIcNS_11char_traitsIcEENS_9allocatorIcEEEENS4_IS6_EEE21__push_back_slow_pathIRKS6_EEvOT_, symObjAddr: 0x15324, symBinAddr: 0x10001DE54, symSize: 0xD8 }
  - { offsetInCU: 0x3C9EC, offset: 0x53B94, size: 0x8, addend: 0x0, symName: __ZNSt3__117__compressed_pairIPNS_12basic_stringIcNS_11char_traitsIcEENS_9allocatorIcEEEENS4_IS6_EEE5firstB7v160006Ev, symObjAddr: 0x153FC, symBinAddr: 0x10001DF2C, symSize: 0x24 }
  - { offsetInCU: 0x3CA12, offset: 0x53BBA, size: 0x8, addend: 0x0, symName: __ZNSt3__122__compressed_pair_elemIPNS_12basic_stringIcNS_11char_traitsIcEENS_9allocatorIcEEEELi0ELb0EE5__getB7v160006Ev, symObjAddr: 0x15420, symBinAddr: 0x10001DF50, symSize: 0x14 }
  - { offsetInCU: 0x3CA51, offset: 0x53BF9, size: 0x8, addend: 0x0, symName: __ZNSt3__16vectorINS_12basic_stringIcNS_11char_traitsIcEENS_9allocatorIcEEEENS4_IS6_EEE21_ConstructTransactionC1B7v160006ERS8_m, symObjAddr: 0x15434, symBinAddr: 0x10001DF64, symSize: 0x3C }
  - { offsetInCU: 0x3CA99, offset: 0x53C41, size: 0x8, addend: 0x0, symName: __ZNSt3__116allocator_traitsINS_9allocatorINS_12basic_stringIcNS_11char_traitsIcEENS1_IcEEEEEEE9constructB7v160006IS6_JRKS6_EvEEvRS7_PT_DpOT0_, symObjAddr: 0x15470, symBinAddr: 0x10001DFA0, symSize: 0x34 }
  - { offsetInCU: 0x3CAF0, offset: 0x53C98, size: 0x8, addend: 0x0, symName: __ZNSt3__16vectorINS_12basic_stringIcNS_11char_traitsIcEENS_9allocatorIcEEEENS4_IS6_EEE7__allocB7v160006Ev, symObjAddr: 0x154A4, symBinAddr: 0x10001DFD4, symSize: 0x28 }
  - { offsetInCU: 0x3CB16, offset: 0x53CBE, size: 0x8, addend: 0x0, symName: __ZNSt3__16vectorINS_12basic_stringIcNS_11char_traitsIcEENS_9allocatorIcEEEENS4_IS6_EEE21_ConstructTransactionD1B7v160006Ev, symObjAddr: 0x154E0, symBinAddr: 0x10001E010, symSize: 0x2C }
  - { offsetInCU: 0x3CB40, offset: 0x53CE8, size: 0x8, addend: 0x0, symName: __ZNSt3__16vectorINS_12basic_stringIcNS_11char_traitsIcEENS_9allocatorIcEEEENS4_IS6_EEE21_ConstructTransactionC2B7v160006ERS8_m, symObjAddr: 0x1550C, symBinAddr: 0x10001E03C, symSize: 0x4C }
  - { offsetInCU: 0x3CB88, offset: 0x53D30, size: 0x8, addend: 0x0, symName: __ZNSt3__19allocatorINS_12basic_stringIcNS_11char_traitsIcEENS0_IcEEEEE9constructB7v160006IS5_JRKS5_EEEvPT_DpOT0_, symObjAddr: 0x15558, symBinAddr: 0x10001E088, symSize: 0x30 }
  - { offsetInCU: 0x3CBDE, offset: 0x53D86, size: 0x8, addend: 0x0, symName: __ZNSt3__117__compressed_pairIPNS_12basic_stringIcNS_11char_traitsIcEENS_9allocatorIcEEEENS4_IS6_EEE6secondB7v160006Ev, symObjAddr: 0x15588, symBinAddr: 0x10001E0B8, symSize: 0x24 }
  - { offsetInCU: 0x3CC04, offset: 0x53DAC, size: 0x8, addend: 0x0, symName: __ZNSt3__122__compressed_pair_elemINS_9allocatorINS_12basic_stringIcNS_11char_traitsIcEENS1_IcEEEEEELi1ELb1EE5__getB7v160006Ev, symObjAddr: 0x155AC, symBinAddr: 0x10001E0DC, symSize: 0x14 }
  - { offsetInCU: 0x3CC2A, offset: 0x53DD2, size: 0x8, addend: 0x0, symName: __ZNSt3__16vectorINS_12basic_stringIcNS_11char_traitsIcEENS_9allocatorIcEEEENS4_IS6_EEE21_ConstructTransactionD2B7v160006Ev, symObjAddr: 0x155C0, symBinAddr: 0x10001E0F0, symSize: 0x20 }
  - { offsetInCU: 0x3CC54, offset: 0x53DFC, size: 0x8, addend: 0x0, symName: __ZNKSt3__16vectorINS_12basic_stringIcNS_11char_traitsIcEENS_9allocatorIcEEEENS4_IS6_EEE11__recommendB7v160006Em, symObjAddr: 0x155E0, symBinAddr: 0x10001E110, symSize: 0xB4 }
  - { offsetInCU: 0x3CCA9, offset: 0x53E51, size: 0x8, addend: 0x0, symName: __ZNKSt3__16vectorINS_12basic_stringIcNS_11char_traitsIcEENS_9allocatorIcEEEENS4_IS6_EEE4sizeB7v160006Ev, symObjAddr: 0x15694, symBinAddr: 0x10001E1C4, symSize: 0x28 }
  - { offsetInCU: 0x3CCCF, offset: 0x53E77, size: 0x8, addend: 0x0, symName: __ZNSt3__114__split_bufferINS_12basic_stringIcNS_11char_traitsIcEENS_9allocatorIcEEEERNS4_IS6_EEEC1EmmS8_, symObjAddr: 0x156BC, symBinAddr: 0x10001E1EC, symSize: 0x44 }
  - { offsetInCU: 0x3CD25, offset: 0x53ECD, size: 0x8, addend: 0x0, symName: __ZNSt3__114__split_bufferINS_12basic_stringIcNS_11char_traitsIcEENS_9allocatorIcEEEERNS4_IS6_EEED1Ev, symObjAddr: 0x15818, symBinAddr: 0x10001E348, symSize: 0x2C }
  - { offsetInCU: 0x3CD51, offset: 0x53EF9, size: 0x8, addend: 0x0, symName: __ZNKSt3__16vectorINS_12basic_stringIcNS_11char_traitsIcEENS_9allocatorIcEEEENS4_IS6_EEE8max_sizeEv, symObjAddr: 0x15844, symBinAddr: 0x10001E374, symSize: 0x60 }
  - { offsetInCU: 0x3CD79, offset: 0x53F21, size: 0x8, addend: 0x0, symName: __ZNKSt3__16vectorINS_12basic_stringIcNS_11char_traitsIcEENS_9allocatorIcEEEENS4_IS6_EEE20__throw_length_errorB7v160006Ev, symObjAddr: 0x158A4, symBinAddr: 0x10001E3D4, symSize: 0x1C }
  - { offsetInCU: 0x3CD9F, offset: 0x53F47, size: 0x8, addend: 0x0, symName: __ZNKSt3__16vectorINS_12basic_stringIcNS_11char_traitsIcEENS_9allocatorIcEEEENS4_IS6_EEE8capacityB7v160006Ev, symObjAddr: 0x158C0, symBinAddr: 0x10001E3F0, symSize: 0x40 }
  - { offsetInCU: 0x3CDCF, offset: 0x53F77, size: 0x8, addend: 0x0, symName: __ZNSt3__116allocator_traitsINS_9allocatorINS_12basic_stringIcNS_11char_traitsIcEENS1_IcEEEEEEE8max_sizeB7v160006IS7_vEEmRKS7_, symObjAddr: 0x15900, symBinAddr: 0x10001E430, symSize: 0x24 }
  - { offsetInCU: 0x3CDFD, offset: 0x53FA5, size: 0x8, addend: 0x0, symName: __ZNKSt3__16vectorINS_12basic_stringIcNS_11char_traitsIcEENS_9allocatorIcEEEENS4_IS6_EEE7__allocB7v160006Ev, symObjAddr: 0x15924, symBinAddr: 0x10001E454, symSize: 0x28 }
  - { offsetInCU: 0x3CE23, offset: 0x53FCB, size: 0x8, addend: 0x0, symName: __ZNKSt3__19allocatorINS_12basic_stringIcNS_11char_traitsIcEENS0_IcEEEEE8max_sizeB7v160006Ev, symObjAddr: 0x1594C, symBinAddr: 0x10001E47C, symSize: 0x18 }
  - { offsetInCU: 0x3CE49, offset: 0x53FF1, size: 0x8, addend: 0x0, symName: __ZNKSt3__117__compressed_pairIPNS_12basic_stringIcNS_11char_traitsIcEENS_9allocatorIcEEEENS4_IS6_EEE6secondB7v160006Ev, symObjAddr: 0x15964, symBinAddr: 0x10001E494, symSize: 0x24 }
  - { offsetInCU: 0x3CE6F, offset: 0x54017, size: 0x8, addend: 0x0, symName: __ZNKSt3__122__compressed_pair_elemINS_9allocatorINS_12basic_stringIcNS_11char_traitsIcEENS1_IcEEEEEELi1ELb1EE5__getB7v160006Ev, symObjAddr: 0x15988, symBinAddr: 0x10001E4B8, symSize: 0x14 }
  - { offsetInCU: 0x3CE95, offset: 0x5403D, size: 0x8, addend: 0x0, symName: __ZNKSt3__16vectorINS_12basic_stringIcNS_11char_traitsIcEENS_9allocatorIcEEEENS4_IS6_EEE9__end_capB7v160006Ev, symObjAddr: 0x1599C, symBinAddr: 0x10001E4CC, symSize: 0x28 }
  - { offsetInCU: 0x3CEBB, offset: 0x54063, size: 0x8, addend: 0x0, symName: __ZNKSt3__117__compressed_pairIPNS_12basic_stringIcNS_11char_traitsIcEENS_9allocatorIcEEEENS4_IS6_EEE5firstB7v160006Ev, symObjAddr: 0x159C4, symBinAddr: 0x10001E4F4, symSize: 0x24 }
  - { offsetInCU: 0x3CEE1, offset: 0x54089, size: 0x8, addend: 0x0, symName: __ZNKSt3__122__compressed_pair_elemIPNS_12basic_stringIcNS_11char_traitsIcEENS_9allocatorIcEEEELi0ELb0EE5__getB7v160006Ev, symObjAddr: 0x159E8, symBinAddr: 0x10001E518, symSize: 0x14 }
  - { offsetInCU: 0x3CF07, offset: 0x540AF, size: 0x8, addend: 0x0, symName: __ZNSt3__114__split_bufferINS_12basic_stringIcNS_11char_traitsIcEENS_9allocatorIcEEEERNS4_IS6_EEEC2EmmS8_, symObjAddr: 0x159FC, symBinAddr: 0x10001E52C, symSize: 0xE0 }
  - { offsetInCU: 0x3CF7A, offset: 0x54122, size: 0x8, addend: 0x0, symName: __ZNSt3__117__compressed_pairIPNS_12basic_stringIcNS_11char_traitsIcEENS_9allocatorIcEEEERNS4_IS6_EEEC1B7v160006IDnS9_EEOT_OT0_, symObjAddr: 0x15ADC, symBinAddr: 0x10001E60C, symSize: 0x3C }
  - { offsetInCU: 0x3CFD2, offset: 0x5417A, size: 0x8, addend: 0x0, symName: __ZNSt3__114__split_bufferINS_12basic_stringIcNS_11char_traitsIcEENS_9allocatorIcEEEERNS4_IS6_EEE7__allocB7v160006Ev, symObjAddr: 0x15B58, symBinAddr: 0x10001E688, symSize: 0x28 }
  - { offsetInCU: 0x3CFF8, offset: 0x541A0, size: 0x8, addend: 0x0, symName: __ZNSt3__114__split_bufferINS_12basic_stringIcNS_11char_traitsIcEENS_9allocatorIcEEEERNS4_IS6_EEE9__end_capB7v160006Ev, symObjAddr: 0x15B80, symBinAddr: 0x10001E6B0, symSize: 0x28 }
  - { offsetInCU: 0x3D01E, offset: 0x541C6, size: 0x8, addend: 0x0, symName: __ZNSt3__117__compressed_pairIPNS_12basic_stringIcNS_11char_traitsIcEENS_9allocatorIcEEEERNS4_IS6_EEEC2B7v160006IDnS9_EEOT_OT0_, symObjAddr: 0x15BA8, symBinAddr: 0x10001E6D8, symSize: 0x48 }
  - { offsetInCU: 0x3D076, offset: 0x5421E, size: 0x8, addend: 0x0, symName: __ZNSt3__122__compressed_pair_elemIRNS_9allocatorINS_12basic_stringIcNS_11char_traitsIcEENS1_IcEEEEEELi1ELb0EEC2B7v160006IS8_vEEOT_, symObjAddr: 0x15BF0, symBinAddr: 0x10001E720, symSize: 0x20 }
  - { offsetInCU: 0x3D0B8, offset: 0x54260, size: 0x8, addend: 0x0, symName: __ZNSt3__19allocatorINS_12basic_stringIcNS_11char_traitsIcEENS0_IcEEEEE8allocateB7v160006Em, symObjAddr: 0x15C10, symBinAddr: 0x10001E740, symSize: 0x5C }
  - { offsetInCU: 0x3D0EC, offset: 0x54294, size: 0x8, addend: 0x0, symName: __ZNSt3__117__compressed_pairIPNS_12basic_stringIcNS_11char_traitsIcEENS_9allocatorIcEEEERNS4_IS6_EEE6secondB7v160006Ev, symObjAddr: 0x15C6C, symBinAddr: 0x10001E79C, symSize: 0x28 }
  - { offsetInCU: 0x3D112, offset: 0x542BA, size: 0x8, addend: 0x0, symName: __ZNSt3__122__compressed_pair_elemIRNS_9allocatorINS_12basic_stringIcNS_11char_traitsIcEENS1_IcEEEEEELi1ELb0EE5__getB7v160006Ev, symObjAddr: 0x15C94, symBinAddr: 0x10001E7C4, symSize: 0x18 }
  - { offsetInCU: 0x3D138, offset: 0x542E0, size: 0x8, addend: 0x0, symName: __ZNSt3__117__compressed_pairIPNS_12basic_stringIcNS_11char_traitsIcEENS_9allocatorIcEEEERNS4_IS6_EEE5firstB7v160006Ev, symObjAddr: 0x15CAC, symBinAddr: 0x10001E7DC, symSize: 0x24 }
  - { offsetInCU: 0x3D15E, offset: 0x54306, size: 0x8, addend: 0x0, symName: __ZNKSt3__16vectorINS_12basic_stringIcNS_11char_traitsIcEENS_9allocatorIcEEEENS4_IS6_EEE17__annotate_deleteB7v160006Ev, symObjAddr: 0x15CD0, symBinAddr: 0x10001E800, symSize: 0xD4 }
  - { offsetInCU: 0x3D184, offset: 0x5432C, size: 0x8, addend: 0x0, symName: __ZNSt3__116reverse_iteratorIPNS_12basic_stringIcNS_11char_traitsIcEENS_9allocatorIcEEEEEC1B7v160006ES7_, symObjAddr: 0x15ED0, symBinAddr: 0x10001EA00, symSize: 0x34 }
  - { offsetInCU: 0x3D1BC, offset: 0x54364, size: 0x8, addend: 0x0, symName: __ZNKSt3__116reverse_iteratorIPNS_12basic_stringIcNS_11char_traitsIcEENS_9allocatorIcEEEEE4baseB7v160006Ev, symObjAddr: 0x15F04, symBinAddr: 0x10001EA34, symSize: 0x18 }
  - { offsetInCU: 0x3D1E2, offset: 0x5438A, size: 0x8, addend: 0x0, symName: __ZNKSt3__16vectorINS_12basic_stringIcNS_11char_traitsIcEENS_9allocatorIcEEEENS4_IS6_EEE14__annotate_newB7v160006Em, symObjAddr: 0x15F58, symBinAddr: 0x10001EA88, symSize: 0xC8 }
  - { offsetInCU: 0x3D217, offset: 0x543BF, size: 0x8, addend: 0x0, symName: __ZNKSt3__16vectorINS_12basic_stringIcNS_11char_traitsIcEENS_9allocatorIcEEEENS4_IS6_EEE31__annotate_contiguous_containerB7v160006EPKvSA_SA_SA_, symObjAddr: 0x16030, symBinAddr: 0x10001EB60, symSize: 0x20 }
  - { offsetInCU: 0x3D269, offset: 0x54411, size: 0x8, addend: 0x0, symName: __ZNKSt3__16vectorINS_12basic_stringIcNS_11char_traitsIcEENS_9allocatorIcEEEENS4_IS6_EEE4dataB7v160006Ev, symObjAddr: 0x16050, symBinAddr: 0x10001EB80, symSize: 0x28 }
  - { offsetInCU: 0x3D28F, offset: 0x54437, size: 0x8, addend: 0x0, symName: __ZNSt3__129_AllocatorDestroyRangeReverseINS_9allocatorINS_12basic_stringIcNS_11char_traitsIcEENS1_IcEEEEEENS_16reverse_iteratorIPS6_EEEC1B7v160006ERS7_RSA_SD_, symObjAddr: 0x160C4, symBinAddr: 0x10001EBF4, symSize: 0x44 }
  - { offsetInCU: 0x3D2EB, offset: 0x54493, size: 0x8, addend: 0x0, symName: __ZNSt3__116allocator_traitsINS_9allocatorINS_12basic_stringIcNS_11char_traitsIcEENS1_IcEEEEEEE9constructB7v160006IS6_JS6_EvEEvRS7_PT_DpOT0_, symObjAddr: 0x16150, symBinAddr: 0x10001EC80, symSize: 0x34 }
  - { offsetInCU: 0x3D342, offset: 0x544EA, size: 0x8, addend: 0x0, symName: __ZNKSt3__116reverse_iteratorIPNS_12basic_stringIcNS_11char_traitsIcEENS_9allocatorIcEEEEEdeB7v160006Ev, symObjAddr: 0x161A8, symBinAddr: 0x10001ECD8, symSize: 0x28 }
  - { offsetInCU: 0x3D376, offset: 0x5451E, size: 0x8, addend: 0x0, symName: __ZNSt3__116reverse_iteratorIPNS_12basic_stringIcNS_11char_traitsIcEENS_9allocatorIcEEEEEppB7v160006Ev, symObjAddr: 0x161D0, symBinAddr: 0x10001ED00, symSize: 0x20 }
  - { offsetInCU: 0x3D39C, offset: 0x54544, size: 0x8, addend: 0x0, symName: __ZNSt3__128__exception_guard_exceptionsINS_29_AllocatorDestroyRangeReverseINS_9allocatorINS_12basic_stringIcNS_11char_traitsIcEENS2_IcEEEEEENS_16reverse_iteratorIPS7_EEEEE10__completeB7v160006Ev, symObjAddr: 0x161F0, symBinAddr: 0x10001ED20, symSize: 0x1C }
  - { offsetInCU: 0x3D3C2, offset: 0x5456A, size: 0x8, addend: 0x0, symName: __ZNSt3__128__exception_guard_exceptionsINS_29_AllocatorDestroyRangeReverseINS_9allocatorINS_12basic_stringIcNS_11char_traitsIcEENS2_IcEEEEEENS_16reverse_iteratorIPS7_EEEEED1B7v160006Ev, symObjAddr: 0x1620C, symBinAddr: 0x10001ED3C, symSize: 0x2C }
  - { offsetInCU: 0x3D3EC, offset: 0x54594, size: 0x8, addend: 0x0, symName: __ZNSt3__128__exception_guard_exceptionsINS_29_AllocatorDestroyRangeReverseINS_9allocatorINS_12basic_stringIcNS_11char_traitsIcEENS2_IcEEEEEENS_16reverse_iteratorIPS7_EEEEEC1B7v160006ESC_, symObjAddr: 0x16238, symBinAddr: 0x10001ED68, symSize: 0x34 }
  - { offsetInCU: 0x3D425, offset: 0x545CD, size: 0x8, addend: 0x0, symName: __ZNSt3__128__exception_guard_exceptionsINS_29_AllocatorDestroyRangeReverseINS_9allocatorINS_12basic_stringIcNS_11char_traitsIcEENS2_IcEEEEEENS_16reverse_iteratorIPS7_EEEEEC2B7v160006ESC_, symObjAddr: 0x1626C, symBinAddr: 0x10001ED9C, symSize: 0x30 }
  - { offsetInCU: 0x3D45E, offset: 0x54606, size: 0x8, addend: 0x0, symName: __ZNSt3__129_AllocatorDestroyRangeReverseINS_9allocatorINS_12basic_stringIcNS_11char_traitsIcEENS1_IcEEEEEENS_16reverse_iteratorIPS6_EEEC2B7v160006ERS7_RSA_SD_, symObjAddr: 0x1629C, symBinAddr: 0x10001EDCC, symSize: 0x38 }
  - { offsetInCU: 0x3D4B5, offset: 0x5465D, size: 0x8, addend: 0x0, symName: __ZNSt3__19allocatorINS_12basic_stringIcNS_11char_traitsIcEENS0_IcEEEEE9constructB7v160006IS5_JS5_EEEvPT_DpOT0_, symObjAddr: 0x162D4, symBinAddr: 0x10001EE04, symSize: 0x30 }
  - { offsetInCU: 0x3D510, offset: 0x546B8, size: 0x8, addend: 0x0, symName: __ZNSt3__119__to_address_helperINS_16reverse_iteratorIPNS_12basic_stringIcNS_11char_traitsIcEENS_9allocatorIcEEEEEEvE6__callB7v160006ERKS9_, symObjAddr: 0x16304, symBinAddr: 0x10001EE34, symSize: 0x38 }
  - { offsetInCU: 0x3D533, offset: 0x546DB, size: 0x8, addend: 0x0, symName: __ZNKSt3__116reverse_iteratorIPNS_12basic_stringIcNS_11char_traitsIcEENS_9allocatorIcEEEEEptB7v160006Ev, symObjAddr: 0x1633C, symBinAddr: 0x10001EE6C, symSize: 0x24 }
  - { offsetInCU: 0x3D559, offset: 0x54701, size: 0x8, addend: 0x0, symName: __ZNSt3__128__exception_guard_exceptionsINS_29_AllocatorDestroyRangeReverseINS_9allocatorINS_12basic_stringIcNS_11char_traitsIcEENS2_IcEEEEEENS_16reverse_iteratorIPS7_EEEEED2B7v160006Ev, symObjAddr: 0x16360, symBinAddr: 0x10001EE90, symSize: 0x50 }
  - { offsetInCU: 0x3D583, offset: 0x5472B, size: 0x8, addend: 0x0, symName: __ZNKSt3__129_AllocatorDestroyRangeReverseINS_9allocatorINS_12basic_stringIcNS_11char_traitsIcEENS1_IcEEEEEENS_16reverse_iteratorIPS6_EEEclB7v160006Ev, symObjAddr: 0x163B0, symBinAddr: 0x10001EEE0, symSize: 0xB4 }
  - { offsetInCU: 0x3D5AA, offset: 0x54752, size: 0x8, addend: 0x0, symName: __ZNSt3__116reverse_iteratorINS0_IPNS_12basic_stringIcNS_11char_traitsIcEENS_9allocatorIcEEEEEEEC1B7v160006ES8_, symObjAddr: 0x164D4, symBinAddr: 0x10001F004, symSize: 0x3C }
  - { offsetInCU: 0x3D5E2, offset: 0x5478A, size: 0x8, addend: 0x0, symName: __ZNSt3__116allocator_traitsINS_9allocatorINS_12basic_stringIcNS_11char_traitsIcEENS1_IcEEEEEEE7destroyB7v160006IS6_vEEvRS7_PT_, symObjAddr: 0x16570, symBinAddr: 0x10001F0A0, symSize: 0x2C }
  - { offsetInCU: 0x3D61F, offset: 0x547C7, size: 0x8, addend: 0x0, symName: __ZNSt3__116reverse_iteratorINS0_IPNS_12basic_stringIcNS_11char_traitsIcEENS_9allocatorIcEEEEEEEppB7v160006Ev, symObjAddr: 0x165C0, symBinAddr: 0x10001F0F0, symSize: 0x30 }
  - { offsetInCU: 0x3D645, offset: 0x547ED, size: 0x8, addend: 0x0, symName: __ZNKSt3__116reverse_iteratorINS0_IPNS_12basic_stringIcNS_11char_traitsIcEENS_9allocatorIcEEEEEEE4baseB7v160006Ev, symObjAddr: 0x165F0, symBinAddr: 0x10001F120, symSize: 0x24 }
  - { offsetInCU: 0x3D66B, offset: 0x54813, size: 0x8, addend: 0x0, symName: __ZNSt3__19allocatorINS_12basic_stringIcNS_11char_traitsIcEENS0_IcEEEEE7destroyB7v160006EPS5_, symObjAddr: 0x16614, symBinAddr: 0x10001F144, symSize: 0x28 }
  - { offsetInCU: 0x3D6A4, offset: 0x5484C, size: 0x8, addend: 0x0, symName: __ZNSt3__119__to_address_helperINS_16reverse_iteratorINS1_IPNS_12basic_stringIcNS_11char_traitsIcEENS_9allocatorIcEEEEEEEEvE6__callB7v160006ERKSA_, symObjAddr: 0x1663C, symBinAddr: 0x10001F16C, symSize: 0x38 }
  - { offsetInCU: 0x3D6C7, offset: 0x5486F, size: 0x8, addend: 0x0, symName: __ZNKSt3__116reverse_iteratorINS0_IPNS_12basic_stringIcNS_11char_traitsIcEENS_9allocatorIcEEEEEEEptB7v160006Ev, symObjAddr: 0x16674, symBinAddr: 0x10001F1A4, symSize: 0x24 }
  - { offsetInCU: 0x3D6ED, offset: 0x54895, size: 0x8, addend: 0x0, symName: __ZNKSt3__116reverse_iteratorINS0_IPNS_12basic_stringIcNS_11char_traitsIcEENS_9allocatorIcEEEEEEEdeB7v160006Ev, symObjAddr: 0x16698, symBinAddr: 0x10001F1C8, symSize: 0x34 }
  - { offsetInCU: 0x3D721, offset: 0x548C9, size: 0x8, addend: 0x0, symName: __ZNSt3__116reverse_iteratorIPNS_12basic_stringIcNS_11char_traitsIcEENS_9allocatorIcEEEEEmmB7v160006Ev, symObjAddr: 0x166CC, symBinAddr: 0x10001F1FC, symSize: 0x20 }
  - { offsetInCU: 0x3D747, offset: 0x548EF, size: 0x8, addend: 0x0, symName: __ZNSt3__116reverse_iteratorINS0_IPNS_12basic_stringIcNS_11char_traitsIcEENS_9allocatorIcEEEEEEEC2B7v160006ES8_, symObjAddr: 0x166EC, symBinAddr: 0x10001F21C, symSize: 0x2C }
  - { offsetInCU: 0x3D77F, offset: 0x54927, size: 0x8, addend: 0x0, symName: __ZNSt3__116reverse_iteratorIPNS_12basic_stringIcNS_11char_traitsIcEENS_9allocatorIcEEEEEC2B7v160006ES7_, symObjAddr: 0x16718, symBinAddr: 0x10001F248, symSize: 0x28 }
  - { offsetInCU: 0x3D7B7, offset: 0x5495F, size: 0x8, addend: 0x0, symName: __ZNSt3__114__split_bufferINS_12basic_stringIcNS_11char_traitsIcEENS_9allocatorIcEEEERNS4_IS6_EEED2Ev, symObjAddr: 0x16740, symBinAddr: 0x10001F270, symSize: 0x8C }
  - { offsetInCU: 0x3D7E3, offset: 0x5498B, size: 0x8, addend: 0x0, symName: __ZNSt3__114__split_bufferINS_12basic_stringIcNS_11char_traitsIcEENS_9allocatorIcEEEERNS4_IS6_EEE5clearB7v160006Ev, symObjAddr: 0x167CC, symBinAddr: 0x10001F2FC, symSize: 0x28 }
  - { offsetInCU: 0x3D809, offset: 0x549B1, size: 0x8, addend: 0x0, symName: __ZNSt3__116allocator_traitsINS_9allocatorINS_12basic_stringIcNS_11char_traitsIcEENS1_IcEEEEEEE10deallocateB7v160006ERS7_PS6_m, symObjAddr: 0x167F4, symBinAddr: 0x10001F324, symSize: 0x34 }
  - { offsetInCU: 0x3D84B, offset: 0x549F3, size: 0x8, addend: 0x0, symName: __ZNKSt3__114__split_bufferINS_12basic_stringIcNS_11char_traitsIcEENS_9allocatorIcEEEERNS4_IS6_EEE8capacityB7v160006Ev, symObjAddr: 0x16828, symBinAddr: 0x10001F358, symSize: 0x40 }
  - { offsetInCU: 0x3D871, offset: 0x54A19, size: 0x8, addend: 0x0, symName: __ZNSt3__114__split_bufferINS_12basic_stringIcNS_11char_traitsIcEENS_9allocatorIcEEEERNS4_IS6_EEE17__destruct_at_endB7v160006EPS6_, symObjAddr: 0x16868, symBinAddr: 0x10001F398, symSize: 0x2C }
  - { offsetInCU: 0x3D8A5, offset: 0x54A4D, size: 0x8, addend: 0x0, symName: __ZNSt3__114__split_bufferINS_12basic_stringIcNS_11char_traitsIcEENS_9allocatorIcEEEERNS4_IS6_EEE17__destruct_at_endB7v160006EPS6_NS_17integral_constantIbLb0EEE, symObjAddr: 0x16894, symBinAddr: 0x10001F3C4, symSize: 0x80 }
  - { offsetInCU: 0x3D8E6, offset: 0x54A8E, size: 0x8, addend: 0x0, symName: __ZNSt3__19allocatorINS_12basic_stringIcNS_11char_traitsIcEENS0_IcEEEEE10deallocateB7v160006EPS5_m, symObjAddr: 0x16914, symBinAddr: 0x10001F444, symSize: 0x44 }
  - { offsetInCU: 0x3D928, offset: 0x54AD0, size: 0x8, addend: 0x0, symName: __ZNKSt3__114__split_bufferINS_12basic_stringIcNS_11char_traitsIcEENS_9allocatorIcEEEERNS4_IS6_EEE9__end_capB7v160006Ev, symObjAddr: 0x16958, symBinAddr: 0x10001F488, symSize: 0x28 }
  - { offsetInCU: 0x3D94E, offset: 0x54AF6, size: 0x8, addend: 0x0, symName: __ZNKSt3__117__compressed_pairIPNS_12basic_stringIcNS_11char_traitsIcEENS_9allocatorIcEEEERNS4_IS6_EEE5firstB7v160006Ev, symObjAddr: 0x16980, symBinAddr: 0x10001F4B0, symSize: 0x24 }
  - { offsetInCU: 0x3D974, offset: 0x54B1C, size: 0x8, addend: 0x0, symName: __ZNSt3__16vectorINS_12basic_stringIcNS_11char_traitsIcEENS_9allocatorIcEEEENS4_IS6_EEEaSB7v160006EOS8_, symObjAddr: 0x169A4, symBinAddr: 0x10001F4D4, symSize: 0x34 }
  - { offsetInCU: 0x3D9AB, offset: 0x54B53, size: 0x8, addend: 0x0, symName: __ZNSt3__16vectorINS_12basic_stringIcNS_11char_traitsIcEENS_9allocatorIcEEEENS4_IS6_EEE13__move_assignERS8_NS_17integral_constantIbLb1EEE, symObjAddr: 0x169D8, symBinAddr: 0x10001F508, symSize: 0xAC }
  - { offsetInCU: 0x3D9ED, offset: 0x54B95, size: 0x8, addend: 0x0, symName: __ZNSt3__16vectorINS_12basic_stringIcNS_11char_traitsIcEENS_9allocatorIcEEEENS4_IS6_EEE13__vdeallocateEv, symObjAddr: 0x16A84, symBinAddr: 0x10001F5B4, symSize: 0x8C }
  - { offsetInCU: 0x3DA15, offset: 0x54BBD, size: 0x8, addend: 0x0, symName: __ZNSt3__16vectorINS_12basic_stringIcNS_11char_traitsIcEENS_9allocatorIcEEEENS4_IS6_EEE19__move_assign_allocB7v160006ERS8_, symObjAddr: 0x16B10, symBinAddr: 0x10001F640, symSize: 0x2C }
  - { offsetInCU: 0x3DA4A, offset: 0x54BF2, size: 0x8, addend: 0x0, symName: __ZNSt3__16vectorINS_12basic_stringIcNS_11char_traitsIcEENS_9allocatorIcEEEENS4_IS6_EEE5clearB7v160006Ev, symObjAddr: 0x16B50, symBinAddr: 0x10001F680, symSize: 0x4C }
  - { offsetInCU: 0x3DA7F, offset: 0x54C27, size: 0x8, addend: 0x0, symName: __ZNSt3__16vectorINS_12basic_stringIcNS_11char_traitsIcEENS_9allocatorIcEEEENS4_IS6_EEE7__clearB7v160006Ev, symObjAddr: 0x16B9C, symBinAddr: 0x10001F6CC, symSize: 0x28 }
  - { offsetInCU: 0x3DAA5, offset: 0x54C4D, size: 0x8, addend: 0x0, symName: __ZNKSt3__16vectorINS_12basic_stringIcNS_11char_traitsIcEENS_9allocatorIcEEEENS4_IS6_EEE17__annotate_shrinkB7v160006Em, symObjAddr: 0x16BC4, symBinAddr: 0x10001F6F4, symSize: 0xD0 }
  - { offsetInCU: 0x3DADA, offset: 0x54C82, size: 0x8, addend: 0x0, symName: __ZNSt3__16vectorINS_12basic_stringIcNS_11char_traitsIcEENS_9allocatorIcEEEENS4_IS6_EEE22__base_destruct_at_endB7v160006EPS6_, symObjAddr: 0x16C94, symBinAddr: 0x10001F7C4, symSize: 0x8C }
  - { offsetInCU: 0x3DB1E, offset: 0x54CC6, size: 0x8, addend: 0x0, symName: __ZNSt3__16vectorINS_12basic_stringIcNS_11char_traitsIcEENS_9allocatorIcEEEENS4_IS6_EEE19__move_assign_allocB7v160006ERS8_NS_17integral_constantIbLb1EEE, symObjAddr: 0x16D20, symBinAddr: 0x10001F850, symSize: 0x38 }
  - { offsetInCU: 0x3DB5E, offset: 0x54D06, size: 0x8, addend: 0x0, symName: __ZN6HeaderD2Ev, symObjAddr: 0x16D58, symBinAddr: 0x10001F888, symSize: 0x2C }
  - { offsetInCU: 0x3DB8A, offset: 0x54D32, size: 0x8, addend: 0x0, symName: __ZNSt3__16vectorINS_12basic_stringIcNS_11char_traitsIcEENS_9allocatorIcEEEENS4_IS6_EEED2B7v160006Ev, symObjAddr: 0x16D84, symBinAddr: 0x10001F8B4, symSize: 0x44 }
  - { offsetInCU: 0x3DBB4, offset: 0x54D5C, size: 0x8, addend: 0x0, symName: __ZNSt3__16vectorINS_12basic_stringIcNS_11char_traitsIcEENS_9allocatorIcEEEENS4_IS6_EEE16__destroy_vectorC1ERS8_, symObjAddr: 0x16DC8, symBinAddr: 0x10001F8F8, symSize: 0x34 }
  - { offsetInCU: 0x3DBED, offset: 0x54D95, size: 0x8, addend: 0x0, symName: __ZNSt3__16vectorINS_12basic_stringIcNS_11char_traitsIcEENS_9allocatorIcEEEENS4_IS6_EEE16__destroy_vectorclB7v160006Ev, symObjAddr: 0x16DFC, symBinAddr: 0x10001F92C, symSize: 0x9C }
  - { offsetInCU: 0x3DC13, offset: 0x54DBB, size: 0x8, addend: 0x0, symName: __ZNSt3__16vectorINS_12basic_stringIcNS_11char_traitsIcEENS_9allocatorIcEEEENS4_IS6_EEE16__destroy_vectorC2ERS8_, symObjAddr: 0x16E98, symBinAddr: 0x10001F9C8, symSize: 0x20 }
  - { offsetInCU: 0x3DC4C, offset: 0x54DF4, size: 0x8, addend: 0x0, symName: __ZNSt3__16vectorI3RowNS_9allocatorIS1_EEED2B7v160006Ev, symObjAddr: 0x16EC8, symBinAddr: 0x10001F9F8, symSize: 0x44 }
  - { offsetInCU: 0x3DC76, offset: 0x54E1E, size: 0x8, addend: 0x0, symName: __ZNSt3__16vectorI3RowNS_9allocatorIS1_EEE16__destroy_vectorC1ERS4_, symObjAddr: 0x16F0C, symBinAddr: 0x10001FA3C, symSize: 0x34 }
  - { offsetInCU: 0x3DCAF, offset: 0x54E57, size: 0x8, addend: 0x0, symName: __ZNSt3__16vectorI3RowNS_9allocatorIS1_EEE16__destroy_vectorclB7v160006Ev, symObjAddr: 0x16F40, symBinAddr: 0x10001FA70, symSize: 0x9C }
  - { offsetInCU: 0x3DCD5, offset: 0x54E7D, size: 0x8, addend: 0x0, symName: __ZNSt3__16vectorI3RowNS_9allocatorIS1_EEE16__destroy_vectorC2ERS4_, symObjAddr: 0x16FDC, symBinAddr: 0x10001FB0C, symSize: 0x20 }
  - { offsetInCU: 0x3DD0E, offset: 0x54EB6, size: 0x8, addend: 0x0, symName: __ZNKSt3__16vectorI3RowNS_9allocatorIS1_EEE17__annotate_deleteB7v160006Ev, symObjAddr: 0x16FFC, symBinAddr: 0x10001FB2C, symSize: 0xD4 }
  - { offsetInCU: 0x3DD34, offset: 0x54EDC, size: 0x8, addend: 0x0, symName: __ZNSt3__16vectorI3RowNS_9allocatorIS1_EEE7__clearB7v160006Ev, symObjAddr: 0x170E0, symBinAddr: 0x10001FC10, symSize: 0x28 }
  - { offsetInCU: 0x3DD5A, offset: 0x54F02, size: 0x8, addend: 0x0, symName: __ZNSt3__116allocator_traitsINS_9allocatorI3RowEEE10deallocateB7v160006ERS3_PS2_m, symObjAddr: 0x17108, symBinAddr: 0x10001FC38, symSize: 0x34 }
  - { offsetInCU: 0x3DD9C, offset: 0x54F44, size: 0x8, addend: 0x0, symName: __ZNSt3__16vectorI3RowNS_9allocatorIS1_EEE7__allocB7v160006Ev, symObjAddr: 0x1713C, symBinAddr: 0x10001FC6C, symSize: 0x28 }
  - { offsetInCU: 0x3DDC2, offset: 0x54F6A, size: 0x8, addend: 0x0, symName: __ZNKSt3__16vectorI3RowNS_9allocatorIS1_EEE8capacityB7v160006Ev, symObjAddr: 0x17164, symBinAddr: 0x10001FC94, symSize: 0x40 }
  - { offsetInCU: 0x3DDE8, offset: 0x54F90, size: 0x8, addend: 0x0, symName: __ZNKSt3__16vectorI3RowNS_9allocatorIS1_EEE31__annotate_contiguous_containerB7v160006EPKvS6_S6_S6_, symObjAddr: 0x171A4, symBinAddr: 0x10001FCD4, symSize: 0x20 }
  - { offsetInCU: 0x3DE3A, offset: 0x54FE2, size: 0x8, addend: 0x0, symName: __ZNKSt3__16vectorI3RowNS_9allocatorIS1_EEE4dataB7v160006Ev, symObjAddr: 0x171C4, symBinAddr: 0x10001FCF4, symSize: 0x28 }
  - { offsetInCU: 0x3DE60, offset: 0x55008, size: 0x8, addend: 0x0, symName: __ZNKSt3__16vectorI3RowNS_9allocatorIS1_EEE4sizeB7v160006Ev, symObjAddr: 0x171EC, symBinAddr: 0x10001FD1C, symSize: 0x28 }
  - { offsetInCU: 0x3DE86, offset: 0x5502E, size: 0x8, addend: 0x0, symName: __ZNSt3__16vectorI3RowNS_9allocatorIS1_EEE22__base_destruct_at_endB7v160006EPS1_, symObjAddr: 0x17228, symBinAddr: 0x10001FD58, symSize: 0x8C }
  - { offsetInCU: 0x3DECA, offset: 0x55072, size: 0x8, addend: 0x0, symName: __ZNSt3__116allocator_traitsINS_9allocatorI3RowEEE7destroyB7v160006IS2_vEEvRS3_PT_, symObjAddr: 0x172B4, symBinAddr: 0x10001FDE4, symSize: 0x2C }
  - { offsetInCU: 0x3DF07, offset: 0x550AF, size: 0x8, addend: 0x0, symName: __ZNSt3__19allocatorI3RowE7destroyB7v160006EPS1_, symObjAddr: 0x172E0, symBinAddr: 0x10001FE10, symSize: 0x28 }
  - { offsetInCU: 0x3DF40, offset: 0x550E8, size: 0x8, addend: 0x0, symName: __ZN3RowD1Ev, symObjAddr: 0x17308, symBinAddr: 0x10001FE38, symSize: 0x2C }
  - { offsetInCU: 0x3DF6C, offset: 0x55114, size: 0x8, addend: 0x0, symName: __ZN3RowD2Ev, symObjAddr: 0x17334, symBinAddr: 0x10001FE64, symSize: 0x2C }
  - { offsetInCU: 0x3DF98, offset: 0x55140, size: 0x8, addend: 0x0, symName: __ZNSt3__19allocatorI3RowE10deallocateB7v160006EPS1_m, symObjAddr: 0x17360, symBinAddr: 0x10001FE90, symSize: 0x44 }
  - { offsetInCU: 0x3DFDA, offset: 0x55182, size: 0x8, addend: 0x0, symName: __ZNSt3__117__compressed_pairIP3RowNS_9allocatorIS1_EEE6secondB7v160006Ev, symObjAddr: 0x173A4, symBinAddr: 0x10001FED4, symSize: 0x24 }
  - { offsetInCU: 0x3E000, offset: 0x551A8, size: 0x8, addend: 0x0, symName: __ZNSt3__122__compressed_pair_elemINS_9allocatorI3RowEELi1ELb1EE5__getB7v160006Ev, symObjAddr: 0x173C8, symBinAddr: 0x10001FEF8, symSize: 0x14 }
  - { offsetInCU: 0x3E026, offset: 0x551CE, size: 0x8, addend: 0x0, symName: __ZNKSt3__16vectorI3RowNS_9allocatorIS1_EEE9__end_capB7v160006Ev, symObjAddr: 0x173DC, symBinAddr: 0x10001FF0C, symSize: 0x28 }
  - { offsetInCU: 0x3E04C, offset: 0x551F4, size: 0x8, addend: 0x0, symName: __ZNKSt3__117__compressed_pairIP3RowNS_9allocatorIS1_EEE5firstB7v160006Ev, symObjAddr: 0x17404, symBinAddr: 0x10001FF34, symSize: 0x24 }
  - { offsetInCU: 0x3E072, offset: 0x5521A, size: 0x8, addend: 0x0, symName: __ZNKSt3__122__compressed_pair_elemIP3RowLi0ELb0EE5__getB7v160006Ev, symObjAddr: 0x17428, symBinAddr: 0x10001FF58, symSize: 0x14 }
  - { offsetInCU: 0x3E0AC, offset: 0x55254, size: 0x8, addend: 0x0, symName: __ZNSt3__16__treeINS_12__value_typeINS_12basic_stringIcNS_11char_traitsIcEENS_9allocatorIcEEEE5TableEENS_19__map_value_compareIS7_S9_NS_4lessIS7_EELb1EEENS5_IS9_EEE25__emplace_unique_key_argsIS7_JRKNS_21piecewise_construct_tENS_5tupleIJRKS7_EEENSK_IJEEEEEENS_4pairINS_15__tree_iteratorIS9_PNS_11__tree_nodeIS9_PvEElEEbEERKT_DpOT0_, symObjAddr: 0x1743C, symBinAddr: 0x10001FF6C, symSize: 0x100 }
  - { offsetInCU: 0x3E182, offset: 0x5532A, size: 0x8, addend: 0x0, symName: __ZNKSt3__115__tree_iteratorINS_12__value_typeINS_12basic_stringIcNS_11char_traitsIcEENS_9allocatorIcEEEE5TableEEPNS_11__tree_nodeIS9_PvEElEptB7v160006Ev, symObjAddr: 0x1756C, symBinAddr: 0x10002009C, symSize: 0x2C }
  - { offsetInCU: 0x3E1A8, offset: 0x55350, size: 0x8, addend: 0x0, symName: __ZNSt3__112__value_typeINS_12basic_stringIcNS_11char_traitsIcEENS_9allocatorIcEEEE5TableE11__get_valueB7v160006Ev, symObjAddr: 0x17598, symBinAddr: 0x1000200C8, symSize: 0x24 }
  - { offsetInCU: 0x3E1CE, offset: 0x55376, size: 0x8, addend: 0x0, symName: __ZNSt3__16__treeINS_12__value_typeINS_12basic_stringIcNS_11char_traitsIcEENS_9allocatorIcEEEE5TableEENS_19__map_value_compareIS7_S9_NS_4lessIS7_EELb1EEENS5_IS9_EEE12__find_equalIS7_EERPNS_16__tree_node_baseIPvEERPNS_15__tree_end_nodeISK_EERKT_, symObjAddr: 0x175BC, symBinAddr: 0x1000200EC, symSize: 0x184 }
  - { offsetInCU: 0x3E23B, offset: 0x553E3, size: 0x8, addend: 0x0, symName: __ZNSt3__16__treeINS_12__value_typeINS_12basic_stringIcNS_11char_traitsIcEENS_9allocatorIcEEEE5TableEENS_19__map_value_compareIS7_S9_NS_4lessIS7_EELb1EEENS5_IS9_EEE16__construct_nodeIJRKNS_21piecewise_construct_tENS_5tupleIJRKS7_EEENSK_IJEEEEEENS_10unique_ptrINS_11__tree_nodeIS9_PvEENS_22__tree_node_destructorINS5_ISS_EEEEEEDpOT_, symObjAddr: 0x17740, symBinAddr: 0x100020270, symSize: 0x120 }
  - { offsetInCU: 0x3E2C4, offset: 0x5546C, size: 0x8, addend: 0x0, symName: __ZNSt3__16__treeINS_12__value_typeINS_12basic_stringIcNS_11char_traitsIcEENS_9allocatorIcEEEE5TableEENS_19__map_value_compareIS7_S9_NS_4lessIS7_EELb1EEENS5_IS9_EEE16__insert_node_atEPNS_15__tree_end_nodeIPNS_16__tree_node_baseIPvEEEERSK_SK_, symObjAddr: 0x17860, symBinAddr: 0x100020390, symSize: 0xCC }
  - { offsetInCU: 0x3E319, offset: 0x554C1, size: 0x8, addend: 0x0, symName: __ZNKSt3__110unique_ptrINS_11__tree_nodeINS_12__value_typeINS_12basic_stringIcNS_11char_traitsIcEENS_9allocatorIcEEEE5TableEEPvEENS_22__tree_node_destructorINS6_ISC_EEEEE3getB7v160006Ev, symObjAddr: 0x1792C, symBinAddr: 0x10002045C, symSize: 0x28 }
  - { offsetInCU: 0x3E33F, offset: 0x554E7, size: 0x8, addend: 0x0, symName: __ZNSt3__110unique_ptrINS_11__tree_nodeINS_12__value_typeINS_12basic_stringIcNS_11char_traitsIcEENS_9allocatorIcEEEE5TableEEPvEENS_22__tree_node_destructorINS6_ISC_EEEEE7releaseB7v160006Ev, symObjAddr: 0x17954, symBinAddr: 0x100020484, symSize: 0x44 }
  - { offsetInCU: 0x3E374, offset: 0x5551C, size: 0x8, addend: 0x0, symName: __ZNSt3__110unique_ptrINS_11__tree_nodeINS_12__value_typeINS_12basic_stringIcNS_11char_traitsIcEENS_9allocatorIcEEEE5TableEEPvEENS_22__tree_node_destructorINS6_ISC_EEEEED1B7v160006Ev, symObjAddr: 0x17998, symBinAddr: 0x1000204C8, symSize: 0x2C }
  - { offsetInCU: 0x3E39E, offset: 0x55546, size: 0x8, addend: 0x0, symName: __ZNSt3__115__tree_iteratorINS_12__value_typeINS_12basic_stringIcNS_11char_traitsIcEENS_9allocatorIcEEEE5TableEEPNS_11__tree_nodeIS9_PvEElEC1B7v160006ESD_, symObjAddr: 0x179C4, symBinAddr: 0x1000204F4, symSize: 0x34 }
  - { offsetInCU: 0x3E3DC, offset: 0x55584, size: 0x8, addend: 0x0, symName: __ZNSt3__14pairINS_15__tree_iteratorINS_12__value_typeINS_12basic_stringIcNS_11char_traitsIcEENS_9allocatorIcEEEE5TableEEPNS_11__tree_nodeISA_PvEElEEbEC1B7v160006ISF_RbLSC_0EEEOT_OT0_, symObjAddr: 0x179F8, symBinAddr: 0x100020528, symSize: 0x3C }
  - { offsetInCU: 0x3E43A, offset: 0x555E2, size: 0x8, addend: 0x0, symName: __ZNKSt3__16__treeINS_12__value_typeINS_12basic_stringIcNS_11char_traitsIcEENS_9allocatorIcEEEE5TableEENS_19__map_value_compareIS7_S9_NS_4lessIS7_EELb1EEENS5_IS9_EEE6__rootB7v160006Ev, symObjAddr: 0x17A34, symBinAddr: 0x100020564, symSize: 0x28 }
  - { offsetInCU: 0x3E460, offset: 0x55608, size: 0x8, addend: 0x0, symName: __ZNKSt3__16__treeINS_12__value_typeINS_12basic_stringIcNS_11char_traitsIcEENS_9allocatorIcEEEE5TableEENS_19__map_value_compareIS7_S9_NS_4lessIS7_EELb1EEENS5_IS9_EEE10__root_ptrEv, symObjAddr: 0x17A5C, symBinAddr: 0x10002058C, symSize: 0x24 }
  - { offsetInCU: 0x3E486, offset: 0x5562E, size: 0x8, addend: 0x0, symName: __ZNSt3__16__treeINS_12__value_typeINS_12basic_stringIcNS_11char_traitsIcEENS_9allocatorIcEEEE5TableEENS_19__map_value_compareIS7_S9_NS_4lessIS7_EELb1EEENS5_IS9_EEE10value_compB7v160006Ev, symObjAddr: 0x17A80, symBinAddr: 0x1000205B0, symSize: 0x28 }
  - { offsetInCU: 0x3E4AC, offset: 0x55654, size: 0x8, addend: 0x0, symName: __ZNKSt3__119__map_value_compareINS_12basic_stringIcNS_11char_traitsIcEENS_9allocatorIcEEEENS_12__value_typeIS6_5TableEENS_4lessIS6_EELb1EEclB7v160006ERKS6_RKS9_, symObjAddr: 0x17AA8, symBinAddr: 0x1000205D8, symSize: 0x50 }
  - { offsetInCU: 0x3E4F0, offset: 0x55698, size: 0x8, addend: 0x0, symName: __ZNKSt3__119__map_value_compareINS_12basic_stringIcNS_11char_traitsIcEENS_9allocatorIcEEEENS_12__value_typeIS6_5TableEENS_4lessIS6_EELb1EEclB7v160006ERKS9_RKS6_, symObjAddr: 0x17AF8, symBinAddr: 0x100020628, symSize: 0x48 }
  - { offsetInCU: 0x3E534, offset: 0x556DC, size: 0x8, addend: 0x0, symName: __ZNKSt3__16__treeINS_12__value_typeINS_12basic_stringIcNS_11char_traitsIcEENS_9allocatorIcEEEE5TableEENS_19__map_value_compareIS7_S9_NS_4lessIS7_EELb1EEENS5_IS9_EEE10__end_nodeB7v160006Ev, symObjAddr: 0x17B40, symBinAddr: 0x100020670, symSize: 0x2C }
  - { offsetInCU: 0x3E55A, offset: 0x55702, size: 0x8, addend: 0x0, symName: __ZNKSt3__117__compressed_pairINS_15__tree_end_nodeIPNS_16__tree_node_baseIPvEEEENS_9allocatorINS_11__tree_nodeINS_12__value_typeINS_12basic_stringIcNS_11char_traitsIcEENS7_IcEEEE5TableEES3_EEEEE5firstB7v160006Ev, symObjAddr: 0x17B6C, symBinAddr: 0x10002069C, symSize: 0x24 }
  - { offsetInCU: 0x3E580, offset: 0x55728, size: 0x8, addend: 0x0, symName: __ZNKSt3__122__compressed_pair_elemINS_15__tree_end_nodeIPNS_16__tree_node_baseIPvEEEELi0ELb0EE5__getB7v160006Ev, symObjAddr: 0x17B90, symBinAddr: 0x1000206C0, symSize: 0x14 }
  - { offsetInCU: 0x3E5A6, offset: 0x5574E, size: 0x8, addend: 0x0, symName: __ZNSt3__117__compressed_pairImNS_19__map_value_compareINS_12basic_stringIcNS_11char_traitsIcEENS_9allocatorIcEEEENS_12__value_typeIS7_5TableEENS_4lessIS7_EELb1EEEE6secondB7v160006Ev, symObjAddr: 0x17BA4, symBinAddr: 0x1000206D4, symSize: 0x24 }
  - { offsetInCU: 0x3E5CC, offset: 0x55774, size: 0x8, addend: 0x0, symName: __ZNSt3__122__compressed_pair_elemINS_19__map_value_compareINS_12basic_stringIcNS_11char_traitsIcEENS_9allocatorIcEEEENS_12__value_typeIS7_5TableEENS_4lessIS7_EELb1EEELi1ELb1EE5__getB7v160006Ev, symObjAddr: 0x17BC8, symBinAddr: 0x1000206F8, symSize: 0x14 }
  - { offsetInCU: 0x3E5F2, offset: 0x5579A, size: 0x8, addend: 0x0, symName: __ZNKSt3__14lessINS_12basic_stringIcNS_11char_traitsIcEENS_9allocatorIcEEEEEclB7v160006ERKS6_S9_, symObjAddr: 0x17BDC, symBinAddr: 0x10002070C, symSize: 0x34 }
  - { offsetInCU: 0x3E636, offset: 0x557DE, size: 0x8, addend: 0x0, symName: __ZNKSt3__112__value_typeINS_12basic_stringIcNS_11char_traitsIcEENS_9allocatorIcEEEE5TableE11__get_valueB7v160006Ev, symObjAddr: 0x17C10, symBinAddr: 0x100020740, symSize: 0x24 }
  - { offsetInCU: 0x3E65C, offset: 0x55804, size: 0x8, addend: 0x0, symName: __ZNKSt3__112basic_stringIcNS_11char_traitsIcEENS_9allocatorIcEEE7compareB7v160006ERKS5_, symObjAddr: 0x17C6C, symBinAddr: 0x10002079C, symSize: 0x4C }
  - { offsetInCU: 0x3E693, offset: 0x5583B, size: 0x8, addend: 0x0, symName: __ZNKSt3__112basic_stringIcNS_11char_traitsIcEENS_9allocatorIcEEE7compareINS_17basic_string_viewIcS2_EEEENS_9enable_ifIXsr33__can_be_converted_to_string_viewIcS2_T_EE5valueEiE4typeERKSA_, symObjAddr: 0x17CB8, symBinAddr: 0x1000207E8, symSize: 0x12C }
  - { offsetInCU: 0x3E710, offset: 0x558B8, size: 0x8, addend: 0x0, symName: __ZNKSt3__112basic_stringIcNS_11char_traitsIcEENS_9allocatorIcEEEcvNS_17basic_string_viewIcS2_EEB7v160006Ev, symObjAddr: 0x17DE4, symBinAddr: 0x100020914, symSize: 0x50 }
  - { offsetInCU: 0x3E736, offset: 0x558DE, size: 0x8, addend: 0x0, symName: __ZNKSt3__117basic_string_viewIcNS_11char_traitsIcEEE4sizeB7v160006Ev, symObjAddr: 0x17E34, symBinAddr: 0x100020964, symSize: 0x18 }
  - { offsetInCU: 0x3E75C, offset: 0x55904, size: 0x8, addend: 0x0, symName: __ZNSt3__111char_traitsIcE7compareEPKcS3_m, symObjAddr: 0x17E4C, symBinAddr: 0x10002097C, symSize: 0x6C }
  - { offsetInCU: 0x3E79B, offset: 0x55943, size: 0x8, addend: 0x0, symName: __ZNKSt3__117basic_string_viewIcNS_11char_traitsIcEEE4dataB7v160006Ev, symObjAddr: 0x17EB8, symBinAddr: 0x1000209E8, symSize: 0x18 }
  - { offsetInCU: 0x3E7C1, offset: 0x55969, size: 0x8, addend: 0x0, symName: __ZNSt3__117basic_string_viewIcNS_11char_traitsIcEEEC1B7v160006EPKcm, symObjAddr: 0x17F04, symBinAddr: 0x100020A34, symSize: 0x3C }
  - { offsetInCU: 0x3E809, offset: 0x559B1, size: 0x8, addend: 0x0, symName: __ZNSt3__117basic_string_viewIcNS_11char_traitsIcEEEC2B7v160006EPKcm, symObjAddr: 0x17F40, symBinAddr: 0x100020A70, symSize: 0x50 }
  - { offsetInCU: 0x3E851, offset: 0x559F9, size: 0x8, addend: 0x0, symName: __ZNSt3__16__treeINS_12__value_typeINS_12basic_stringIcNS_11char_traitsIcEENS_9allocatorIcEEEE5TableEENS_19__map_value_compareIS7_S9_NS_4lessIS7_EELb1EEENS5_IS9_EEE12__node_allocB7v160006Ev, symObjAddr: 0x17FC8, symBinAddr: 0x100020AF8, symSize: 0x28 }
  - { offsetInCU: 0x3E877, offset: 0x55A1F, size: 0x8, addend: 0x0, symName: __ZNSt3__116allocator_traitsINS_9allocatorINS_11__tree_nodeINS_12__value_typeINS_12basic_stringIcNS_11char_traitsIcEENS1_IcEEEE5TableEEPvEEEEE8allocateB7v160006ERSD_m, symObjAddr: 0x17FF0, symBinAddr: 0x100020B20, symSize: 0x2C }
  - { offsetInCU: 0x3E8AA, offset: 0x55A52, size: 0x8, addend: 0x0, symName: __ZNSt3__122__tree_node_destructorINS_9allocatorINS_11__tree_nodeINS_12__value_typeINS_12basic_stringIcNS_11char_traitsIcEENS1_IcEEEE5TableEEPvEEEEEC1B7v160006ERSD_b, symObjAddr: 0x1801C, symBinAddr: 0x100020B4C, symSize: 0x48 }
  - { offsetInCU: 0x3E8F7, offset: 0x55A9F, size: 0x8, addend: 0x0, symName: __ZNSt3__110unique_ptrINS_11__tree_nodeINS_12__value_typeINS_12basic_stringIcNS_11char_traitsIcEENS_9allocatorIcEEEE5TableEEPvEENS_22__tree_node_destructorINS6_ISC_EEEEEC1B7v160006ILb1EvEEPSC_NS_16__dependent_typeINS_27__unique_ptr_deleter_sfinaeISF_EEXT_EE20__good_rval_ref_typeE, symObjAddr: 0x18064, symBinAddr: 0x100020B94, symSize: 0x3C }
  - { offsetInCU: 0x3E948, offset: 0x55AF0, size: 0x8, addend: 0x0, symName: __ZNSt3__116allocator_traitsINS_9allocatorINS_11__tree_nodeINS_12__value_typeINS_12basic_stringIcNS_11char_traitsIcEENS1_IcEEEE5TableEEPvEEEEE9constructB7v160006INS_4pairIKS8_S9_EEJRKNS_21piecewise_construct_tENS_5tupleIJRSH_EEENSM_IJEEEEvEEvRSD_PT_DpOT0_, symObjAddr: 0x180A0, symBinAddr: 0x100020BD0, symSize: 0x44 }
  - { offsetInCU: 0x3E9C7, offset: 0x55B6F, size: 0x8, addend: 0x0, symName: __ZNSt3__122__tree_key_value_typesINS_12__value_typeINS_12basic_stringIcNS_11char_traitsIcEENS_9allocatorIcEEEE5TableEEE9__get_ptrB7v160006ERS9_, symObjAddr: 0x180E4, symBinAddr: 0x100020C14, symSize: 0x24 }
  - { offsetInCU: 0x3E9EB, offset: 0x55B93, size: 0x8, addend: 0x0, symName: __ZNKSt3__110unique_ptrINS_11__tree_nodeINS_12__value_typeINS_12basic_stringIcNS_11char_traitsIcEENS_9allocatorIcEEEE5TableEEPvEENS_22__tree_node_destructorINS6_ISC_EEEEEptB7v160006Ev, symObjAddr: 0x18108, symBinAddr: 0x100020C38, symSize: 0x28 }
  - { offsetInCU: 0x3EA11, offset: 0x55BB9, size: 0x8, addend: 0x0, symName: __ZNSt3__110unique_ptrINS_11__tree_nodeINS_12__value_typeINS_12basic_stringIcNS_11char_traitsIcEENS_9allocatorIcEEEE5TableEEPvEENS_22__tree_node_destructorINS6_ISC_EEEEE11get_deleterB7v160006Ev, symObjAddr: 0x18130, symBinAddr: 0x100020C60, symSize: 0x24 }
  - { offsetInCU: 0x3EA37, offset: 0x55BDF, size: 0x8, addend: 0x0, symName: __ZNSt3__117__compressed_pairINS_15__tree_end_nodeIPNS_16__tree_node_baseIPvEEEENS_9allocatorINS_11__tree_nodeINS_12__value_typeINS_12basic_stringIcNS_11char_traitsIcEENS7_IcEEEE5TableEES3_EEEEE6secondB7v160006Ev, symObjAddr: 0x18154, symBinAddr: 0x100020C84, symSize: 0x24 }
  - { offsetInCU: 0x3EA5D, offset: 0x55C05, size: 0x8, addend: 0x0, symName: __ZNSt3__122__compressed_pair_elemINS_9allocatorINS_11__tree_nodeINS_12__value_typeINS_12basic_stringIcNS_11char_traitsIcEENS1_IcEEEE5TableEEPvEEEELi1ELb1EE5__getB7v160006Ev, symObjAddr: 0x18178, symBinAddr: 0x100020CA8, symSize: 0x14 }
  - { offsetInCU: 0x3EA83, offset: 0x55C2B, size: 0x8, addend: 0x0, symName: __ZNSt3__19allocatorINS_11__tree_nodeINS_12__value_typeINS_12basic_stringIcNS_11char_traitsIcEENS0_IcEEEE5TableEEPvEEE8allocateB7v160006Em, symObjAddr: 0x1818C, symBinAddr: 0x100020CBC, symSize: 0x58 }
  - { offsetInCU: 0x3EAC1, offset: 0x55C69, size: 0x8, addend: 0x0, symName: __ZNSt3__116allocator_traitsINS_9allocatorINS_11__tree_nodeINS_12__value_typeINS_12basic_stringIcNS_11char_traitsIcEENS1_IcEEEE5TableEEPvEEEEE8max_sizeB7v160006ISD_vEEmRKSD_, symObjAddr: 0x181E4, symBinAddr: 0x100020D14, symSize: 0x24 }
  - { offsetInCU: 0x3EAEF, offset: 0x55C97, size: 0x8, addend: 0x0, symName: __ZNKSt3__19allocatorINS_11__tree_nodeINS_12__value_typeINS_12basic_stringIcNS_11char_traitsIcEENS0_IcEEEE5TableEEPvEEE8max_sizeB7v160006Ev, symObjAddr: 0x18208, symBinAddr: 0x100020D38, symSize: 0x14 }
  - { offsetInCU: 0x3EB15, offset: 0x55CBD, size: 0x8, addend: 0x0, symName: __ZNSt3__122__tree_node_destructorINS_9allocatorINS_11__tree_nodeINS_12__value_typeINS_12basic_stringIcNS_11char_traitsIcEENS1_IcEEEE5TableEEPvEEEEEC2B7v160006ERSD_b, symObjAddr: 0x1821C, symBinAddr: 0x100020D4C, symSize: 0x38 }
  - { offsetInCU: 0x3EB5D, offset: 0x55D05, size: 0x8, addend: 0x0, symName: __ZNSt3__110unique_ptrINS_11__tree_nodeINS_12__value_typeINS_12basic_stringIcNS_11char_traitsIcEENS_9allocatorIcEEEE5TableEEPvEENS_22__tree_node_destructorINS6_ISC_EEEEEC2B7v160006ILb1EvEEPSC_NS_16__dependent_typeINS_27__unique_ptr_deleter_sfinaeISF_EEXT_EE20__good_rval_ref_typeE, symObjAddr: 0x18254, symBinAddr: 0x100020D84, symSize: 0x48 }
  - { offsetInCU: 0x3EBAE, offset: 0x55D56, size: 0x8, addend: 0x0, symName: __ZNSt3__117__compressed_pairIPNS_11__tree_nodeINS_12__value_typeINS_12basic_stringIcNS_11char_traitsIcEENS_9allocatorIcEEEE5TableEEPvEENS_22__tree_node_destructorINS6_ISC_EEEEEC1B7v160006IRSD_SG_EEOT_OT0_, symObjAddr: 0x1829C, symBinAddr: 0x100020DCC, symSize: 0x3C }
  - { offsetInCU: 0x3EC06, offset: 0x55DAE, size: 0x8, addend: 0x0, symName: __ZNSt3__117__compressed_pairIPNS_11__tree_nodeINS_12__value_typeINS_12basic_stringIcNS_11char_traitsIcEENS_9allocatorIcEEEE5TableEEPvEENS_22__tree_node_destructorINS6_ISC_EEEEEC2B7v160006IRSD_SG_EEOT_OT0_, symObjAddr: 0x182D8, symBinAddr: 0x100020E08, symSize: 0x48 }
  - { offsetInCU: 0x3EC5E, offset: 0x55E06, size: 0x8, addend: 0x0, symName: __ZNSt3__122__compressed_pair_elemIPNS_11__tree_nodeINS_12__value_typeINS_12basic_stringIcNS_11char_traitsIcEENS_9allocatorIcEEEE5TableEEPvEELi0ELb0EEC2B7v160006IRSD_vEEOT_, symObjAddr: 0x18320, symBinAddr: 0x100020E50, symSize: 0x24 }
  - { offsetInCU: 0x3ECA0, offset: 0x55E48, size: 0x8, addend: 0x0, symName: __ZNSt3__122__compressed_pair_elemINS_22__tree_node_destructorINS_9allocatorINS_11__tree_nodeINS_12__value_typeINS_12basic_stringIcNS_11char_traitsIcEENS2_IcEEEE5TableEEPvEEEEEELi1ELb0EEC2B7v160006ISF_vEEOT_, symObjAddr: 0x18344, symBinAddr: 0x100020E74, symSize: 0x24 }
  - { offsetInCU: 0x3ECE2, offset: 0x55E8A, size: 0x8, addend: 0x0, symName: __ZNSt3__19allocatorINS_11__tree_nodeINS_12__value_typeINS_12basic_stringIcNS_11char_traitsIcEENS0_IcEEEE5TableEEPvEEE9constructB7v160006INS_4pairIKS7_S8_EEJRKNS_21piecewise_construct_tENS_5tupleIJRSF_EEENSK_IJEEEEEEvPT_DpOT0_, symObjAddr: 0x18368, symBinAddr: 0x100020E98, symSize: 0x44 }
  - { offsetInCU: 0x3ED5E, offset: 0x55F06, size: 0x8, addend: 0x0, symName: __ZNSt3__14pairIKNS_12basic_stringIcNS_11char_traitsIcEENS_9allocatorIcEEEE5TableEC1B7v160006IJRS7_EJEEENS_21piecewise_construct_tENS_5tupleIJDpT_EEENSD_IJDpT0_EEE, symObjAddr: 0x183AC, symBinAddr: 0x100020EDC, symSize: 0x3C }
  - { offsetInCU: 0x3EDC5, offset: 0x55F6D, size: 0x8, addend: 0x0, symName: __ZNSt3__14pairIKNS_12basic_stringIcNS_11char_traitsIcEENS_9allocatorIcEEEE5TableEC1B7v160006IJRS7_EJEJLm0EEJEEENS_21piecewise_construct_tERNS_5tupleIJDpT_EEERNSD_IJDpT0_EEENS_15__tuple_indicesIJXspT1_EEEENSM_IJXspT2_EEEE, symObjAddr: 0x183E8, symBinAddr: 0x100020F18, symSize: 0x3C }
  - { offsetInCU: 0x3EE52, offset: 0x55FFA, size: 0x8, addend: 0x0, symName: __ZNSt3__14pairIKNS_12basic_stringIcNS_11char_traitsIcEENS_9allocatorIcEEEE5TableEC2B7v160006IJRS7_EJEJLm0EEJEEENS_21piecewise_construct_tERNS_5tupleIJDpT_EEERNSD_IJDpT0_EEENS_15__tuple_indicesIJXspT1_EEEENSM_IJXspT2_EEEE, symObjAddr: 0x18424, symBinAddr: 0x100020F54, symSize: 0x78 }
  - { offsetInCU: 0x3EEDF, offset: 0x56087, size: 0x8, addend: 0x0, symName: __ZN5TableC1Ev, symObjAddr: 0x184C0, symBinAddr: 0x100020FF0, symSize: 0x2C }
  - { offsetInCU: 0x3EF09, offset: 0x560B1, size: 0x8, addend: 0x0, symName: __ZNSt3__112__tuple_leafILm0ERKNS_12basic_stringIcNS_11char_traitsIcEENS_9allocatorIcEEEELb0EE3getB7v160006Ev, symObjAddr: 0x184EC, symBinAddr: 0x10002101C, symSize: 0x18 }
  - { offsetInCU: 0x3EF2F, offset: 0x560D7, size: 0x8, addend: 0x0, symName: __ZN5TableC2Ev, symObjAddr: 0x18504, symBinAddr: 0x100021034, symSize: 0x44 }
  - { offsetInCU: 0x3EF59, offset: 0x56101, size: 0x8, addend: 0x0, symName: __ZNKSt3__117__compressed_pairIPNS_11__tree_nodeINS_12__value_typeINS_12basic_stringIcNS_11char_traitsIcEENS_9allocatorIcEEEE5TableEEPvEENS_22__tree_node_destructorINS6_ISC_EEEEE5firstB7v160006Ev, symObjAddr: 0x18548, symBinAddr: 0x100021078, symSize: 0x24 }
  - { offsetInCU: 0x3EF7F, offset: 0x56127, size: 0x8, addend: 0x0, symName: __ZNKSt3__122__compressed_pair_elemIPNS_11__tree_nodeINS_12__value_typeINS_12basic_stringIcNS_11char_traitsIcEENS_9allocatorIcEEEE5TableEEPvEELi0ELb0EE5__getB7v160006Ev, symObjAddr: 0x1856C, symBinAddr: 0x10002109C, symSize: 0x14 }
  - { offsetInCU: 0x3EFA5, offset: 0x5614D, size: 0x8, addend: 0x0, symName: __ZNSt3__117__compressed_pairIPNS_11__tree_nodeINS_12__value_typeINS_12basic_stringIcNS_11char_traitsIcEENS_9allocatorIcEEEE5TableEEPvEENS_22__tree_node_destructorINS6_ISC_EEEEE6secondB7v160006Ev, symObjAddr: 0x18580, symBinAddr: 0x1000210B0, symSize: 0x28 }
  - { offsetInCU: 0x3EFCB, offset: 0x56173, size: 0x8, addend: 0x0, symName: __ZNSt3__122__compressed_pair_elemINS_22__tree_node_destructorINS_9allocatorINS_11__tree_nodeINS_12__value_typeINS_12basic_stringIcNS_11char_traitsIcEENS2_IcEEEE5TableEEPvEEEEEELi1ELb0EE5__getB7v160006Ev, symObjAddr: 0x185A8, symBinAddr: 0x1000210D8, symSize: 0x14 }
  - { offsetInCU: 0x3EFF1, offset: 0x56199, size: 0x8, addend: 0x0, symName: __ZNSt3__16__treeINS_12__value_typeINS_12basic_stringIcNS_11char_traitsIcEENS_9allocatorIcEEEE5TableEENS_19__map_value_compareIS7_S9_NS_4lessIS7_EELb1EEENS5_IS9_EEE4sizeB7v160006Ev, symObjAddr: 0x188E8, symBinAddr: 0x100021418, symSize: 0x28 }
  - { offsetInCU: 0x3F017, offset: 0x561BF, size: 0x8, addend: 0x0, symName: __ZNKSt3__116__tree_node_baseIPvE15__parent_unsafeB7v160006Ev, symObjAddr: 0x18910, symBinAddr: 0x100021440, symSize: 0x18 }
  - { offsetInCU: 0x3F03D, offset: 0x561E5, size: 0x8, addend: 0x0, symName: __ZNSt3__116__tree_node_baseIPvE12__set_parentB7v160006EPS2_, symObjAddr: 0x18AF8, symBinAddr: 0x100021628, symSize: 0x20 }
  - { offsetInCU: 0x3F072, offset: 0x5621A, size: 0x8, addend: 0x0, symName: __ZNSt3__117__compressed_pairImNS_19__map_value_compareINS_12basic_stringIcNS_11char_traitsIcEENS_9allocatorIcEEEENS_12__value_typeIS7_5TableEENS_4lessIS7_EELb1EEEE5firstB7v160006Ev, symObjAddr: 0x18B18, symBinAddr: 0x100021648, symSize: 0x24 }
  - { offsetInCU: 0x3F098, offset: 0x56240, size: 0x8, addend: 0x0, symName: __ZNSt3__122__compressed_pair_elemImLi0ELb0EE5__getB7v160006Ev, symObjAddr: 0x18B3C, symBinAddr: 0x10002166C, symSize: 0x14 }
  - { offsetInCU: 0x3F0BE, offset: 0x56266, size: 0x8, addend: 0x0, symName: __ZNSt3__117__compressed_pairIPNS_11__tree_nodeINS_12__value_typeINS_12basic_stringIcNS_11char_traitsIcEENS_9allocatorIcEEEE5TableEEPvEENS_22__tree_node_destructorINS6_ISC_EEEEE5firstB7v160006Ev, symObjAddr: 0x18B50, symBinAddr: 0x100021680, symSize: 0x24 }
  - { offsetInCU: 0x3F0E4, offset: 0x5628C, size: 0x8, addend: 0x0, symName: __ZNSt3__122__compressed_pair_elemIPNS_11__tree_nodeINS_12__value_typeINS_12basic_stringIcNS_11char_traitsIcEENS_9allocatorIcEEEE5TableEEPvEELi0ELb0EE5__getB7v160006Ev, symObjAddr: 0x18B74, symBinAddr: 0x1000216A4, symSize: 0x14 }
  - { offsetInCU: 0x3F10A, offset: 0x562B2, size: 0x8, addend: 0x0, symName: __ZNSt3__110unique_ptrINS_11__tree_nodeINS_12__value_typeINS_12basic_stringIcNS_11char_traitsIcEENS_9allocatorIcEEEE5TableEEPvEENS_22__tree_node_destructorINS6_ISC_EEEEED2B7v160006Ev, symObjAddr: 0x18B88, symBinAddr: 0x1000216B8, symSize: 0x30 }
  - { offsetInCU: 0x3F134, offset: 0x562DC, size: 0x8, addend: 0x0, symName: __ZNSt3__110unique_ptrINS_11__tree_nodeINS_12__value_typeINS_12basic_stringIcNS_11char_traitsIcEENS_9allocatorIcEEEE5TableEEPvEENS_22__tree_node_destructorINS6_ISC_EEEEE5resetB7v160006EPSC_, symObjAddr: 0x18BB8, symBinAddr: 0x1000216E8, symSize: 0x78 }
  - { offsetInCU: 0x3F178, offset: 0x56320, size: 0x8, addend: 0x0, symName: __ZNSt3__122__tree_node_destructorINS_9allocatorINS_11__tree_nodeINS_12__value_typeINS_12basic_stringIcNS_11char_traitsIcEENS1_IcEEEE5TableEEPvEEEEEclB7v160006EPSC_, symObjAddr: 0x18C30, symBinAddr: 0x100021760, symSize: 0x98 }
  - { offsetInCU: 0x3F1AD, offset: 0x56355, size: 0x8, addend: 0x0, symName: __ZNSt3__116allocator_traitsINS_9allocatorINS_11__tree_nodeINS_12__value_typeINS_12basic_stringIcNS_11char_traitsIcEENS1_IcEEEE5TableEEPvEEEEE7destroyB7v160006INS_4pairIKS8_S9_EEvvEEvRSD_PT_, symObjAddr: 0x18CC8, symBinAddr: 0x1000217F8, symSize: 0x28 }
  - { offsetInCU: 0x3F1E7, offset: 0x5638F, size: 0x8, addend: 0x0, symName: __ZNSt3__116allocator_traitsINS_9allocatorINS_11__tree_nodeINS_12__value_typeINS_12basic_stringIcNS_11char_traitsIcEENS1_IcEEEE5TableEEPvEEEEE10deallocateB7v160006ERSD_PSC_m, symObjAddr: 0x18CF0, symBinAddr: 0x100021820, symSize: 0x34 }
  - { offsetInCU: 0x3F229, offset: 0x563D1, size: 0x8, addend: 0x0, symName: __ZNSt3__14pairIKNS_12basic_stringIcNS_11char_traitsIcEENS_9allocatorIcEEEE5TableED1Ev, symObjAddr: 0x18D24, symBinAddr: 0x100021854, symSize: 0x2C }
  - { offsetInCU: 0x3F255, offset: 0x563FD, size: 0x8, addend: 0x0, symName: __ZNSt3__14pairIKNS_12basic_stringIcNS_11char_traitsIcEENS_9allocatorIcEEEE5TableED2Ev, symObjAddr: 0x18D50, symBinAddr: 0x100021880, symSize: 0x38 }
  - { offsetInCU: 0x3F281, offset: 0x56429, size: 0x8, addend: 0x0, symName: __ZNSt3__19allocatorINS_11__tree_nodeINS_12__value_typeINS_12basic_stringIcNS_11char_traitsIcEENS0_IcEEEE5TableEEPvEEE10deallocateB7v160006EPSB_m, symObjAddr: 0x18D88, symBinAddr: 0x1000218B8, symSize: 0x40 }
  - { offsetInCU: 0x3F2C3, offset: 0x5646B, size: 0x8, addend: 0x0, symName: __ZNSt3__115__tree_iteratorINS_12__value_typeINS_12basic_stringIcNS_11char_traitsIcEENS_9allocatorIcEEEE5TableEEPNS_11__tree_nodeIS9_PvEElEC2B7v160006ESD_, symObjAddr: 0x18DC8, symBinAddr: 0x1000218F8, symSize: 0x20 }
  - { offsetInCU: 0x3F2FC, offset: 0x564A4, size: 0x8, addend: 0x0, symName: __ZNSt3__14pairINS_15__tree_iteratorINS_12__value_typeINS_12basic_stringIcNS_11char_traitsIcEENS_9allocatorIcEEEE5TableEEPNS_11__tree_nodeISA_PvEElEEbEC2B7v160006ISF_RbLSC_0EEEOT_OT0_, symObjAddr: 0x18DE8, symBinAddr: 0x100021918, symSize: 0x38 }
  - { offsetInCU: 0x3F35A, offset: 0x56502, size: 0x8, addend: 0x0, symName: __ZNSt3__15tupleIJRKNS_12basic_stringIcNS_11char_traitsIcEENS_9allocatorIcEEEEEEC1B7v160006INS_4_AndELi0EEES8_, symObjAddr: 0x18E20, symBinAddr: 0x100021950, symSize: 0x34 }
  - { offsetInCU: 0x3F3A3, offset: 0x5654B, size: 0x8, addend: 0x0, symName: __ZNSt3__15tupleIJRKNS_12basic_stringIcNS_11char_traitsIcEENS_9allocatorIcEEEEEEC2B7v160006INS_4_AndELi0EEES8_, symObjAddr: 0x18E54, symBinAddr: 0x100021984, symSize: 0x34 }
  - { offsetInCU: 0x3F3EC, offset: 0x56594, size: 0x8, addend: 0x0, symName: __ZNSt3__112__tuple_implINS_15__tuple_indicesIJLm0EEEEJRKNS_12basic_stringIcNS_11char_traitsIcEENS_9allocatorIcEEEEEEC1B7v160006IJLm0EEJSA_EJEJEJSA_EEENS1_IJXspT_EEEENS_13__tuple_typesIJDpT0_EEENS1_IJXspT1_EEEENSE_IJDpT2_EEEDpOT3_, symObjAddr: 0x18E88, symBinAddr: 0x1000219B8, symSize: 0x34 }
  - { offsetInCU: 0x3F47D, offset: 0x56625, size: 0x8, addend: 0x0, symName: __ZNSt3__112__tuple_implINS_15__tuple_indicesIJLm0EEEEJRKNS_12basic_stringIcNS_11char_traitsIcEENS_9allocatorIcEEEEEEC2B7v160006IJLm0EEJSA_EJEJEJSA_EEENS1_IJXspT_EEEENS_13__tuple_typesIJDpT0_EEENS1_IJXspT1_EEEENSE_IJDpT2_EEEDpOT3_, symObjAddr: 0x18EBC, symBinAddr: 0x1000219EC, symSize: 0x34 }
  - { offsetInCU: 0x3F50E, offset: 0x566B6, size: 0x8, addend: 0x0, symName: __ZNSt3__112__tuple_leafILm0ERKNS_12basic_stringIcNS_11char_traitsIcEENS_9allocatorIcEEEELb0EEC2B7v160006IS8_vEEOT_, symObjAddr: 0x18EF0, symBinAddr: 0x100021A20, symSize: 0x20 }
  - { offsetInCU: 0x3F551, offset: 0x566F9, size: 0x8, addend: 0x0, symName: __ZNSt3__114pointer_traitsIPNS_12__value_typeINS_12basic_stringIcNS_11char_traitsIcEENS_9allocatorIcEEEE5TableEEE10pointer_toB7v160006ERS9_, symObjAddr: 0x18F10, symBinAddr: 0x100021A40, symSize: 0x14 }
  - { offsetInCU: 0x3F574, offset: 0x5671C, size: 0x8, addend: 0x0, symName: __ZNKSt3__115__tree_iteratorINS_12__value_typeINS_12basic_stringIcNS_11char_traitsIcEENS_9allocatorIcEEEE5TableEEPNS_11__tree_nodeIS9_PvEElE8__get_npB7v160006Ev, symObjAddr: 0x18F24, symBinAddr: 0x100021A54, symSize: 0x18 }
  - { offsetInCU: 0x3F59A, offset: 0x56742, size: 0x8, addend: 0x0, symName: __ZNSt3__16vectorI3RowNS_9allocatorIS1_EEEaSB7v160006EOS4_, symObjAddr: 0x18F74, symBinAddr: 0x100021AA4, symSize: 0x34 }
  - { offsetInCU: 0x3F5D1, offset: 0x56779, size: 0x8, addend: 0x0, symName: __ZNSt3__16vectorI3RowNS_9allocatorIS1_EEE13__move_assignERS4_NS_17integral_constantIbLb1EEE, symObjAddr: 0x18FA8, symBinAddr: 0x100021AD8, symSize: 0xAC }
  - { offsetInCU: 0x3F613, offset: 0x567BB, size: 0x8, addend: 0x0, symName: __ZNSt3__16vectorI3RowNS_9allocatorIS1_EEE13__vdeallocateEv, symObjAddr: 0x19054, symBinAddr: 0x100021B84, symSize: 0x8C }
  - { offsetInCU: 0x3F63B, offset: 0x567E3, size: 0x8, addend: 0x0, symName: __ZNSt3__16vectorI3RowNS_9allocatorIS1_EEE19__move_assign_allocB7v160006ERS4_, symObjAddr: 0x190E0, symBinAddr: 0x100021C10, symSize: 0x2C }
  - { offsetInCU: 0x3F670, offset: 0x56818, size: 0x8, addend: 0x0, symName: __ZNSt3__16vectorI3RowNS_9allocatorIS1_EEE9__end_capB7v160006Ev, symObjAddr: 0x1910C, symBinAddr: 0x100021C3C, symSize: 0x28 }
  - { offsetInCU: 0x3F696, offset: 0x5683E, size: 0x8, addend: 0x0, symName: __ZNSt3__16vectorI3RowNS_9allocatorIS1_EEE5clearB7v160006Ev, symObjAddr: 0x19148, symBinAddr: 0x100021C78, symSize: 0x54 }
  - { offsetInCU: 0x3F6CB, offset: 0x56873, size: 0x8, addend: 0x0, symName: __ZNKSt3__16vectorI3RowNS_9allocatorIS1_EEE17__annotate_shrinkB7v160006Em, symObjAddr: 0x1919C, symBinAddr: 0x100021CCC, symSize: 0xD0 }
  - { offsetInCU: 0x3F700, offset: 0x568A8, size: 0x8, addend: 0x0, symName: __ZNSt3__16vectorI3RowNS_9allocatorIS1_EEE19__move_assign_allocB7v160006ERS4_NS_17integral_constantIbLb1EEE, symObjAddr: 0x1927C, symBinAddr: 0x100021DAC, symSize: 0x38 }
  - { offsetInCU: 0x3F740, offset: 0x568E8, size: 0x8, addend: 0x0, symName: __ZNSt3__117__compressed_pairIP3RowNS_9allocatorIS1_EEE5firstB7v160006Ev, symObjAddr: 0x192B4, symBinAddr: 0x100021DE4, symSize: 0x24 }
  - { offsetInCU: 0x3F766, offset: 0x5690E, size: 0x8, addend: 0x0, symName: __ZNSt3__122__compressed_pair_elemIP3RowLi0ELb0EE5__getB7v160006Ev, symObjAddr: 0x192D8, symBinAddr: 0x100021E08, symSize: 0x14 }
  - { offsetInCU: 0x3F78C, offset: 0x56934, size: 0x8, addend: 0x0, symName: __ZN5TableD2Ev, symObjAddr: 0x192EC, symBinAddr: 0x100021E1C, symSize: 0x44 }
  - { offsetInCU: 0x3F7B8, offset: 0x56960, size: 0x8, addend: 0x0, symName: __ZN3RowC1Ev, symObjAddr: 0x19330, symBinAddr: 0x100021E60, symSize: 0x2C }
  - { offsetInCU: 0x3F7E4, offset: 0x5698C, size: 0x8, addend: 0x0, symName: __ZNSt3__16vectorI3RowNS_9allocatorIS1_EEE9push_backB7v160006ERKS1_, symObjAddr: 0x1935C, symBinAddr: 0x100021E8C, symSize: 0x6C }
  - { offsetInCU: 0x3F81B, offset: 0x569C3, size: 0x8, addend: 0x0, symName: __ZN3RowC2Ev, symObjAddr: 0x193C8, symBinAddr: 0x100021EF8, symSize: 0x2C }
  - { offsetInCU: 0x3F847, offset: 0x569EF, size: 0x8, addend: 0x0, symName: __ZNSt3__16vectorI3RowNS_9allocatorIS1_EEE22__construct_one_at_endB7v160006IJRKS1_EEEvDpOT_, symObjAddr: 0x193F4, symBinAddr: 0x100021F24, symSize: 0x90 }
  - { offsetInCU: 0x3F896, offset: 0x56A3E, size: 0x8, addend: 0x0, symName: __ZNSt3__16vectorI3RowNS_9allocatorIS1_EEE21__push_back_slow_pathIRKS1_EEvOT_, symObjAddr: 0x19484, symBinAddr: 0x100021FB4, symSize: 0xD8 }
  - { offsetInCU: 0x3F90D, offset: 0x56AB5, size: 0x8, addend: 0x0, symName: __ZNSt3__16vectorI3RowNS_9allocatorIS1_EEE21_ConstructTransactionC1B7v160006ERS4_m, symObjAddr: 0x1955C, symBinAddr: 0x10002208C, symSize: 0x3C }
  - { offsetInCU: 0x3F955, offset: 0x56AFD, size: 0x8, addend: 0x0, symName: __ZNSt3__116allocator_traitsINS_9allocatorI3RowEEE9constructB7v160006IS2_JRKS2_EvEEvRS3_PT_DpOT0_, symObjAddr: 0x19598, symBinAddr: 0x1000220C8, symSize: 0x34 }
  - { offsetInCU: 0x3F9AC, offset: 0x56B54, size: 0x8, addend: 0x0, symName: __ZNSt3__16vectorI3RowNS_9allocatorIS1_EEE21_ConstructTransactionD1B7v160006Ev, symObjAddr: 0x195CC, symBinAddr: 0x1000220FC, symSize: 0x2C }
  - { offsetInCU: 0x3F9D6, offset: 0x56B7E, size: 0x8, addend: 0x0, symName: __ZNSt3__16vectorI3RowNS_9allocatorIS1_EEE21_ConstructTransactionC2B7v160006ERS4_m, symObjAddr: 0x195F8, symBinAddr: 0x100022128, symSize: 0x4C }
  - { offsetInCU: 0x3FA1E, offset: 0x56BC6, size: 0x8, addend: 0x0, symName: __ZNSt3__19allocatorI3RowE9constructB7v160006IS1_JRKS1_EEEvPT_DpOT0_, symObjAddr: 0x19644, symBinAddr: 0x100022174, symSize: 0x30 }
  - { offsetInCU: 0x3FA74, offset: 0x56C1C, size: 0x8, addend: 0x0, symName: __ZN3RowC1ERKS_, symObjAddr: 0x19674, symBinAddr: 0x1000221A4, symSize: 0x34 }
  - { offsetInCU: 0x3FAA9, offset: 0x56C51, size: 0x8, addend: 0x0, symName: __ZN3RowC2ERKS_, symObjAddr: 0x196A8, symBinAddr: 0x1000221D8, symSize: 0x34 }
  - { offsetInCU: 0x3FADE, offset: 0x56C86, size: 0x8, addend: 0x0, symName: __ZNSt3__16vectorINS_12basic_stringIcNS_11char_traitsIcEENS_9allocatorIcEEEENS4_IS6_EEEC2ERKS8_, symObjAddr: 0x196DC, symBinAddr: 0x10002220C, symSize: 0x110 }
  - { offsetInCU: 0x3FB3D, offset: 0x56CE5, size: 0x8, addend: 0x0, symName: __ZNSt3__116allocator_traitsINS_9allocatorINS_12basic_stringIcNS_11char_traitsIcEENS1_IcEEEEEEE37select_on_container_copy_constructionB7v160006IS7_vvEES7_RKS7_, symObjAddr: 0x197EC, symBinAddr: 0x10002231C, symSize: 0x10 }
  - { offsetInCU: 0x3FB71, offset: 0x56D19, size: 0x8, addend: 0x0, symName: __ZNSt3__117__compressed_pairIPNS_12basic_stringIcNS_11char_traitsIcEENS_9allocatorIcEEEENS4_IS6_EEEC1B7v160006IDnS8_EEOT_OT0_, symObjAddr: 0x197FC, symBinAddr: 0x10002232C, symSize: 0x3C }
  - { offsetInCU: 0x3FBC9, offset: 0x56D71, size: 0x8, addend: 0x0, symName: __ZNSt3__16vectorINS_12basic_stringIcNS_11char_traitsIcEENS_9allocatorIcEEEENS4_IS6_EEE11__vallocateB7v160006Em, symObjAddr: 0x19878, symBinAddr: 0x1000223A8, symSize: 0xB4 }
  - { offsetInCU: 0x3FC0D, offset: 0x56DB5, size: 0x8, addend: 0x0, symName: __ZNSt3__16vectorINS_12basic_stringIcNS_11char_traitsIcEENS_9allocatorIcEEEENS4_IS6_EEE18__construct_at_endIPS6_Li0EEEvT_SB_m, symObjAddr: 0x1992C, symBinAddr: 0x10002245C, symSize: 0x8C }
  - { offsetInCU: 0x3FC80, offset: 0x56E28, size: 0x8, addend: 0x0, symName: __ZNSt3__128__exception_guard_exceptionsINS_6vectorINS_12basic_stringIcNS_11char_traitsIcEENS_9allocatorIcEEEENS5_IS7_EEE16__destroy_vectorEE10__completeB7v160006Ev, symObjAddr: 0x199B8, symBinAddr: 0x1000224E8, symSize: 0x1C }
  - { offsetInCU: 0x3FCA6, offset: 0x56E4E, size: 0x8, addend: 0x0, symName: __ZNSt3__128__exception_guard_exceptionsINS_6vectorINS_12basic_stringIcNS_11char_traitsIcEENS_9allocatorIcEEEENS5_IS7_EEE16__destroy_vectorEED1B7v160006Ev, symObjAddr: 0x199D4, symBinAddr: 0x100022504, symSize: 0x2C }
  - { offsetInCU: 0x3FCD0, offset: 0x56E78, size: 0x8, addend: 0x0, symName: __ZNSt3__117__compressed_pairIPNS_12basic_stringIcNS_11char_traitsIcEENS_9allocatorIcEEEENS4_IS6_EEEC2B7v160006IDnS8_EEOT_OT0_, symObjAddr: 0x19A00, symBinAddr: 0x100022530, symSize: 0x44 }
  - { offsetInCU: 0x3FD28, offset: 0x56ED0, size: 0x8, addend: 0x0, symName: __ZNSt3__122__compressed_pair_elemINS_9allocatorINS_12basic_stringIcNS_11char_traitsIcEENS1_IcEEEEEELi1ELb1EEC2B7v160006IS7_vEEOT_, symObjAddr: 0x19A44, symBinAddr: 0x100022574, symSize: 0x18 }
  - { offsetInCU: 0x3FD6A, offset: 0x56F12, size: 0x8, addend: 0x0, symName: __ZNSt3__128__exception_guard_exceptionsINS_6vectorINS_12basic_stringIcNS_11char_traitsIcEENS_9allocatorIcEEEENS5_IS7_EEE16__destroy_vectorEEC1B7v160006ESA_, symObjAddr: 0x19A5C, symBinAddr: 0x10002258C, symSize: 0x34 }
  - { offsetInCU: 0x3FDA2, offset: 0x56F4A, size: 0x8, addend: 0x0, symName: __ZNSt3__128__exception_guard_exceptionsINS_6vectorINS_12basic_stringIcNS_11char_traitsIcEENS_9allocatorIcEEEENS5_IS7_EEE16__destroy_vectorEEC2B7v160006ESA_, symObjAddr: 0x19A90, symBinAddr: 0x1000225C0, symSize: 0x24 }
  - { offsetInCU: 0x3FDDA, offset: 0x56F82, size: 0x8, addend: 0x0, symName: __ZNSt3__129_AllocatorDestroyRangeReverseINS_9allocatorINS_12basic_stringIcNS_11char_traitsIcEENS1_IcEEEEEEPS6_EC1B7v160006ERS7_RS8_SB_, symObjAddr: 0x19BF4, symBinAddr: 0x100022724, symSize: 0x44 }
  - { offsetInCU: 0x3FE31, offset: 0x56FD9, size: 0x8, addend: 0x0, symName: __ZNSt3__116allocator_traitsINS_9allocatorINS_12basic_stringIcNS_11char_traitsIcEENS1_IcEEEEEEE9constructB7v160006IS6_JRS6_EvEEvRS7_PT_DpOT0_, symObjAddr: 0x19C38, symBinAddr: 0x100022768, symSize: 0x34 }
  - { offsetInCU: 0x3FE88, offset: 0x57030, size: 0x8, addend: 0x0, symName: __ZNSt3__128__exception_guard_exceptionsINS_29_AllocatorDestroyRangeReverseINS_9allocatorINS_12basic_stringIcNS_11char_traitsIcEENS2_IcEEEEEEPS7_EEE10__completeB7v160006Ev, symObjAddr: 0x19C6C, symBinAddr: 0x10002279C, symSize: 0x1C }
  - { offsetInCU: 0x3FEAE, offset: 0x57056, size: 0x8, addend: 0x0, symName: __ZNSt3__128__exception_guard_exceptionsINS_29_AllocatorDestroyRangeReverseINS_9allocatorINS_12basic_stringIcNS_11char_traitsIcEENS2_IcEEEEEEPS7_EEED1B7v160006Ev, symObjAddr: 0x19C88, symBinAddr: 0x1000227B8, symSize: 0x2C }
  - { offsetInCU: 0x3FED8, offset: 0x57080, size: 0x8, addend: 0x0, symName: __ZNSt3__128__exception_guard_exceptionsINS_29_AllocatorDestroyRangeReverseINS_9allocatorINS_12basic_stringIcNS_11char_traitsIcEENS2_IcEEEEEEPS7_EEEC1B7v160006ESA_, symObjAddr: 0x19CB4, symBinAddr: 0x1000227E4, symSize: 0x34 }
  - { offsetInCU: 0x3FF11, offset: 0x570B9, size: 0x8, addend: 0x0, symName: __ZNSt3__128__exception_guard_exceptionsINS_29_AllocatorDestroyRangeReverseINS_9allocatorINS_12basic_stringIcNS_11char_traitsIcEENS2_IcEEEEEEPS7_EEEC2B7v160006ESA_, symObjAddr: 0x19CE8, symBinAddr: 0x100022818, symSize: 0x30 }
  - { offsetInCU: 0x3FF4A, offset: 0x570F2, size: 0x8, addend: 0x0, symName: __ZNSt3__129_AllocatorDestroyRangeReverseINS_9allocatorINS_12basic_stringIcNS_11char_traitsIcEENS1_IcEEEEEEPS6_EC2B7v160006ERS7_RS8_SB_, symObjAddr: 0x19D18, symBinAddr: 0x100022848, symSize: 0x38 }
  - { offsetInCU: 0x3FFA1, offset: 0x57149, size: 0x8, addend: 0x0, symName: __ZNSt3__19allocatorINS_12basic_stringIcNS_11char_traitsIcEENS0_IcEEEEE9constructB7v160006IS5_JRS5_EEEvPT_DpOT0_, symObjAddr: 0x19D50, symBinAddr: 0x100022880, symSize: 0x30 }
  - { offsetInCU: 0x3FFF7, offset: 0x5719F, size: 0x8, addend: 0x0, symName: __ZNSt3__128__exception_guard_exceptionsINS_29_AllocatorDestroyRangeReverseINS_9allocatorINS_12basic_stringIcNS_11char_traitsIcEENS2_IcEEEEEEPS7_EEED2B7v160006Ev, symObjAddr: 0x19D80, symBinAddr: 0x1000228B0, symSize: 0x50 }
  - { offsetInCU: 0x40021, offset: 0x571C9, size: 0x8, addend: 0x0, symName: __ZNKSt3__129_AllocatorDestroyRangeReverseINS_9allocatorINS_12basic_stringIcNS_11char_traitsIcEENS1_IcEEEEEEPS6_EclB7v160006Ev, symObjAddr: 0x19DD0, symBinAddr: 0x100022900, symSize: 0x68 }
  - { offsetInCU: 0x40047, offset: 0x571EF, size: 0x8, addend: 0x0, symName: __ZNSt3__128__exception_guard_exceptionsINS_6vectorINS_12basic_stringIcNS_11char_traitsIcEENS_9allocatorIcEEEENS5_IS7_EEE16__destroy_vectorEED2B7v160006Ev, symObjAddr: 0x19EA8, symBinAddr: 0x1000229D8, symSize: 0x50 }
  - { offsetInCU: 0x40071, offset: 0x57219, size: 0x8, addend: 0x0, symName: __ZNSt3__16vectorI3RowNS_9allocatorIS1_EEE21_ConstructTransactionD2B7v160006Ev, symObjAddr: 0x19EF8, symBinAddr: 0x100022A28, symSize: 0x20 }
  - { offsetInCU: 0x4009B, offset: 0x57243, size: 0x8, addend: 0x0, symName: __ZNKSt3__16vectorI3RowNS_9allocatorIS1_EEE11__recommendB7v160006Em, symObjAddr: 0x19F18, symBinAddr: 0x100022A48, symSize: 0xB4 }
  - { offsetInCU: 0x400F0, offset: 0x57298, size: 0x8, addend: 0x0, symName: __ZNSt3__114__split_bufferI3RowRNS_9allocatorIS1_EEEC1EmmS4_, symObjAddr: 0x19FCC, symBinAddr: 0x100022AFC, symSize: 0x44 }
  - { offsetInCU: 0x40146, offset: 0x572EE, size: 0x8, addend: 0x0, symName: __ZNSt3__114__split_bufferI3RowRNS_9allocatorIS1_EEED1Ev, symObjAddr: 0x1A128, symBinAddr: 0x100022C58, symSize: 0x2C }
  - { offsetInCU: 0x40172, offset: 0x5731A, size: 0x8, addend: 0x0, symName: __ZNKSt3__16vectorI3RowNS_9allocatorIS1_EEE8max_sizeEv, symObjAddr: 0x1A154, symBinAddr: 0x100022C84, symSize: 0x60 }
  - { offsetInCU: 0x4019A, offset: 0x57342, size: 0x8, addend: 0x0, symName: __ZNKSt3__16vectorI3RowNS_9allocatorIS1_EEE20__throw_length_errorB7v160006Ev, symObjAddr: 0x1A1B4, symBinAddr: 0x100022CE4, symSize: 0x1C }
  - { offsetInCU: 0x401CA, offset: 0x57372, size: 0x8, addend: 0x0, symName: __ZNSt3__116allocator_traitsINS_9allocatorI3RowEEE8max_sizeB7v160006IS3_vEEmRKS3_, symObjAddr: 0x1A1D0, symBinAddr: 0x100022D00, symSize: 0x24 }
  - { offsetInCU: 0x401F8, offset: 0x573A0, size: 0x8, addend: 0x0, symName: __ZNKSt3__16vectorI3RowNS_9allocatorIS1_EEE7__allocB7v160006Ev, symObjAddr: 0x1A1F4, symBinAddr: 0x100022D24, symSize: 0x28 }
  - { offsetInCU: 0x4021E, offset: 0x573C6, size: 0x8, addend: 0x0, symName: __ZNKSt3__19allocatorI3RowE8max_sizeB7v160006Ev, symObjAddr: 0x1A21C, symBinAddr: 0x100022D4C, symSize: 0x18 }
  - { offsetInCU: 0x40244, offset: 0x573EC, size: 0x8, addend: 0x0, symName: __ZNKSt3__117__compressed_pairIP3RowNS_9allocatorIS1_EEE6secondB7v160006Ev, symObjAddr: 0x1A234, symBinAddr: 0x100022D64, symSize: 0x24 }
  - { offsetInCU: 0x4026A, offset: 0x57412, size: 0x8, addend: 0x0, symName: __ZNKSt3__122__compressed_pair_elemINS_9allocatorI3RowEELi1ELb1EE5__getB7v160006Ev, symObjAddr: 0x1A258, symBinAddr: 0x100022D88, symSize: 0x14 }
  - { offsetInCU: 0x40290, offset: 0x57438, size: 0x8, addend: 0x0, symName: __ZNSt3__114__split_bufferI3RowRNS_9allocatorIS1_EEEC2EmmS4_, symObjAddr: 0x1A26C, symBinAddr: 0x100022D9C, symSize: 0xE0 }
  - { offsetInCU: 0x40303, offset: 0x574AB, size: 0x8, addend: 0x0, symName: __ZNSt3__117__compressed_pairIP3RowRNS_9allocatorIS1_EEEC1B7v160006IDnS5_EEOT_OT0_, symObjAddr: 0x1A34C, symBinAddr: 0x100022E7C, symSize: 0x3C }
  - { offsetInCU: 0x4035B, offset: 0x57503, size: 0x8, addend: 0x0, symName: __ZNSt3__114__split_bufferI3RowRNS_9allocatorIS1_EEE7__allocB7v160006Ev, symObjAddr: 0x1A3C8, symBinAddr: 0x100022EF8, symSize: 0x28 }
  - { offsetInCU: 0x40381, offset: 0x57529, size: 0x8, addend: 0x0, symName: __ZNSt3__114__split_bufferI3RowRNS_9allocatorIS1_EEE9__end_capB7v160006Ev, symObjAddr: 0x1A3F0, symBinAddr: 0x100022F20, symSize: 0x28 }
  - { offsetInCU: 0x403A7, offset: 0x5754F, size: 0x8, addend: 0x0, symName: __ZNSt3__117__compressed_pairIP3RowRNS_9allocatorIS1_EEEC2B7v160006IDnS5_EEOT_OT0_, symObjAddr: 0x1A418, symBinAddr: 0x100022F48, symSize: 0x48 }
  - { offsetInCU: 0x403FF, offset: 0x575A7, size: 0x8, addend: 0x0, symName: __ZNSt3__122__compressed_pair_elemIRNS_9allocatorI3RowEELi1ELb0EEC2B7v160006IS4_vEEOT_, symObjAddr: 0x1A460, symBinAddr: 0x100022F90, symSize: 0x20 }
  - { offsetInCU: 0x40441, offset: 0x575E9, size: 0x8, addend: 0x0, symName: __ZNSt3__19allocatorI3RowE8allocateB7v160006Em, symObjAddr: 0x1A480, symBinAddr: 0x100022FB0, symSize: 0x5C }
  - { offsetInCU: 0x40475, offset: 0x5761D, size: 0x8, addend: 0x0, symName: __ZNSt3__117__compressed_pairIP3RowRNS_9allocatorIS1_EEE6secondB7v160006Ev, symObjAddr: 0x1A4DC, symBinAddr: 0x10002300C, symSize: 0x28 }
  - { offsetInCU: 0x4049B, offset: 0x57643, size: 0x8, addend: 0x0, symName: __ZNSt3__122__compressed_pair_elemIRNS_9allocatorI3RowEELi1ELb0EE5__getB7v160006Ev, symObjAddr: 0x1A504, symBinAddr: 0x100023034, symSize: 0x18 }
  - { offsetInCU: 0x404C1, offset: 0x57669, size: 0x8, addend: 0x0, symName: __ZNSt3__117__compressed_pairIP3RowRNS_9allocatorIS1_EEE5firstB7v160006Ev, symObjAddr: 0x1A51C, symBinAddr: 0x10002304C, symSize: 0x24 }
  - { offsetInCU: 0x404E7, offset: 0x5768F, size: 0x8, addend: 0x0, symName: __ZNSt3__116reverse_iteratorIP3RowEC1B7v160006ES2_, symObjAddr: 0x1A66C, symBinAddr: 0x10002319C, symSize: 0x34 }
  - { offsetInCU: 0x4051F, offset: 0x576C7, size: 0x8, addend: 0x0, symName: __ZNKSt3__116reverse_iteratorIP3RowE4baseB7v160006Ev, symObjAddr: 0x1A6A0, symBinAddr: 0x1000231D0, symSize: 0x18 }
  - { offsetInCU: 0x40545, offset: 0x576ED, size: 0x8, addend: 0x0, symName: __ZNKSt3__16vectorI3RowNS_9allocatorIS1_EEE14__annotate_newB7v160006Em, symObjAddr: 0x1A6F4, symBinAddr: 0x100023224, symSize: 0xC8 }
  - { offsetInCU: 0x4057A, offset: 0x57722, size: 0x8, addend: 0x0, symName: __ZNSt3__129_AllocatorDestroyRangeReverseINS_9allocatorI3RowEENS_16reverse_iteratorIPS2_EEEC1B7v160006ERS3_RS6_S9_, symObjAddr: 0x1A808, symBinAddr: 0x100023338, symSize: 0x44 }
  - { offsetInCU: 0x405D6, offset: 0x5777E, size: 0x8, addend: 0x0, symName: __ZNSt3__116allocator_traitsINS_9allocatorI3RowEEE9constructB7v160006IS2_JS2_EvEEvRS3_PT_DpOT0_, symObjAddr: 0x1A894, symBinAddr: 0x1000233C4, symSize: 0x34 }
  - { offsetInCU: 0x4062D, offset: 0x577D5, size: 0x8, addend: 0x0, symName: __ZNKSt3__116reverse_iteratorIP3RowEdeB7v160006Ev, symObjAddr: 0x1A8EC, symBinAddr: 0x10002341C, symSize: 0x28 }
  - { offsetInCU: 0x40661, offset: 0x57809, size: 0x8, addend: 0x0, symName: __ZNSt3__116reverse_iteratorIP3RowEppB7v160006Ev, symObjAddr: 0x1A914, symBinAddr: 0x100023444, symSize: 0x20 }
  - { offsetInCU: 0x40687, offset: 0x5782F, size: 0x8, addend: 0x0, symName: __ZNSt3__128__exception_guard_exceptionsINS_29_AllocatorDestroyRangeReverseINS_9allocatorI3RowEENS_16reverse_iteratorIPS3_EEEEE10__completeB7v160006Ev, symObjAddr: 0x1A934, symBinAddr: 0x100023464, symSize: 0x1C }
  - { offsetInCU: 0x406AD, offset: 0x57855, size: 0x8, addend: 0x0, symName: __ZNSt3__128__exception_guard_exceptionsINS_29_AllocatorDestroyRangeReverseINS_9allocatorI3RowEENS_16reverse_iteratorIPS3_EEEEED1B7v160006Ev, symObjAddr: 0x1A950, symBinAddr: 0x100023480, symSize: 0x2C }
  - { offsetInCU: 0x406D7, offset: 0x5787F, size: 0x8, addend: 0x0, symName: __ZNSt3__128__exception_guard_exceptionsINS_29_AllocatorDestroyRangeReverseINS_9allocatorI3RowEENS_16reverse_iteratorIPS3_EEEEEC1B7v160006ES8_, symObjAddr: 0x1A97C, symBinAddr: 0x1000234AC, symSize: 0x34 }
  - { offsetInCU: 0x40710, offset: 0x578B8, size: 0x8, addend: 0x0, symName: __ZNSt3__128__exception_guard_exceptionsINS_29_AllocatorDestroyRangeReverseINS_9allocatorI3RowEENS_16reverse_iteratorIPS3_EEEEEC2B7v160006ES8_, symObjAddr: 0x1A9B0, symBinAddr: 0x1000234E0, symSize: 0x30 }
  - { offsetInCU: 0x40749, offset: 0x578F1, size: 0x8, addend: 0x0, symName: __ZNSt3__129_AllocatorDestroyRangeReverseINS_9allocatorI3RowEENS_16reverse_iteratorIPS2_EEEC2B7v160006ERS3_RS6_S9_, symObjAddr: 0x1A9E0, symBinAddr: 0x100023510, symSize: 0x38 }
  - { offsetInCU: 0x407A0, offset: 0x57948, size: 0x8, addend: 0x0, symName: __ZNSt3__19allocatorI3RowE9constructB7v160006IS1_JS1_EEEvPT_DpOT0_, symObjAddr: 0x1AA18, symBinAddr: 0x100023548, symSize: 0x30 }
  - { offsetInCU: 0x407F6, offset: 0x5799E, size: 0x8, addend: 0x0, symName: __ZN3RowC1EOS_, symObjAddr: 0x1AA48, symBinAddr: 0x100023578, symSize: 0x34 }
  - { offsetInCU: 0x4082B, offset: 0x579D3, size: 0x8, addend: 0x0, symName: __ZN3RowC2EOS_, symObjAddr: 0x1AA7C, symBinAddr: 0x1000235AC, symSize: 0x34 }
  - { offsetInCU: 0x40860, offset: 0x57A08, size: 0x8, addend: 0x0, symName: __ZNSt3__16vectorINS_12basic_stringIcNS_11char_traitsIcEENS_9allocatorIcEEEENS4_IS6_EEEC2B7v160006EOS8_, symObjAddr: 0x1AAB0, symBinAddr: 0x1000235E0, symSize: 0xD8 }
  - { offsetInCU: 0x408A0, offset: 0x57A48, size: 0x8, addend: 0x0, symName: __ZNSt3__119__to_address_helperINS_16reverse_iteratorIP3RowEEvE6__callB7v160006ERKS4_, symObjAddr: 0x1AB88, symBinAddr: 0x1000236B8, symSize: 0x38 }
  - { offsetInCU: 0x408C3, offset: 0x57A6B, size: 0x8, addend: 0x0, symName: __ZNKSt3__116reverse_iteratorIP3RowEptB7v160006Ev, symObjAddr: 0x1ABC0, symBinAddr: 0x1000236F0, symSize: 0x24 }
  - { offsetInCU: 0x408E9, offset: 0x57A91, size: 0x8, addend: 0x0, symName: __ZNSt3__128__exception_guard_exceptionsINS_29_AllocatorDestroyRangeReverseINS_9allocatorI3RowEENS_16reverse_iteratorIPS3_EEEEED2B7v160006Ev, symObjAddr: 0x1ABE4, symBinAddr: 0x100023714, symSize: 0x50 }
  - { offsetInCU: 0x40913, offset: 0x57ABB, size: 0x8, addend: 0x0, symName: __ZNKSt3__129_AllocatorDestroyRangeReverseINS_9allocatorI3RowEENS_16reverse_iteratorIPS2_EEEclB7v160006Ev, symObjAddr: 0x1AC34, symBinAddr: 0x100023764, symSize: 0xB4 }
  - { offsetInCU: 0x4093A, offset: 0x57AE2, size: 0x8, addend: 0x0, symName: __ZNSt3__116reverse_iteratorINS0_IP3RowEEEC1B7v160006ES3_, symObjAddr: 0x1AD58, symBinAddr: 0x100023888, symSize: 0x3C }
  - { offsetInCU: 0x40972, offset: 0x57B1A, size: 0x8, addend: 0x0, symName: __ZNSt3__116reverse_iteratorINS0_IP3RowEEEppB7v160006Ev, symObjAddr: 0x1AE18, symBinAddr: 0x100023948, symSize: 0x30 }
  - { offsetInCU: 0x40998, offset: 0x57B40, size: 0x8, addend: 0x0, symName: __ZNKSt3__116reverse_iteratorINS0_IP3RowEEE4baseB7v160006Ev, symObjAddr: 0x1AE48, symBinAddr: 0x100023978, symSize: 0x24 }
  - { offsetInCU: 0x409C3, offset: 0x57B6B, size: 0x8, addend: 0x0, symName: __ZNSt3__119__to_address_helperINS_16reverse_iteratorINS1_IP3RowEEEEvE6__callB7v160006ERKS5_, symObjAddr: 0x1AE6C, symBinAddr: 0x10002399C, symSize: 0x38 }
  - { offsetInCU: 0x409E6, offset: 0x57B8E, size: 0x8, addend: 0x0, symName: __ZNKSt3__116reverse_iteratorINS0_IP3RowEEEptB7v160006Ev, symObjAddr: 0x1AEA4, symBinAddr: 0x1000239D4, symSize: 0x24 }
  - { offsetInCU: 0x40A0C, offset: 0x57BB4, size: 0x8, addend: 0x0, symName: __ZNKSt3__116reverse_iteratorINS0_IP3RowEEEdeB7v160006Ev, symObjAddr: 0x1AEC8, symBinAddr: 0x1000239F8, symSize: 0x34 }
  - { offsetInCU: 0x40A40, offset: 0x57BE8, size: 0x8, addend: 0x0, symName: __ZNSt3__116reverse_iteratorIP3RowEmmB7v160006Ev, symObjAddr: 0x1AEFC, symBinAddr: 0x100023A2C, symSize: 0x20 }
  - { offsetInCU: 0x40A66, offset: 0x57C0E, size: 0x8, addend: 0x0, symName: __ZNSt3__116reverse_iteratorINS0_IP3RowEEEC2B7v160006ES3_, symObjAddr: 0x1AF1C, symBinAddr: 0x100023A4C, symSize: 0x2C }
  - { offsetInCU: 0x40A9E, offset: 0x57C46, size: 0x8, addend: 0x0, symName: __ZNSt3__116reverse_iteratorIP3RowEC2B7v160006ES2_, symObjAddr: 0x1AF48, symBinAddr: 0x100023A78, symSize: 0x28 }
  - { offsetInCU: 0x40AD6, offset: 0x57C7E, size: 0x8, addend: 0x0, symName: __ZNSt3__114__split_bufferI3RowRNS_9allocatorIS1_EEED2Ev, symObjAddr: 0x1AF70, symBinAddr: 0x100023AA0, symSize: 0x8C }
  - { offsetInCU: 0x40B02, offset: 0x57CAA, size: 0x8, addend: 0x0, symName: __ZNSt3__114__split_bufferI3RowRNS_9allocatorIS1_EEE5clearB7v160006Ev, symObjAddr: 0x1AFFC, symBinAddr: 0x100023B2C, symSize: 0x28 }
  - { offsetInCU: 0x40B28, offset: 0x57CD0, size: 0x8, addend: 0x0, symName: __ZNKSt3__114__split_bufferI3RowRNS_9allocatorIS1_EEE8capacityB7v160006Ev, symObjAddr: 0x1B024, symBinAddr: 0x100023B54, symSize: 0x40 }
  - { offsetInCU: 0x40B4E, offset: 0x57CF6, size: 0x8, addend: 0x0, symName: __ZNSt3__114__split_bufferI3RowRNS_9allocatorIS1_EEE17__destruct_at_endB7v160006EPS1_, symObjAddr: 0x1B064, symBinAddr: 0x100023B94, symSize: 0x2C }
  - { offsetInCU: 0x40B82, offset: 0x57D2A, size: 0x8, addend: 0x0, symName: __ZNSt3__114__split_bufferI3RowRNS_9allocatorIS1_EEE17__destruct_at_endB7v160006EPS1_NS_17integral_constantIbLb0EEE, symObjAddr: 0x1B090, symBinAddr: 0x100023BC0, symSize: 0x80 }
  - { offsetInCU: 0x40BC3, offset: 0x57D6B, size: 0x8, addend: 0x0, symName: __ZNKSt3__114__split_bufferI3RowRNS_9allocatorIS1_EEE9__end_capB7v160006Ev, symObjAddr: 0x1B110, symBinAddr: 0x100023C40, symSize: 0x28 }
  - { offsetInCU: 0x40BE9, offset: 0x57D91, size: 0x8, addend: 0x0, symName: __ZNKSt3__117__compressed_pairIP3RowRNS_9allocatorIS1_EEE5firstB7v160006Ev, symObjAddr: 0x1B138, symBinAddr: 0x100023C68, symSize: 0x24 }
  - { offsetInCU: 0x40C0F, offset: 0x57DB7, size: 0x8, addend: 0x0, symName: __ZNSt3__13mapINS_12basic_stringIcNS_11char_traitsIcEENS_9allocatorIcEEEE5TableNS_4lessIS6_EENS4_INS_4pairIKS6_S7_EEEEED2B7v160006Ev, symObjAddr: 0x1B15C, symBinAddr: 0x100023C8C, symSize: 0x2C }
  - { offsetInCU: 0x40C39, offset: 0x57DE1, size: 0x8, addend: 0x0, symName: __ZNSt3__16__treeINS_12__value_typeINS_12basic_stringIcNS_11char_traitsIcEENS_9allocatorIcEEEE5TableEENS_19__map_value_compareIS7_S9_NS_4lessIS7_EELb1EEENS5_IS9_EEED1Ev, symObjAddr: 0x1B188, symBinAddr: 0x100023CB8, symSize: 0x2C }
  - { offsetInCU: 0x40C65, offset: 0x57E0D, size: 0x8, addend: 0x0, symName: __ZNSt3__16__treeINS_12__value_typeINS_12basic_stringIcNS_11char_traitsIcEENS_9allocatorIcEEEE5TableEENS_19__map_value_compareIS7_S9_NS_4lessIS7_EELb1EEENS5_IS9_EEED2Ev, symObjAddr: 0x1B1B4, symBinAddr: 0x100023CE4, symSize: 0x38 }
  - { offsetInCU: 0x40C91, offset: 0x57E39, size: 0x8, addend: 0x0, symName: __ZNSt3__16__treeINS_12__value_typeINS_12basic_stringIcNS_11char_traitsIcEENS_9allocatorIcEEEE5TableEENS_19__map_value_compareIS7_S9_NS_4lessIS7_EELb1EEENS5_IS9_EEE7destroyEPNS_11__tree_nodeIS9_PvEE, symObjAddr: 0x1B1EC, symBinAddr: 0x100023D1C, symSize: 0xA8 }
  - { offsetInCU: 0x40CDD, offset: 0x57E85, size: 0x8, addend: 0x0, symName: __ZNSt3__16vectorI5TableNS_9allocatorIS1_EEEC1B7v160006Ev, symObjAddr: 0x1B294, symBinAddr: 0x100023DC4, symSize: 0x2C }
  - { offsetInCU: 0x40D07, offset: 0x57EAF, size: 0x8, addend: 0x0, symName: __ZN7Queries10getQueriesEv, symObjAddr: 0x1B2C0, symBinAddr: 0x100023DF0, symSize: 0x3D0 }
  - { offsetInCU: 0x40DAF, offset: 0x57F57, size: 0x8, addend: 0x0, symName: __ZNSt3__16vectorI9QueryItemNS_9allocatorIS1_EEE5beginB7v160006Ev, symObjAddr: 0x1B690, symBinAddr: 0x1000241C0, symSize: 0x30 }
  - { offsetInCU: 0x40DD7, offset: 0x57F7F, size: 0x8, addend: 0x0, symName: __ZNSt3__16vectorI9QueryItemNS_9allocatorIS1_EEE3endB7v160006Ev, symObjAddr: 0x1B6C0, symBinAddr: 0x1000241F0, symSize: 0x30 }
  - { offsetInCU: 0x40DFF, offset: 0x57FA7, size: 0x8, addend: 0x0, symName: __ZNKSt3__111__wrap_iterIP9QueryItemEdeB7v160006Ev, symObjAddr: 0x1B724, symBinAddr: 0x100024254, symSize: 0x18 }
  - { offsetInCU: 0x40E25, offset: 0x57FCD, size: 0x8, addend: 0x0, symName: __ZN9QueryItemC1ERKS_, symObjAddr: 0x1B73C, symBinAddr: 0x10002426C, symSize: 0x34 }
  - { offsetInCU: 0x40E5A, offset: 0x58002, size: 0x8, addend: 0x0, symName: __ZN5TableaSERKS_, symObjAddr: 0x1B770, symBinAddr: 0x1000242A0, symSize: 0x5C }
  - { offsetInCU: 0x40E8B, offset: 0x58033, size: 0x8, addend: 0x0, symName: __ZNSt3__16vectorINS_12basic_stringIcNS_11char_traitsIcEENS_9allocatorIcEEEENS4_IS6_EEE2atEm, symObjAddr: 0x1B7CC, symBinAddr: 0x1000242FC, symSize: 0x68 }
  - { offsetInCU: 0x40EC2, offset: 0x5806A, size: 0x8, addend: 0x0, symName: __ZNKSt3__112basic_stringIcNS_11char_traitsIcEENS_9allocatorIcEEE4findB7v160006EPKcm, symObjAddr: 0x1B834, symBinAddr: 0x100024364, symSize: 0x74 }
  - { offsetInCU: 0x40F08, offset: 0x580B0, size: 0x8, addend: 0x0, symName: __ZN5Table6selectEiNSt3__112basic_stringIcNS0_11char_traitsIcEENS0_9allocatorIcEEEE, symObjAddr: 0x1B8A8, symBinAddr: 0x1000243D8, symSize: 0x190 }
  - { offsetInCU: 0x40F6E, offset: 0x58116, size: 0x8, addend: 0x0, symName: __ZN5Table6selectEii, symObjAddr: 0x1BB80, symBinAddr: 0x1000246B0, symSize: 0x1BC }
  - { offsetInCU: 0x40FD3, offset: 0x5817B, size: 0x8, addend: 0x0, symName: __ZN5Table7projectE9QueryItem, symObjAddr: 0x1BD3C, symBinAddr: 0x10002486C, symSize: 0x444 }
  - { offsetInCU: 0x41089, offset: 0x58231, size: 0x8, addend: 0x0, symName: __ZN9QueryItemD1Ev, symObjAddr: 0x1C180, symBinAddr: 0x100024CB0, symSize: 0x2C }
  - { offsetInCU: 0x410B5, offset: 0x5825D, size: 0x8, addend: 0x0, symName: __ZN5Table7toPrintE9QueryItem, symObjAddr: 0x1C1AC, symBinAddr: 0x100024CDC, symSize: 0x338 }
  - { offsetInCU: 0x4111C, offset: 0x582C4, size: 0x8, addend: 0x0, symName: __ZNSt3__16vectorI5TableNS_9allocatorIS1_EEE9push_backB7v160006ERKS1_, symObjAddr: 0x1C4E4, symBinAddr: 0x100025014, symSize: 0x6C }
  - { offsetInCU: 0x41153, offset: 0x582FB, size: 0x8, addend: 0x0, symName: __ZNSt3__111__wrap_iterIP9QueryItemEppB7v160006Ev, symObjAddr: 0x1C550, symBinAddr: 0x100025080, symSize: 0x20 }
  - { offsetInCU: 0x41179, offset: 0x58321, size: 0x8, addend: 0x0, symName: __ZNSt3__16vectorI9QueryItemNS_9allocatorIS1_EEED1B7v160006Ev, symObjAddr: 0x1C570, symBinAddr: 0x1000250A0, symSize: 0x2C }
  - { offsetInCU: 0x411A3, offset: 0x5834B, size: 0x8, addend: 0x0, symName: __ZNSt3__16vectorI5TableNS_9allocatorIS1_EEED1B7v160006Ev, symObjAddr: 0x1C59C, symBinAddr: 0x1000250CC, symSize: 0x2C }
  - { offsetInCU: 0x411CD, offset: 0x58375, size: 0x8, addend: 0x0, symName: __ZNSt3__16vectorI5TableNS_9allocatorIS1_EEEC2B7v160006Ev, symObjAddr: 0x1C5C8, symBinAddr: 0x1000250F8, symSize: 0x58 }
  - { offsetInCU: 0x411F7, offset: 0x5839F, size: 0x8, addend: 0x0, symName: __ZNSt3__117__compressed_pairIP5TableNS_9allocatorIS1_EEEC1B7v160006IDnNS_18__default_init_tagEEEOT_OT0_, symObjAddr: 0x1C620, symBinAddr: 0x100025150, symSize: 0x3C }
  - { offsetInCU: 0x4124F, offset: 0x583F7, size: 0x8, addend: 0x0, symName: __ZNSt3__117__compressed_pairIP5TableNS_9allocatorIS1_EEEC2B7v160006IDnNS_18__default_init_tagEEEOT_OT0_, symObjAddr: 0x1C66C, symBinAddr: 0x10002519C, symSize: 0x40 }
  - { offsetInCU: 0x412A7, offset: 0x5844F, size: 0x8, addend: 0x0, symName: __ZNSt3__122__compressed_pair_elemIP5TableLi0ELb0EEC2B7v160006IDnvEEOT_, symObjAddr: 0x1C6AC, symBinAddr: 0x1000251DC, symSize: 0x1C }
  - { offsetInCU: 0x412E9, offset: 0x58491, size: 0x8, addend: 0x0, symName: __ZNSt3__122__compressed_pair_elemINS_9allocatorI5TableEELi1ELb1EEC2B7v160006ENS_18__default_init_tagE, symObjAddr: 0x1C6C8, symBinAddr: 0x1000251F8, symSize: 0x2C }
  - { offsetInCU: 0x4131E, offset: 0x584C6, size: 0x8, addend: 0x0, symName: __ZNSt3__19allocatorI5TableEC2B7v160006Ev, symObjAddr: 0x1C6F4, symBinAddr: 0x100025224, symSize: 0x2C }
  - { offsetInCU: 0x41348, offset: 0x584F0, size: 0x8, addend: 0x0, symName: __ZNSt3__116__non_trivial_ifILb1ENS_9allocatorI5TableEEEC2B7v160006Ev, symObjAddr: 0x1C720, symBinAddr: 0x100025250, symSize: 0x14 }
  - { offsetInCU: 0x41372, offset: 0x5851A, size: 0x8, addend: 0x0, symName: __ZNSt3__16vectorI9QueryItemNS_9allocatorIS1_EEEC1B7v160006Ev, symObjAddr: 0x1C734, symBinAddr: 0x100025264, symSize: 0x2C }
  - { offsetInCU: 0x4139C, offset: 0x58544, size: 0x8, addend: 0x0, symName: __ZNSt3__16vectorINS_12basic_stringIcNS_11char_traitsIcEENS_9allocatorIcEEEENS4_IS6_EEEC1B7v160006Ev, symObjAddr: 0x1C760, symBinAddr: 0x100025290, symSize: 0x2C }
  - { offsetInCU: 0x413C6, offset: 0x5856E, size: 0x8, addend: 0x0, symName: __ZNSt3__16vectorINS_12basic_stringIcNS_11char_traitsIcEENS_9allocatorIcEEEENS4_IS6_EEE9push_backB7v160006EOS6_, symObjAddr: 0x1C78C, symBinAddr: 0x1000252BC, symSize: 0x6C }
  - { offsetInCU: 0x413FD, offset: 0x585A5, size: 0x8, addend: 0x0, symName: __ZNSt3__112basic_stringIcNS_11char_traitsIcEENS_9allocatorIcEEEpLB7v160006EPKc, symObjAddr: 0x1C7F8, symBinAddr: 0x100025328, symSize: 0x2C }
  - { offsetInCU: 0x41432, offset: 0x585DA, size: 0x8, addend: 0x0, symName: __ZNSt3__16vectorINS_12basic_stringIcNS_11char_traitsIcEENS_9allocatorIcEEEENS4_IS6_EEEC1ERKS8_, symObjAddr: 0x1C824, symBinAddr: 0x100025354, symSize: 0x34 }
  - { offsetInCU: 0x4146D, offset: 0x58615, size: 0x8, addend: 0x0, symName: __ZN9QueryItemC1ENSt3__112basic_stringIcNS0_11char_traitsIcEENS0_9allocatorIcEEEENS0_6vectorIS6_NS4_IS6_EEEE, symObjAddr: 0x1C858, symBinAddr: 0x100025388, symSize: 0x3C }
  - { offsetInCU: 0x414B5, offset: 0x5865D, size: 0x8, addend: 0x0, symName: __ZNSt3__16vectorINS_12basic_stringIcNS_11char_traitsIcEENS_9allocatorIcEEEENS4_IS6_EEED1B7v160006Ev, symObjAddr: 0x1C894, symBinAddr: 0x1000253C4, symSize: 0x2C }
  - { offsetInCU: 0x414DF, offset: 0x58687, size: 0x8, addend: 0x0, symName: __ZNSt3__16vectorI9QueryItemNS_9allocatorIS1_EEE9push_backB7v160006ERKS1_, symObjAddr: 0x1C8C0, symBinAddr: 0x1000253F0, symSize: 0x6C }
  - { offsetInCU: 0x41516, offset: 0x586BE, size: 0x8, addend: 0x0, symName: __ZNSt3__16vectorI9QueryItemNS_9allocatorIS1_EEEC2B7v160006Ev, symObjAddr: 0x1C92C, symBinAddr: 0x10002545C, symSize: 0x58 }
  - { offsetInCU: 0x41540, offset: 0x586E8, size: 0x8, addend: 0x0, symName: __ZNSt3__117__compressed_pairIP9QueryItemNS_9allocatorIS1_EEEC1B7v160006IDnNS_18__default_init_tagEEEOT_OT0_, symObjAddr: 0x1C984, symBinAddr: 0x1000254B4, symSize: 0x3C }
  - { offsetInCU: 0x41598, offset: 0x58740, size: 0x8, addend: 0x0, symName: __ZNSt3__117__compressed_pairIP9QueryItemNS_9allocatorIS1_EEEC2B7v160006IDnNS_18__default_init_tagEEEOT_OT0_, symObjAddr: 0x1C9D0, symBinAddr: 0x100025500, symSize: 0x40 }
  - { offsetInCU: 0x415F0, offset: 0x58798, size: 0x8, addend: 0x0, symName: __ZNSt3__122__compressed_pair_elemIP9QueryItemLi0ELb0EEC2B7v160006IDnvEEOT_, symObjAddr: 0x1CA10, symBinAddr: 0x100025540, symSize: 0x1C }
  - { offsetInCU: 0x41632, offset: 0x587DA, size: 0x8, addend: 0x0, symName: __ZNSt3__122__compressed_pair_elemINS_9allocatorI9QueryItemEELi1ELb1EEC2B7v160006ENS_18__default_init_tagE, symObjAddr: 0x1CA2C, symBinAddr: 0x10002555C, symSize: 0x2C }
  - { offsetInCU: 0x41667, offset: 0x5880F, size: 0x8, addend: 0x0, symName: __ZNSt3__19allocatorI9QueryItemEC2B7v160006Ev, symObjAddr: 0x1CA58, symBinAddr: 0x100025588, symSize: 0x2C }
  - { offsetInCU: 0x41691, offset: 0x58839, size: 0x8, addend: 0x0, symName: __ZNSt3__116__non_trivial_ifILb1ENS_9allocatorI9QueryItemEEEC2B7v160006Ev, symObjAddr: 0x1CA84, symBinAddr: 0x1000255B4, symSize: 0x14 }
  - { offsetInCU: 0x416BB, offset: 0x58863, size: 0x8, addend: 0x0, symName: __ZNSt3__16vectorINS_12basic_stringIcNS_11char_traitsIcEENS_9allocatorIcEEEENS4_IS6_EEE22__construct_one_at_endB7v160006IJS6_EEEvDpOT_, symObjAddr: 0x1CA98, symBinAddr: 0x1000255C8, symSize: 0x90 }
  - { offsetInCU: 0x4170A, offset: 0x588B2, size: 0x8, addend: 0x0, symName: __ZNSt3__16vectorINS_12basic_stringIcNS_11char_traitsIcEENS_9allocatorIcEEEENS4_IS6_EEE21__push_back_slow_pathIS6_EEvOT_, symObjAddr: 0x1CB28, symBinAddr: 0x100025658, symSize: 0xD8 }
  - { offsetInCU: 0x41768, offset: 0x58910, size: 0x8, addend: 0x0, symName: __ZN9QueryItemC2ENSt3__112basic_stringIcNS0_11char_traitsIcEENS0_9allocatorIcEEEENS0_6vectorIS6_NS4_IS6_EEEE, symObjAddr: 0x1CC00, symBinAddr: 0x100025730, symSize: 0x9C }
  - { offsetInCU: 0x417B0, offset: 0x58958, size: 0x8, addend: 0x0, symName: __ZNSt3__16vectorINS_12basic_stringIcNS_11char_traitsIcEENS_9allocatorIcEEEENS4_IS6_EEEaSB7v160006ERKS8_, symObjAddr: 0x1CC9C, symBinAddr: 0x1000257CC, symSize: 0x68 }
  - { offsetInCU: 0x417E7, offset: 0x5898F, size: 0x8, addend: 0x0, symName: __ZNSt3__16vectorINS_12basic_stringIcNS_11char_traitsIcEENS_9allocatorIcEEEENS4_IS6_EEE19__copy_assign_allocB7v160006ERKS8_, symObjAddr: 0x1CD04, symBinAddr: 0x100025834, symSize: 0x2C }
  - { offsetInCU: 0x4181C, offset: 0x589C4, size: 0x8, addend: 0x0, symName: __ZNSt3__16vectorINS_12basic_stringIcNS_11char_traitsIcEENS_9allocatorIcEEEENS4_IS6_EEE6assignIPS6_Li0EEEvT_SB_, symObjAddr: 0x1CD30, symBinAddr: 0x100025860, symSize: 0x17C }
  - { offsetInCU: 0x418BB, offset: 0x58A63, size: 0x8, addend: 0x0, symName: __ZNSt3__16vectorINS_12basic_stringIcNS_11char_traitsIcEENS_9allocatorIcEEEENS4_IS6_EEE19__copy_assign_allocB7v160006ERKS8_NS_17integral_constantIbLb0EEE, symObjAddr: 0x1CEAC, symBinAddr: 0x1000259DC, symSize: 0x14 }
  - { offsetInCU: 0x418F7, offset: 0x58A9F, size: 0x8, addend: 0x0, symName: __ZNSt3__16vectorINS_12basic_stringIcNS_11char_traitsIcEENS_9allocatorIcEEEENS4_IS6_EEE17__destruct_at_endB7v160006EPS6_, symObjAddr: 0x1CF7C, symBinAddr: 0x100025AAC, symSize: 0x60 }
  - { offsetInCU: 0x4195E, offset: 0x58B06, size: 0x8, addend: 0x0, symName: __ZNKSt3__111__copy_loopINS_17_ClassicAlgPolicyEEclB7v160006IPNS_12basic_stringIcNS_11char_traitsIcEENS_9allocatorIcEEEESA_SA_EENS_4pairIT_T1_EESC_T0_SD_, symObjAddr: 0x1D1E4, symBinAddr: 0x100025D00, symSize: 0x88 }
  - { offsetInCU: 0x419C9, offset: 0x58B71, size: 0x8, addend: 0x0, symName: __ZNSt3__118__unwrap_iter_implIPNS_12basic_stringIcNS_11char_traitsIcEENS_9allocatorIcEEEELb1EE8__unwrapB7v160006ES7_, symObjAddr: 0x1D330, symBinAddr: 0x100025E4C, symSize: 0x24 }
  - { offsetInCU: 0x419F1, offset: 0x58B99, size: 0x8, addend: 0x0, symName: __ZNSt3__14pairIPNS_12basic_stringIcNS_11char_traitsIcEENS_9allocatorIcEEEES7_EC1B7v160006IS7_S7_LPv0EEEOT_OT0_, symObjAddr: 0x1D354, symBinAddr: 0x100025E70, symSize: 0x3C }
  - { offsetInCU: 0x41A4F, offset: 0x58BF7, size: 0x8, addend: 0x0, symName: __ZNSt3__14pairIPNS_12basic_stringIcNS_11char_traitsIcEENS_9allocatorIcEEEES7_EC2B7v160006IS7_S7_LPv0EEEOT_OT0_, symObjAddr: 0x1D390, symBinAddr: 0x100025EAC, symSize: 0x34 }
  - { offsetInCU: 0x41AAD, offset: 0x58C55, size: 0x8, addend: 0x0, symName: __ZNSt3__118__unwrap_iter_implIPNS_12basic_stringIcNS_11char_traitsIcEENS_9allocatorIcEEEELb1EE8__rewrapB7v160006ES7_S7_, symObjAddr: 0x1D3C4, symBinAddr: 0x100025EE0, symSize: 0x58 }
  - { offsetInCU: 0x41ADE, offset: 0x58C86, size: 0x8, addend: 0x0, symName: __ZNSt3__16vectorINS_12basic_stringIcNS_11char_traitsIcEENS_9allocatorIcEEEENS4_IS6_EEE27__invalidate_iterators_pastB7v160006EPS6_, symObjAddr: 0x1D41C, symBinAddr: 0x100025F38, symSize: 0x14 }
  - { offsetInCU: 0x41B15, offset: 0x58CBD, size: 0x8, addend: 0x0, symName: __ZNSt3__16vectorI9QueryItemNS_9allocatorIS1_EEE9__end_capB7v160006Ev, symObjAddr: 0x1D430, symBinAddr: 0x100025F4C, symSize: 0x28 }
  - { offsetInCU: 0x41B3B, offset: 0x58CE3, size: 0x8, addend: 0x0, symName: __ZNSt3__16vectorI9QueryItemNS_9allocatorIS1_EEE22__construct_one_at_endB7v160006IJRKS1_EEEvDpOT_, symObjAddr: 0x1D458, symBinAddr: 0x100025F74, symSize: 0x90 }
  - { offsetInCU: 0x41B8A, offset: 0x58D32, size: 0x8, addend: 0x0, symName: __ZNSt3__16vectorI9QueryItemNS_9allocatorIS1_EEE21__push_back_slow_pathIRKS1_EEvOT_, symObjAddr: 0x1D4E8, symBinAddr: 0x100026004, symSize: 0xD8 }
  - { offsetInCU: 0x41BE8, offset: 0x58D90, size: 0x8, addend: 0x0, symName: __ZNSt3__117__compressed_pairIP9QueryItemNS_9allocatorIS1_EEE5firstB7v160006Ev, symObjAddr: 0x1D5C0, symBinAddr: 0x1000260DC, symSize: 0x24 }
  - { offsetInCU: 0x41C0E, offset: 0x58DB6, size: 0x8, addend: 0x0, symName: __ZNSt3__122__compressed_pair_elemIP9QueryItemLi0ELb0EE5__getB7v160006Ev, symObjAddr: 0x1D5E4, symBinAddr: 0x100026100, symSize: 0x14 }
  - { offsetInCU: 0x41C4D, offset: 0x58DF5, size: 0x8, addend: 0x0, symName: __ZNSt3__16vectorI9QueryItemNS_9allocatorIS1_EEE21_ConstructTransactionC1B7v160006ERS4_m, symObjAddr: 0x1D5F8, symBinAddr: 0x100026114, symSize: 0x3C }
  - { offsetInCU: 0x41C95, offset: 0x58E3D, size: 0x8, addend: 0x0, symName: __ZNSt3__116allocator_traitsINS_9allocatorI9QueryItemEEE9constructB7v160006IS2_JRKS2_EvEEvRS3_PT_DpOT0_, symObjAddr: 0x1D634, symBinAddr: 0x100026150, symSize: 0x34 }
  - { offsetInCU: 0x41CEC, offset: 0x58E94, size: 0x8, addend: 0x0, symName: __ZNSt3__16vectorI9QueryItemNS_9allocatorIS1_EEE7__allocB7v160006Ev, symObjAddr: 0x1D668, symBinAddr: 0x100026184, symSize: 0x28 }
  - { offsetInCU: 0x41D12, offset: 0x58EBA, size: 0x8, addend: 0x0, symName: __ZNSt3__16vectorI9QueryItemNS_9allocatorIS1_EEE21_ConstructTransactionD1B7v160006Ev, symObjAddr: 0x1D6A4, symBinAddr: 0x1000261C0, symSize: 0x2C }
  - { offsetInCU: 0x41D3C, offset: 0x58EE4, size: 0x8, addend: 0x0, symName: __ZNSt3__16vectorI9QueryItemNS_9allocatorIS1_EEE21_ConstructTransactionC2B7v160006ERS4_m, symObjAddr: 0x1D6D0, symBinAddr: 0x1000261EC, symSize: 0x4C }
  - { offsetInCU: 0x41D84, offset: 0x58F2C, size: 0x8, addend: 0x0, symName: __ZNSt3__19allocatorI9QueryItemE9constructB7v160006IS1_JRKS1_EEEvPT_DpOT0_, symObjAddr: 0x1D71C, symBinAddr: 0x100026238, symSize: 0x30 }
  - { offsetInCU: 0x41DDA, offset: 0x58F82, size: 0x8, addend: 0x0, symName: __ZNSt3__117__compressed_pairIP9QueryItemNS_9allocatorIS1_EEE6secondB7v160006Ev, symObjAddr: 0x1D74C, symBinAddr: 0x100026268, symSize: 0x24 }
  - { offsetInCU: 0x41E00, offset: 0x58FA8, size: 0x8, addend: 0x0, symName: __ZNSt3__122__compressed_pair_elemINS_9allocatorI9QueryItemEELi1ELb1EE5__getB7v160006Ev, symObjAddr: 0x1D770, symBinAddr: 0x10002628C, symSize: 0x14 }
  - { offsetInCU: 0x41E26, offset: 0x58FCE, size: 0x8, addend: 0x0, symName: __ZNSt3__16vectorI9QueryItemNS_9allocatorIS1_EEE21_ConstructTransactionD2B7v160006Ev, symObjAddr: 0x1D784, symBinAddr: 0x1000262A0, symSize: 0x20 }
  - { offsetInCU: 0x41E50, offset: 0x58FF8, size: 0x8, addend: 0x0, symName: __ZNKSt3__16vectorI9QueryItemNS_9allocatorIS1_EEE11__recommendB7v160006Em, symObjAddr: 0x1D7A4, symBinAddr: 0x1000262C0, symSize: 0xB4 }
  - { offsetInCU: 0x41EA5, offset: 0x5904D, size: 0x8, addend: 0x0, symName: __ZNKSt3__16vectorI9QueryItemNS_9allocatorIS1_EEE4sizeB7v160006Ev, symObjAddr: 0x1D858, symBinAddr: 0x100026374, symSize: 0x28 }
  - { offsetInCU: 0x41ECB, offset: 0x59073, size: 0x8, addend: 0x0, symName: __ZNSt3__114__split_bufferI9QueryItemRNS_9allocatorIS1_EEEC1EmmS4_, symObjAddr: 0x1D880, symBinAddr: 0x10002639C, symSize: 0x44 }
  - { offsetInCU: 0x41F21, offset: 0x590C9, size: 0x8, addend: 0x0, symName: __ZNSt3__114__split_bufferI9QueryItemRNS_9allocatorIS1_EEED1Ev, symObjAddr: 0x1D9DC, symBinAddr: 0x1000264F8, symSize: 0x2C }
  - { offsetInCU: 0x41F4D, offset: 0x590F5, size: 0x8, addend: 0x0, symName: __ZNKSt3__16vectorI9QueryItemNS_9allocatorIS1_EEE8max_sizeEv, symObjAddr: 0x1DA08, symBinAddr: 0x100026524, symSize: 0x60 }
  - { offsetInCU: 0x41F75, offset: 0x5911D, size: 0x8, addend: 0x0, symName: __ZNKSt3__16vectorI9QueryItemNS_9allocatorIS1_EEE20__throw_length_errorB7v160006Ev, symObjAddr: 0x1DA68, symBinAddr: 0x100026584, symSize: 0x1C }
  - { offsetInCU: 0x41F9B, offset: 0x59143, size: 0x8, addend: 0x0, symName: __ZNKSt3__16vectorI9QueryItemNS_9allocatorIS1_EEE8capacityB7v160006Ev, symObjAddr: 0x1DA84, symBinAddr: 0x1000265A0, symSize: 0x40 }
  - { offsetInCU: 0x41FCB, offset: 0x59173, size: 0x8, addend: 0x0, symName: __ZNSt3__116allocator_traitsINS_9allocatorI9QueryItemEEE8max_sizeB7v160006IS3_vEEmRKS3_, symObjAddr: 0x1DAC4, symBinAddr: 0x1000265E0, symSize: 0x24 }
  - { offsetInCU: 0x41FF9, offset: 0x591A1, size: 0x8, addend: 0x0, symName: __ZNKSt3__16vectorI9QueryItemNS_9allocatorIS1_EEE7__allocB7v160006Ev, symObjAddr: 0x1DAE8, symBinAddr: 0x100026604, symSize: 0x28 }
  - { offsetInCU: 0x4201F, offset: 0x591C7, size: 0x8, addend: 0x0, symName: __ZNKSt3__19allocatorI9QueryItemE8max_sizeB7v160006Ev, symObjAddr: 0x1DB10, symBinAddr: 0x10002662C, symSize: 0x18 }
  - { offsetInCU: 0x42045, offset: 0x591ED, size: 0x8, addend: 0x0, symName: __ZNKSt3__117__compressed_pairIP9QueryItemNS_9allocatorIS1_EEE6secondB7v160006Ev, symObjAddr: 0x1DB28, symBinAddr: 0x100026644, symSize: 0x24 }
  - { offsetInCU: 0x4206B, offset: 0x59213, size: 0x8, addend: 0x0, symName: __ZNKSt3__122__compressed_pair_elemINS_9allocatorI9QueryItemEELi1ELb1EE5__getB7v160006Ev, symObjAddr: 0x1DB4C, symBinAddr: 0x100026668, symSize: 0x14 }
  - { offsetInCU: 0x42091, offset: 0x59239, size: 0x8, addend: 0x0, symName: __ZNKSt3__16vectorI9QueryItemNS_9allocatorIS1_EEE9__end_capB7v160006Ev, symObjAddr: 0x1DB60, symBinAddr: 0x10002667C, symSize: 0x28 }
  - { offsetInCU: 0x420B7, offset: 0x5925F, size: 0x8, addend: 0x0, symName: __ZNKSt3__117__compressed_pairIP9QueryItemNS_9allocatorIS1_EEE5firstB7v160006Ev, symObjAddr: 0x1DB88, symBinAddr: 0x1000266A4, symSize: 0x24 }
  - { offsetInCU: 0x420DD, offset: 0x59285, size: 0x8, addend: 0x0, symName: __ZNKSt3__122__compressed_pair_elemIP9QueryItemLi0ELb0EE5__getB7v160006Ev, symObjAddr: 0x1DBAC, symBinAddr: 0x1000266C8, symSize: 0x14 }
  - { offsetInCU: 0x42103, offset: 0x592AB, size: 0x8, addend: 0x0, symName: __ZNSt3__114__split_bufferI9QueryItemRNS_9allocatorIS1_EEEC2EmmS4_, symObjAddr: 0x1DBC0, symBinAddr: 0x1000266DC, symSize: 0xE0 }
  - { offsetInCU: 0x42176, offset: 0x5931E, size: 0x8, addend: 0x0, symName: __ZNSt3__117__compressed_pairIP9QueryItemRNS_9allocatorIS1_EEEC1B7v160006IDnS5_EEOT_OT0_, symObjAddr: 0x1DCA0, symBinAddr: 0x1000267BC, symSize: 0x3C }
  - { offsetInCU: 0x421CE, offset: 0x59376, size: 0x8, addend: 0x0, symName: __ZNSt3__114__split_bufferI9QueryItemRNS_9allocatorIS1_EEE7__allocB7v160006Ev, symObjAddr: 0x1DD1C, symBinAddr: 0x100026838, symSize: 0x28 }
  - { offsetInCU: 0x421F4, offset: 0x5939C, size: 0x8, addend: 0x0, symName: __ZNSt3__114__split_bufferI9QueryItemRNS_9allocatorIS1_EEE9__end_capB7v160006Ev, symObjAddr: 0x1DD44, symBinAddr: 0x100026860, symSize: 0x28 }
  - { offsetInCU: 0x4221A, offset: 0x593C2, size: 0x8, addend: 0x0, symName: __ZNSt3__117__compressed_pairIP9QueryItemRNS_9allocatorIS1_EEEC2B7v160006IDnS5_EEOT_OT0_, symObjAddr: 0x1DD6C, symBinAddr: 0x100026888, symSize: 0x48 }
  - { offsetInCU: 0x42272, offset: 0x5941A, size: 0x8, addend: 0x0, symName: __ZNSt3__122__compressed_pair_elemIRNS_9allocatorI9QueryItemEELi1ELb0EEC2B7v160006IS4_vEEOT_, symObjAddr: 0x1DDB4, symBinAddr: 0x1000268D0, symSize: 0x20 }
  - { offsetInCU: 0x422B4, offset: 0x5945C, size: 0x8, addend: 0x0, symName: __ZNSt3__19allocatorI9QueryItemE8allocateB7v160006Em, symObjAddr: 0x1DDD4, symBinAddr: 0x1000268F0, symSize: 0x5C }
  - { offsetInCU: 0x422E8, offset: 0x59490, size: 0x8, addend: 0x0, symName: __ZNSt3__117__compressed_pairIP9QueryItemRNS_9allocatorIS1_EEE6secondB7v160006Ev, symObjAddr: 0x1DE30, symBinAddr: 0x10002694C, symSize: 0x28 }
  - { offsetInCU: 0x4230E, offset: 0x594B6, size: 0x8, addend: 0x0, symName: __ZNSt3__122__compressed_pair_elemIRNS_9allocatorI9QueryItemEELi1ELb0EE5__getB7v160006Ev, symObjAddr: 0x1DE58, symBinAddr: 0x100026974, symSize: 0x18 }
  - { offsetInCU: 0x42334, offset: 0x594DC, size: 0x8, addend: 0x0, symName: __ZNSt3__117__compressed_pairIP9QueryItemRNS_9allocatorIS1_EEE5firstB7v160006Ev, symObjAddr: 0x1DE70, symBinAddr: 0x10002698C, symSize: 0x24 }
  - { offsetInCU: 0x4235A, offset: 0x59502, size: 0x8, addend: 0x0, symName: __ZNKSt3__16vectorI9QueryItemNS_9allocatorIS1_EEE17__annotate_deleteB7v160006Ev, symObjAddr: 0x1DE94, symBinAddr: 0x1000269B0, symSize: 0xD4 }
  - { offsetInCU: 0x42380, offset: 0x59528, size: 0x8, addend: 0x0, symName: __ZNSt3__116reverse_iteratorIP9QueryItemEC1B7v160006ES2_, symObjAddr: 0x1E094, symBinAddr: 0x100026BB0, symSize: 0x34 }
  - { offsetInCU: 0x423B8, offset: 0x59560, size: 0x8, addend: 0x0, symName: __ZNKSt3__116reverse_iteratorIP9QueryItemE4baseB7v160006Ev, symObjAddr: 0x1E0C8, symBinAddr: 0x100026BE4, symSize: 0x18 }
  - { offsetInCU: 0x423DE, offset: 0x59586, size: 0x8, addend: 0x0, symName: __ZNKSt3__16vectorI9QueryItemNS_9allocatorIS1_EEE14__annotate_newB7v160006Em, symObjAddr: 0x1E11C, symBinAddr: 0x100026C38, symSize: 0xC8 }
  - { offsetInCU: 0x42413, offset: 0x595BB, size: 0x8, addend: 0x0, symName: __ZNKSt3__16vectorI9QueryItemNS_9allocatorIS1_EEE31__annotate_contiguous_containerB7v160006EPKvS6_S6_S6_, symObjAddr: 0x1E1F4, symBinAddr: 0x100026D10, symSize: 0x20 }
  - { offsetInCU: 0x42465, offset: 0x5960D, size: 0x8, addend: 0x0, symName: __ZNKSt3__16vectorI9QueryItemNS_9allocatorIS1_EEE4dataB7v160006Ev, symObjAddr: 0x1E214, symBinAddr: 0x100026D30, symSize: 0x28 }
  - { offsetInCU: 0x4248B, offset: 0x59633, size: 0x8, addend: 0x0, symName: __ZNSt3__129_AllocatorDestroyRangeReverseINS_9allocatorI9QueryItemEENS_16reverse_iteratorIPS2_EEEC1B7v160006ERS3_RS6_S9_, symObjAddr: 0x1E288, symBinAddr: 0x100026DA4, symSize: 0x44 }
  - { offsetInCU: 0x424E7, offset: 0x5968F, size: 0x8, addend: 0x0, symName: __ZNSt3__116allocator_traitsINS_9allocatorI9QueryItemEEE9constructB7v160006IS2_JS2_EvEEvRS3_PT_DpOT0_, symObjAddr: 0x1E314, symBinAddr: 0x100026E30, symSize: 0x34 }
  - { offsetInCU: 0x4253E, offset: 0x596E6, size: 0x8, addend: 0x0, symName: __ZNKSt3__116reverse_iteratorIP9QueryItemEdeB7v160006Ev, symObjAddr: 0x1E36C, symBinAddr: 0x100026E88, symSize: 0x28 }
  - { offsetInCU: 0x42572, offset: 0x5971A, size: 0x8, addend: 0x0, symName: __ZNSt3__116reverse_iteratorIP9QueryItemEppB7v160006Ev, symObjAddr: 0x1E394, symBinAddr: 0x100026EB0, symSize: 0x20 }
  - { offsetInCU: 0x42598, offset: 0x59740, size: 0x8, addend: 0x0, symName: __ZNSt3__128__exception_guard_exceptionsINS_29_AllocatorDestroyRangeReverseINS_9allocatorI9QueryItemEENS_16reverse_iteratorIPS3_EEEEE10__completeB7v160006Ev, symObjAddr: 0x1E3B4, symBinAddr: 0x100026ED0, symSize: 0x1C }
  - { offsetInCU: 0x425BE, offset: 0x59766, size: 0x8, addend: 0x0, symName: __ZNSt3__128__exception_guard_exceptionsINS_29_AllocatorDestroyRangeReverseINS_9allocatorI9QueryItemEENS_16reverse_iteratorIPS3_EEEEED1B7v160006Ev, symObjAddr: 0x1E3D0, symBinAddr: 0x100026EEC, symSize: 0x2C }
  - { offsetInCU: 0x425E8, offset: 0x59790, size: 0x8, addend: 0x0, symName: __ZNSt3__128__exception_guard_exceptionsINS_29_AllocatorDestroyRangeReverseINS_9allocatorI9QueryItemEENS_16reverse_iteratorIPS3_EEEEEC1B7v160006ES8_, symObjAddr: 0x1E3FC, symBinAddr: 0x100026F18, symSize: 0x34 }
  - { offsetInCU: 0x42621, offset: 0x597C9, size: 0x8, addend: 0x0, symName: __ZNSt3__128__exception_guard_exceptionsINS_29_AllocatorDestroyRangeReverseINS_9allocatorI9QueryItemEENS_16reverse_iteratorIPS3_EEEEEC2B7v160006ES8_, symObjAddr: 0x1E430, symBinAddr: 0x100026F4C, symSize: 0x30 }
  - { offsetInCU: 0x4265A, offset: 0x59802, size: 0x8, addend: 0x0, symName: __ZNSt3__129_AllocatorDestroyRangeReverseINS_9allocatorI9QueryItemEENS_16reverse_iteratorIPS2_EEEC2B7v160006ERS3_RS6_S9_, symObjAddr: 0x1E460, symBinAddr: 0x100026F7C, symSize: 0x38 }
  - { offsetInCU: 0x426B1, offset: 0x59859, size: 0x8, addend: 0x0, symName: __ZNSt3__19allocatorI9QueryItemE9constructB7v160006IS1_JS1_EEEvPT_DpOT0_, symObjAddr: 0x1E498, symBinAddr: 0x100026FB4, symSize: 0x30 }
  - { offsetInCU: 0x42707, offset: 0x598AF, size: 0x8, addend: 0x0, symName: __ZN9QueryItemC1EOS_, symObjAddr: 0x1E4C8, symBinAddr: 0x100026FE4, symSize: 0x34 }
  - { offsetInCU: 0x4273C, offset: 0x598E4, size: 0x8, addend: 0x0, symName: __ZN9QueryItemC2EOS_, symObjAddr: 0x1E4FC, symBinAddr: 0x100027018, symSize: 0x48 }
  - { offsetInCU: 0x42771, offset: 0x59919, size: 0x8, addend: 0x0, symName: __ZNSt3__16vectorINS_12basic_stringIcNS_11char_traitsIcEENS_9allocatorIcEEEENS4_IS6_EEEC1B7v160006EOS8_, symObjAddr: 0x1E544, symBinAddr: 0x100027060, symSize: 0x34 }
  - { offsetInCU: 0x427B1, offset: 0x59959, size: 0x8, addend: 0x0, symName: __ZNSt3__119__to_address_helperINS_16reverse_iteratorIP9QueryItemEEvE6__callB7v160006ERKS4_, symObjAddr: 0x1E578, symBinAddr: 0x100027094, symSize: 0x38 }
  - { offsetInCU: 0x427D4, offset: 0x5997C, size: 0x8, addend: 0x0, symName: __ZNKSt3__116reverse_iteratorIP9QueryItemEptB7v160006Ev, symObjAddr: 0x1E5B0, symBinAddr: 0x1000270CC, symSize: 0x24 }
  - { offsetInCU: 0x427FA, offset: 0x599A2, size: 0x8, addend: 0x0, symName: __ZNSt3__128__exception_guard_exceptionsINS_29_AllocatorDestroyRangeReverseINS_9allocatorI9QueryItemEENS_16reverse_iteratorIPS3_EEEEED2B7v160006Ev, symObjAddr: 0x1E5D4, symBinAddr: 0x1000270F0, symSize: 0x50 }
  - { offsetInCU: 0x42824, offset: 0x599CC, size: 0x8, addend: 0x0, symName: __ZNKSt3__129_AllocatorDestroyRangeReverseINS_9allocatorI9QueryItemEENS_16reverse_iteratorIPS2_EEEclB7v160006Ev, symObjAddr: 0x1E624, symBinAddr: 0x100027140, symSize: 0xB4 }
  - { offsetInCU: 0x4284B, offset: 0x599F3, size: 0x8, addend: 0x0, symName: __ZNSt3__116reverse_iteratorINS0_IP9QueryItemEEEC1B7v160006ES3_, symObjAddr: 0x1E748, symBinAddr: 0x100027264, symSize: 0x3C }
  - { offsetInCU: 0x42883, offset: 0x59A2B, size: 0x8, addend: 0x0, symName: __ZNSt3__116allocator_traitsINS_9allocatorI9QueryItemEEE7destroyB7v160006IS2_vEEvRS3_PT_, symObjAddr: 0x1E7E4, symBinAddr: 0x100027300, symSize: 0x2C }
  - { offsetInCU: 0x428C0, offset: 0x59A68, size: 0x8, addend: 0x0, symName: __ZNSt3__116reverse_iteratorINS0_IP9QueryItemEEEppB7v160006Ev, symObjAddr: 0x1E834, symBinAddr: 0x100027350, symSize: 0x30 }
  - { offsetInCU: 0x428E6, offset: 0x59A8E, size: 0x8, addend: 0x0, symName: __ZNKSt3__116reverse_iteratorINS0_IP9QueryItemEEE4baseB7v160006Ev, symObjAddr: 0x1E864, symBinAddr: 0x100027380, symSize: 0x24 }
  - { offsetInCU: 0x4290C, offset: 0x59AB4, size: 0x8, addend: 0x0, symName: __ZNSt3__19allocatorI9QueryItemE7destroyB7v160006EPS1_, symObjAddr: 0x1E888, symBinAddr: 0x1000273A4, symSize: 0x28 }
  - { offsetInCU: 0x42945, offset: 0x59AED, size: 0x8, addend: 0x0, symName: __ZNSt3__119__to_address_helperINS_16reverse_iteratorINS1_IP9QueryItemEEEEvE6__callB7v160006ERKS5_, symObjAddr: 0x1E8B0, symBinAddr: 0x1000273CC, symSize: 0x38 }
  - { offsetInCU: 0x42968, offset: 0x59B10, size: 0x8, addend: 0x0, symName: __ZNKSt3__116reverse_iteratorINS0_IP9QueryItemEEEptB7v160006Ev, symObjAddr: 0x1E8E8, symBinAddr: 0x100027404, symSize: 0x24 }
  - { offsetInCU: 0x4298E, offset: 0x59B36, size: 0x8, addend: 0x0, symName: __ZNKSt3__116reverse_iteratorINS0_IP9QueryItemEEEdeB7v160006Ev, symObjAddr: 0x1E90C, symBinAddr: 0x100027428, symSize: 0x34 }
  - { offsetInCU: 0x429C2, offset: 0x59B6A, size: 0x8, addend: 0x0, symName: __ZNSt3__116reverse_iteratorIP9QueryItemEmmB7v160006Ev, symObjAddr: 0x1E940, symBinAddr: 0x10002745C, symSize: 0x20 }
  - { offsetInCU: 0x429E8, offset: 0x59B90, size: 0x8, addend: 0x0, symName: __ZNSt3__116reverse_iteratorINS0_IP9QueryItemEEEC2B7v160006ES3_, symObjAddr: 0x1E960, symBinAddr: 0x10002747C, symSize: 0x2C }
  - { offsetInCU: 0x42A20, offset: 0x59BC8, size: 0x8, addend: 0x0, symName: __ZNSt3__116reverse_iteratorIP9QueryItemEC2B7v160006ES2_, symObjAddr: 0x1E98C, symBinAddr: 0x1000274A8, symSize: 0x28 }
  - { offsetInCU: 0x42A58, offset: 0x59C00, size: 0x8, addend: 0x0, symName: __ZNSt3__114__split_bufferI9QueryItemRNS_9allocatorIS1_EEED2Ev, symObjAddr: 0x1E9B4, symBinAddr: 0x1000274D0, symSize: 0x8C }
  - { offsetInCU: 0x42A84, offset: 0x59C2C, size: 0x8, addend: 0x0, symName: __ZNSt3__114__split_bufferI9QueryItemRNS_9allocatorIS1_EEE5clearB7v160006Ev, symObjAddr: 0x1EA40, symBinAddr: 0x10002755C, symSize: 0x28 }
  - { offsetInCU: 0x42AAA, offset: 0x59C52, size: 0x8, addend: 0x0, symName: __ZNSt3__116allocator_traitsINS_9allocatorI9QueryItemEEE10deallocateB7v160006ERS3_PS2_m, symObjAddr: 0x1EA68, symBinAddr: 0x100027584, symSize: 0x34 }
  - { offsetInCU: 0x42AEC, offset: 0x59C94, size: 0x8, addend: 0x0, symName: __ZNKSt3__114__split_bufferI9QueryItemRNS_9allocatorIS1_EEE8capacityB7v160006Ev, symObjAddr: 0x1EA9C, symBinAddr: 0x1000275B8, symSize: 0x40 }
  - { offsetInCU: 0x42B12, offset: 0x59CBA, size: 0x8, addend: 0x0, symName: __ZNSt3__114__split_bufferI9QueryItemRNS_9allocatorIS1_EEE17__destruct_at_endB7v160006EPS1_, symObjAddr: 0x1EADC, symBinAddr: 0x1000275F8, symSize: 0x2C }
  - { offsetInCU: 0x42B46, offset: 0x59CEE, size: 0x8, addend: 0x0, symName: __ZNSt3__114__split_bufferI9QueryItemRNS_9allocatorIS1_EEE17__destruct_at_endB7v160006EPS1_NS_17integral_constantIbLb0EEE, symObjAddr: 0x1EB08, symBinAddr: 0x100027624, symSize: 0x80 }
  - { offsetInCU: 0x42B87, offset: 0x59D2F, size: 0x8, addend: 0x0, symName: __ZNSt3__19allocatorI9QueryItemE10deallocateB7v160006EPS1_m, symObjAddr: 0x1EB88, symBinAddr: 0x1000276A4, symSize: 0x44 }
  - { offsetInCU: 0x42BC9, offset: 0x59D71, size: 0x8, addend: 0x0, symName: __ZNKSt3__114__split_bufferI9QueryItemRNS_9allocatorIS1_EEE9__end_capB7v160006Ev, symObjAddr: 0x1EBCC, symBinAddr: 0x1000276E8, symSize: 0x28 }
  - { offsetInCU: 0x42BEF, offset: 0x59D97, size: 0x8, addend: 0x0, symName: __ZNKSt3__117__compressed_pairIP9QueryItemRNS_9allocatorIS1_EEE5firstB7v160006Ev, symObjAddr: 0x1EBF4, symBinAddr: 0x100027710, symSize: 0x24 }
  - { offsetInCU: 0x42C15, offset: 0x59DBD, size: 0x8, addend: 0x0, symName: __ZNSt3__16vectorI9QueryItemNS_9allocatorIS1_EEE11__make_iterB7v160006EPS1_, symObjAddr: 0x1EC18, symBinAddr: 0x100027734, symSize: 0x34 }
  - { offsetInCU: 0x42C4A, offset: 0x59DF2, size: 0x8, addend: 0x0, symName: __ZNSt3__111__wrap_iterIP9QueryItemEC1B7v160006EPKvS2_, symObjAddr: 0x1EC4C, symBinAddr: 0x100027768, symSize: 0x3C }
  - { offsetInCU: 0x42C90, offset: 0x59E38, size: 0x8, addend: 0x0, symName: __ZNSt3__111__wrap_iterIP9QueryItemEC2B7v160006EPKvS2_, symObjAddr: 0x1EC88, symBinAddr: 0x1000277A4, symSize: 0x24 }
  - { offsetInCU: 0x42CD6, offset: 0x59E7E, size: 0x8, addend: 0x0, symName: __ZNKSt3__111__wrap_iterIP9QueryItemE4baseB7v160006Ev, symObjAddr: 0x1ECF4, symBinAddr: 0x100027810, symSize: 0x18 }
  - { offsetInCU: 0x42CFC, offset: 0x59EA4, size: 0x8, addend: 0x0, symName: __ZN9QueryItemC2ERKS_, symObjAddr: 0x1ED0C, symBinAddr: 0x100027828, symSize: 0x70 }
  - { offsetInCU: 0x42D3B, offset: 0x59EE3, size: 0x8, addend: 0x0, symName: __ZN6HeaderaSERKS_, symObjAddr: 0x1ED7C, symBinAddr: 0x100027898, symSize: 0x34 }
  - { offsetInCU: 0x42D6C, offset: 0x59F14, size: 0x8, addend: 0x0, symName: __ZNSt3__16vectorI3RowNS_9allocatorIS1_EEEaSB7v160006ERKS4_, symObjAddr: 0x1EDB0, symBinAddr: 0x1000278CC, symSize: 0x68 }
  - { offsetInCU: 0x42DA3, offset: 0x59F4B, size: 0x8, addend: 0x0, symName: __ZNSt3__16vectorI3RowNS_9allocatorIS1_EEE19__copy_assign_allocB7v160006ERKS4_, symObjAddr: 0x1EE18, symBinAddr: 0x100027934, symSize: 0x2C }
  - { offsetInCU: 0x42DD8, offset: 0x59F80, size: 0x8, addend: 0x0, symName: __ZNSt3__16vectorI3RowNS_9allocatorIS1_EEE6assignIPS1_Li0EEEvT_S7_, symObjAddr: 0x1EE44, symBinAddr: 0x100027960, symSize: 0x17C }
  - { offsetInCU: 0x42E77, offset: 0x5A01F, size: 0x8, addend: 0x0, symName: __ZNSt3__16vectorI3RowNS_9allocatorIS1_EEE19__copy_assign_allocB7v160006ERKS4_NS_17integral_constantIbLb0EEE, symObjAddr: 0x1EFC0, symBinAddr: 0x100027ADC, symSize: 0x14 }
  - { offsetInCU: 0x42EB3, offset: 0x5A05B, size: 0x8, addend: 0x0, symName: __ZNSt3__16vectorI3RowNS_9allocatorIS1_EEE18__construct_at_endIPS1_Li0EEEvT_S7_m, symObjAddr: 0x1F090, symBinAddr: 0x100027BAC, symSize: 0x8C }
  - { offsetInCU: 0x42F26, offset: 0x5A0CE, size: 0x8, addend: 0x0, symName: __ZNSt3__16vectorI3RowNS_9allocatorIS1_EEE17__destruct_at_endB7v160006EPS1_, symObjAddr: 0x1F11C, symBinAddr: 0x100027C38, symSize: 0x60 }
  - { offsetInCU: 0x42F6A, offset: 0x5A112, size: 0x8, addend: 0x0, symName: __ZNSt3__16vectorI3RowNS_9allocatorIS1_EEE11__vallocateB7v160006Em, symObjAddr: 0x1F17C, symBinAddr: 0x100027C98, symSize: 0xB4 }
  - { offsetInCU: 0x42FC7, offset: 0x5A16F, size: 0x8, addend: 0x0, symName: __ZNKSt3__111__copy_loopINS_17_ClassicAlgPolicyEEclB7v160006IP3RowS5_S5_EENS_4pairIT_T1_EES7_T0_S8_, symObjAddr: 0x1F424, symBinAddr: 0x100027F40, symSize: 0x88 }
  - { offsetInCU: 0x43032, offset: 0x5A1DA, size: 0x8, addend: 0x0, symName: __ZN3RowaSERKS_, symObjAddr: 0x1F570, symBinAddr: 0x10002808C, symSize: 0x34 }
  - { offsetInCU: 0x43063, offset: 0x5A20B, size: 0x8, addend: 0x0, symName: __ZNSt3__118__unwrap_iter_implIP3RowLb1EE8__unwrapB7v160006ES2_, symObjAddr: 0x1F5A4, symBinAddr: 0x1000280C0, symSize: 0x24 }
  - { offsetInCU: 0x4308B, offset: 0x5A233, size: 0x8, addend: 0x0, symName: __ZNSt3__14pairIP3RowS2_EC1B7v160006IS2_S2_LPv0EEEOT_OT0_, symObjAddr: 0x1F5C8, symBinAddr: 0x1000280E4, symSize: 0x3C }
  - { offsetInCU: 0x430E9, offset: 0x5A291, size: 0x8, addend: 0x0, symName: __ZNSt3__14pairIP3RowS2_EC2B7v160006IS2_S2_LPv0EEEOT_OT0_, symObjAddr: 0x1F604, symBinAddr: 0x100028120, symSize: 0x34 }
  - { offsetInCU: 0x43147, offset: 0x5A2EF, size: 0x8, addend: 0x0, symName: __ZNSt3__118__unwrap_iter_implIP3RowLb1EE8__rewrapB7v160006ES2_S2_, symObjAddr: 0x1F638, symBinAddr: 0x100028154, symSize: 0x58 }
  - { offsetInCU: 0x43178, offset: 0x5A320, size: 0x8, addend: 0x0, symName: __ZNSt3__129_AllocatorDestroyRangeReverseINS_9allocatorI3RowEEPS2_EC1B7v160006ERS3_RS4_S7_, symObjAddr: 0x1F7D0, symBinAddr: 0x1000282EC, symSize: 0x44 }
  - { offsetInCU: 0x431CF, offset: 0x5A377, size: 0x8, addend: 0x0, symName: __ZNSt3__116allocator_traitsINS_9allocatorI3RowEEE9constructB7v160006IS2_JRS2_EvEEvRS3_PT_DpOT0_, symObjAddr: 0x1F814, symBinAddr: 0x100028330, symSize: 0x34 }
  - { offsetInCU: 0x43226, offset: 0x5A3CE, size: 0x8, addend: 0x0, symName: __ZNSt3__128__exception_guard_exceptionsINS_29_AllocatorDestroyRangeReverseINS_9allocatorI3RowEEPS3_EEE10__completeB7v160006Ev, symObjAddr: 0x1F848, symBinAddr: 0x100028364, symSize: 0x1C }
  - { offsetInCU: 0x4324C, offset: 0x5A3F4, size: 0x8, addend: 0x0, symName: __ZNSt3__128__exception_guard_exceptionsINS_29_AllocatorDestroyRangeReverseINS_9allocatorI3RowEEPS3_EEED1B7v160006Ev, symObjAddr: 0x1F864, symBinAddr: 0x100028380, symSize: 0x2C }
  - { offsetInCU: 0x43276, offset: 0x5A41E, size: 0x8, addend: 0x0, symName: __ZNSt3__128__exception_guard_exceptionsINS_29_AllocatorDestroyRangeReverseINS_9allocatorI3RowEEPS3_EEEC1B7v160006ES6_, symObjAddr: 0x1F890, symBinAddr: 0x1000283AC, symSize: 0x34 }
  - { offsetInCU: 0x432AF, offset: 0x5A457, size: 0x8, addend: 0x0, symName: __ZNSt3__128__exception_guard_exceptionsINS_29_AllocatorDestroyRangeReverseINS_9allocatorI3RowEEPS3_EEEC2B7v160006ES6_, symObjAddr: 0x1F8C4, symBinAddr: 0x1000283E0, symSize: 0x30 }
  - { offsetInCU: 0x432E8, offset: 0x5A490, size: 0x8, addend: 0x0, symName: __ZNSt3__129_AllocatorDestroyRangeReverseINS_9allocatorI3RowEEPS2_EC2B7v160006ERS3_RS4_S7_, symObjAddr: 0x1F8F4, symBinAddr: 0x100028410, symSize: 0x38 }
  - { offsetInCU: 0x4333F, offset: 0x5A4E7, size: 0x8, addend: 0x0, symName: __ZNSt3__19allocatorI3RowE9constructB7v160006IS1_JRS1_EEEvPT_DpOT0_, symObjAddr: 0x1F92C, symBinAddr: 0x100028448, symSize: 0x30 }
  - { offsetInCU: 0x43395, offset: 0x5A53D, size: 0x8, addend: 0x0, symName: __ZNSt3__128__exception_guard_exceptionsINS_29_AllocatorDestroyRangeReverseINS_9allocatorI3RowEEPS3_EEED2B7v160006Ev, symObjAddr: 0x1F95C, symBinAddr: 0x100028478, symSize: 0x50 }
  - { offsetInCU: 0x433BF, offset: 0x5A567, size: 0x8, addend: 0x0, symName: __ZNKSt3__129_AllocatorDestroyRangeReverseINS_9allocatorI3RowEEPS2_EclB7v160006Ev, symObjAddr: 0x1F9AC, symBinAddr: 0x1000284C8, symSize: 0x68 }
  - { offsetInCU: 0x433E5, offset: 0x5A58D, size: 0x8, addend: 0x0, symName: __ZNSt3__16vectorI3RowNS_9allocatorIS1_EEE27__invalidate_iterators_pastB7v160006EPS1_, symObjAddr: 0x1FA84, symBinAddr: 0x1000285A0, symSize: 0x14 }
  - { offsetInCU: 0x4341C, offset: 0x5A5C4, size: 0x8, addend: 0x0, symName: __ZNKSt3__16vectorINS_12basic_stringIcNS_11char_traitsIcEENS_9allocatorIcEEEENS4_IS6_EEE20__throw_out_of_rangeB7v160006Ev, symObjAddr: 0x1FA98, symBinAddr: 0x1000285B4, symSize: 0x1C }
  - { offsetInCU: 0x43442, offset: 0x5A5EA, size: 0x8, addend: 0x0, symName: __ZNSt3__111char_traitsIcE4findEPKcmRS2_, symObjAddr: 0x1FD20, symBinAddr: 0x100028808, symSize: 0x70 }
  - { offsetInCU: 0x43481, offset: 0x5A629, size: 0x8, addend: 0x0, symName: __ZNSt3__16vectorI3RowNS_9allocatorIS1_EEE2atEm, symObjAddr: 0x1FDE8, symBinAddr: 0x1000288AC, symSize: 0x68 }
  - { offsetInCU: 0x434B8, offset: 0x5A660, size: 0x8, addend: 0x0, symName: __ZNKSt3__16vectorI3RowNS_9allocatorIS1_EEE20__throw_out_of_rangeB7v160006Ev, symObjAddr: 0x1FE50, symBinAddr: 0x100028914, symSize: 0x1C }
  - { offsetInCU: 0x434DE, offset: 0x5A686, size: 0x8, addend: 0x0, symName: __ZNSt3__13mapINS_12basic_stringIcNS_11char_traitsIcEENS_9allocatorIcEEEEiNS_4lessIS6_EENS4_INS_4pairIKS6_iEEEEEC1B7v160006Ev, symObjAddr: 0x1FE6C, symBinAddr: 0x100028930, symSize: 0x2C }
  - { offsetInCU: 0x43508, offset: 0x5A6B0, size: 0x8, addend: 0x0, symName: __ZNSt3__13mapINS_12basic_stringIcNS_11char_traitsIcEENS_9allocatorIcEEEEiNS_4lessIS6_EENS4_INS_4pairIKS6_iEEEEE4findB7v160006ERSA_, symObjAddr: 0x1FEC8, symBinAddr: 0x10002898C, symSize: 0x40 }
  - { offsetInCU: 0x4353D, offset: 0x5A6E5, size: 0x8, addend: 0x0, symName: __ZNSt3__13mapINS_12basic_stringIcNS_11char_traitsIcEENS_9allocatorIcEEEEiNS_4lessIS6_EENS4_INS_4pairIKS6_iEEEEE3endB7v160006Ev, symObjAddr: 0x1FF08, symBinAddr: 0x1000289CC, symSize: 0x38 }
  - { offsetInCU: 0x43563, offset: 0x5A70B, size: 0x8, addend: 0x0, symName: __ZNSt3__13mapINS_12basic_stringIcNS_11char_traitsIcEENS_9allocatorIcEEEEiNS_4lessIS6_EENS4_INS_4pairIKS6_iEEEEEixERSA_, symObjAddr: 0x1FF40, symBinAddr: 0x100028A04, symSize: 0x80 }
  - { offsetInCU: 0x4359A, offset: 0x5A742, size: 0x8, addend: 0x0, symName: __ZNSt3__16vectorI3RowNS_9allocatorIS1_EEE5beginB7v160006Ev, symObjAddr: 0x1FFFC, symBinAddr: 0x100028AC0, symSize: 0x30 }
  - { offsetInCU: 0x435C2, offset: 0x5A76A, size: 0x8, addend: 0x0, symName: __ZNSt3__16vectorI3RowNS_9allocatorIS1_EEE3endB7v160006Ev, symObjAddr: 0x2002C, symBinAddr: 0x100028AF0, symSize: 0x30 }
  - { offsetInCU: 0x435EA, offset: 0x5A792, size: 0x8, addend: 0x0, symName: __ZNSt3__16vectorI3RowNS_9allocatorIS1_EEE5eraseENS_11__wrap_iterIPKS1_EES8_, symObjAddr: 0x2005C, symBinAddr: 0x100028B20, symSize: 0xF0 }
  - { offsetInCU: 0x43649, offset: 0x5A7F1, size: 0x8, addend: 0x0, symName: __ZNSt3__111__wrap_iterIPK3RowEC1B7v160006IPS1_EERKNS0_IT_EEPNS_9enable_ifIXsr14is_convertibleIS7_S3_EE5valueEvE4typeE, symObjAddr: 0x20190, symBinAddr: 0x100028C54, symSize: 0x3C }
  - { offsetInCU: 0x43695, offset: 0x5A83D, size: 0x8, addend: 0x0, symName: __ZNSt3__13mapINS_12basic_stringIcNS_11char_traitsIcEENS_9allocatorIcEEEEiNS_4lessIS6_EENS4_INS_4pairIKS6_iEEEEED1B7v160006Ev, symObjAddr: 0x201CC, symBinAddr: 0x100028C90, symSize: 0x2C }
  - { offsetInCU: 0x436BF, offset: 0x5A867, size: 0x8, addend: 0x0, symName: __ZNSt3__13mapINS_12basic_stringIcNS_11char_traitsIcEENS_9allocatorIcEEEEiNS_4lessIS6_EENS4_INS_4pairIKS6_iEEEEEC2B7v160006Ev, symObjAddr: 0x201F8, symBinAddr: 0x100028CBC, symSize: 0x40 }
  - { offsetInCU: 0x436E9, offset: 0x5A891, size: 0x8, addend: 0x0, symName: __ZNSt3__119__map_value_compareINS_12basic_stringIcNS_11char_traitsIcEENS_9allocatorIcEEEENS_12__value_typeIS6_iEENS_4lessIS6_EELb1EEC1B7v160006ESA_, symObjAddr: 0x20238, symBinAddr: 0x100028CFC, symSize: 0x2C }
  - { offsetInCU: 0x43722, offset: 0x5A8CA, size: 0x8, addend: 0x0, symName: __ZNSt3__16__treeINS_12__value_typeINS_12basic_stringIcNS_11char_traitsIcEENS_9allocatorIcEEEEiEENS_19__map_value_compareIS7_S8_NS_4lessIS7_EELb1EEENS5_IS8_EEEC1ERKSC_, symObjAddr: 0x20264, symBinAddr: 0x100028D28, symSize: 0x34 }
  - { offsetInCU: 0x4375D, offset: 0x5A905, size: 0x8, addend: 0x0, symName: __ZNSt3__119__map_value_compareINS_12basic_stringIcNS_11char_traitsIcEENS_9allocatorIcEEEENS_12__value_typeIS6_iEENS_4lessIS6_EELb1EEC2B7v160006ESA_, symObjAddr: 0x20298, symBinAddr: 0x100028D5C, symSize: 0x14 }
  - { offsetInCU: 0x43796, offset: 0x5A93E, size: 0x8, addend: 0x0, symName: __ZNSt3__16__treeINS_12__value_typeINS_12basic_stringIcNS_11char_traitsIcEENS_9allocatorIcEEEEiEENS_19__map_value_compareIS7_S8_NS_4lessIS7_EELb1EEENS5_IS8_EEEC2ERKSC_, symObjAddr: 0x202AC, symBinAddr: 0x100028D70, symSize: 0x7C }
  - { offsetInCU: 0x437D1, offset: 0x5A979, size: 0x8, addend: 0x0, symName: __ZNSt3__117__compressed_pairINS_15__tree_end_nodeIPNS_16__tree_node_baseIPvEEEENS_9allocatorINS_11__tree_nodeINS_12__value_typeINS_12basic_stringIcNS_11char_traitsIcEENS7_IcEEEEiEES3_EEEEEC1B7v160006ILb1EvEEv, symObjAddr: 0x20328, symBinAddr: 0x100028DEC, symSize: 0x2C }
  - { offsetInCU: 0x43806, offset: 0x5A9AE, size: 0x8, addend: 0x0, symName: __ZNSt3__117__compressed_pairImNS_19__map_value_compareINS_12basic_stringIcNS_11char_traitsIcEENS_9allocatorIcEEEENS_12__value_typeIS7_iEENS_4lessIS7_EELb1EEEEC1B7v160006IiRKSC_EEOT_OT0_, symObjAddr: 0x20354, symBinAddr: 0x100028E18, symSize: 0x3C }
  - { offsetInCU: 0x4385E, offset: 0x5AA06, size: 0x8, addend: 0x0, symName: __ZNSt3__16__treeINS_12__value_typeINS_12basic_stringIcNS_11char_traitsIcEENS_9allocatorIcEEEEiEENS_19__map_value_compareIS7_S8_NS_4lessIS7_EELb1EEENS5_IS8_EEE10__end_nodeB7v160006Ev, symObjAddr: 0x20390, symBinAddr: 0x100028E54, symSize: 0x2C }
  - { offsetInCU: 0x43884, offset: 0x5AA2C, size: 0x8, addend: 0x0, symName: __ZNSt3__16__treeINS_12__value_typeINS_12basic_stringIcNS_11char_traitsIcEENS_9allocatorIcEEEEiEENS_19__map_value_compareIS7_S8_NS_4lessIS7_EELb1EEENS5_IS8_EEE12__begin_nodeB7v160006Ev, symObjAddr: 0x203BC, symBinAddr: 0x100028E80, symSize: 0x14 }
  - { offsetInCU: 0x438AA, offset: 0x5AA52, size: 0x8, addend: 0x0, symName: __ZNSt3__117__compressed_pairINS_15__tree_end_nodeIPNS_16__tree_node_baseIPvEEEENS_9allocatorINS_11__tree_nodeINS_12__value_typeINS_12basic_stringIcNS_11char_traitsIcEENS7_IcEEEEiEES3_EEEEEC2B7v160006ILb1EvEEv, symObjAddr: 0x203D0, symBinAddr: 0x100028E94, symSize: 0x34 }
  - { offsetInCU: 0x438DF, offset: 0x5AA87, size: 0x8, addend: 0x0, symName: __ZNSt3__122__compressed_pair_elemINS_9allocatorINS_11__tree_nodeINS_12__value_typeINS_12basic_stringIcNS_11char_traitsIcEENS1_IcEEEEiEEPvEEEELi1ELb1EEC2B7v160006ENS_16__value_init_tagE, symObjAddr: 0x20404, symBinAddr: 0x100028EC8, symSize: 0x2C }
  - { offsetInCU: 0x43914, offset: 0x5AABC, size: 0x8, addend: 0x0, symName: __ZNSt3__19allocatorINS_11__tree_nodeINS_12__value_typeINS_12basic_stringIcNS_11char_traitsIcEENS0_IcEEEEiEEPvEEEC2B7v160006Ev, symObjAddr: 0x20430, symBinAddr: 0x100028EF4, symSize: 0x2C }
  - { offsetInCU: 0x4393E, offset: 0x5AAE6, size: 0x8, addend: 0x0, symName: __ZNSt3__116__non_trivial_ifILb1ENS_9allocatorINS_11__tree_nodeINS_12__value_typeINS_12basic_stringIcNS_11char_traitsIcEENS1_IcEEEEiEEPvEEEEEC2B7v160006Ev, symObjAddr: 0x2045C, symBinAddr: 0x100028F20, symSize: 0x14 }
  - { offsetInCU: 0x43968, offset: 0x5AB10, size: 0x8, addend: 0x0, symName: __ZNSt3__117__compressed_pairImNS_19__map_value_compareINS_12basic_stringIcNS_11char_traitsIcEENS_9allocatorIcEEEENS_12__value_typeIS7_iEENS_4lessIS7_EELb1EEEEC2B7v160006IiRKSC_EEOT_OT0_, symObjAddr: 0x20470, symBinAddr: 0x100028F34, symSize: 0x44 }
  - { offsetInCU: 0x439C0, offset: 0x5AB68, size: 0x8, addend: 0x0, symName: __ZNSt3__122__compressed_pair_elemINS_19__map_value_compareINS_12basic_stringIcNS_11char_traitsIcEENS_9allocatorIcEEEENS_12__value_typeIS7_iEENS_4lessIS7_EELb1EEELi1ELb1EEC2B7v160006IRKSC_vEEOT_, symObjAddr: 0x204B4, symBinAddr: 0x100028F78, symSize: 0x18 }
  - { offsetInCU: 0x43A02, offset: 0x5ABAA, size: 0x8, addend: 0x0, symName: __ZNSt3__117__compressed_pairINS_15__tree_end_nodeIPNS_16__tree_node_baseIPvEEEENS_9allocatorINS_11__tree_nodeINS_12__value_typeINS_12basic_stringIcNS_11char_traitsIcEENS7_IcEEEEiEES3_EEEEE5firstB7v160006Ev, symObjAddr: 0x204CC, symBinAddr: 0x100028F90, symSize: 0x24 }
  - { offsetInCU: 0x43A28, offset: 0x5ABD0, size: 0x8, addend: 0x0, symName: __ZNSt3__16__treeINS_12__value_typeINS_12basic_stringIcNS_11char_traitsIcEENS_9allocatorIcEEEEiEENS_19__map_value_compareIS7_S8_NS_4lessIS7_EELb1EEENS5_IS8_EEE4findIS7_EENS_15__tree_iteratorIS8_PNS_11__tree_nodeIS8_PvEElEERKT_, symObjAddr: 0x20520, symBinAddr: 0x100028FE4, symSize: 0xF8 }
  - { offsetInCU: 0x43A77, offset: 0x5AC1F, size: 0x8, addend: 0x0, symName: __ZNSt3__114__map_iteratorINS_15__tree_iteratorINS_12__value_typeINS_12basic_stringIcNS_11char_traitsIcEENS_9allocatorIcEEEEiEEPNS_11__tree_nodeIS9_PvEElEEEC1B7v160006ESE_, symObjAddr: 0x20618, symBinAddr: 0x1000290DC, symSize: 0x34 }
  - { offsetInCU: 0x43AB0, offset: 0x5AC58, size: 0x8, addend: 0x0, symName: __ZNSt3__16__treeINS_12__value_typeINS_12basic_stringIcNS_11char_traitsIcEENS_9allocatorIcEEEEiEENS_19__map_value_compareIS7_S8_NS_4lessIS7_EELb1EEENS5_IS8_EEE13__lower_boundIS7_EENS_15__tree_iteratorIS8_PNS_11__tree_nodeIS8_PvEElEERKT_SK_PNS_15__tree_end_nodeIPNS_16__tree_node_baseISI_EEEE, symObjAddr: 0x2064C, symBinAddr: 0x100029110, symSize: 0xA4 }
  - { offsetInCU: 0x43B0E, offset: 0x5ACB6, size: 0x8, addend: 0x0, symName: __ZNKSt3__16__treeINS_12__value_typeINS_12basic_stringIcNS_11char_traitsIcEENS_9allocatorIcEEEEiEENS_19__map_value_compareIS7_S8_NS_4lessIS7_EELb1EEENS5_IS8_EEE6__rootB7v160006Ev, symObjAddr: 0x206F0, symBinAddr: 0x1000291B4, symSize: 0x28 }
  - { offsetInCU: 0x43B34, offset: 0x5ACDC, size: 0x8, addend: 0x0, symName: __ZNSt3__16__treeINS_12__value_typeINS_12basic_stringIcNS_11char_traitsIcEENS_9allocatorIcEEEEiEENS_19__map_value_compareIS7_S8_NS_4lessIS7_EELb1EEENS5_IS8_EEE3endB7v160006Ev, symObjAddr: 0x2074C, symBinAddr: 0x100029210, symSize: 0x34 }
  - { offsetInCU: 0x43B5A, offset: 0x5AD02, size: 0x8, addend: 0x0, symName: __ZNSt3__16__treeINS_12__value_typeINS_12basic_stringIcNS_11char_traitsIcEENS_9allocatorIcEEEEiEENS_19__map_value_compareIS7_S8_NS_4lessIS7_EELb1EEENS5_IS8_EEE10value_compB7v160006Ev, symObjAddr: 0x20780, symBinAddr: 0x100029244, symSize: 0x28 }
  - { offsetInCU: 0x43B80, offset: 0x5AD28, size: 0x8, addend: 0x0, symName: __ZNKSt3__119__map_value_compareINS_12basic_stringIcNS_11char_traitsIcEENS_9allocatorIcEEEENS_12__value_typeIS6_iEENS_4lessIS6_EELb1EEclB7v160006ERKS6_RKS8_, symObjAddr: 0x207A8, symBinAddr: 0x10002926C, symSize: 0x50 }
  - { offsetInCU: 0x43BC4, offset: 0x5AD6C, size: 0x8, addend: 0x0, symName: __ZNKSt3__115__tree_iteratorINS_12__value_typeINS_12basic_stringIcNS_11char_traitsIcEENS_9allocatorIcEEEEiEEPNS_11__tree_nodeIS8_PvEElEdeB7v160006Ev, symObjAddr: 0x207F8, symBinAddr: 0x1000292BC, symSize: 0x28 }
  - { offsetInCU: 0x43BEA, offset: 0x5AD92, size: 0x8, addend: 0x0, symName: __ZNKSt3__119__map_value_compareINS_12basic_stringIcNS_11char_traitsIcEENS_9allocatorIcEEEENS_12__value_typeIS6_iEENS_4lessIS6_EELb1EEclB7v160006ERKS8_RKS6_, symObjAddr: 0x20820, symBinAddr: 0x1000292E4, symSize: 0x48 }
  - { offsetInCU: 0x43C2E, offset: 0x5ADD6, size: 0x8, addend: 0x0, symName: __ZNSt3__115__tree_iteratorINS_12__value_typeINS_12basic_stringIcNS_11char_traitsIcEENS_9allocatorIcEEEEiEEPNS_11__tree_nodeIS8_PvEElEC1B7v160006EPNS_15__tree_end_nodeIPNS_16__tree_node_baseISA_EEEE, symObjAddr: 0x20868, symBinAddr: 0x10002932C, symSize: 0x34 }
  - { offsetInCU: 0x43C67, offset: 0x5AE0F, size: 0x8, addend: 0x0, symName: __ZNKSt3__112__value_typeINS_12basic_stringIcNS_11char_traitsIcEENS_9allocatorIcEEEEiE11__get_valueB7v160006Ev, symObjAddr: 0x2089C, symBinAddr: 0x100029360, symSize: 0x24 }
  - { offsetInCU: 0x43C8D, offset: 0x5AE35, size: 0x8, addend: 0x0, symName: __ZNSt3__115__tree_iteratorINS_12__value_typeINS_12basic_stringIcNS_11char_traitsIcEENS_9allocatorIcEEEEiEEPNS_11__tree_nodeIS8_PvEElEC2B7v160006EPNS_15__tree_end_nodeIPNS_16__tree_node_baseISA_EEEE, symObjAddr: 0x208F8, symBinAddr: 0x1000293BC, symSize: 0x20 }
  - { offsetInCU: 0x43CC6, offset: 0x5AE6E, size: 0x8, addend: 0x0, symName: __ZNKSt3__16__treeINS_12__value_typeINS_12basic_stringIcNS_11char_traitsIcEENS_9allocatorIcEEEEiEENS_19__map_value_compareIS7_S8_NS_4lessIS7_EELb1EEENS5_IS8_EEE10__end_nodeB7v160006Ev, symObjAddr: 0x20918, symBinAddr: 0x1000293DC, symSize: 0x2C }
  - { offsetInCU: 0x43CEC, offset: 0x5AE94, size: 0x8, addend: 0x0, symName: __ZNKSt3__117__compressed_pairINS_15__tree_end_nodeIPNS_16__tree_node_baseIPvEEEENS_9allocatorINS_11__tree_nodeINS_12__value_typeINS_12basic_stringIcNS_11char_traitsIcEENS7_IcEEEEiEES3_EEEEE5firstB7v160006Ev, symObjAddr: 0x20944, symBinAddr: 0x100029408, symSize: 0x24 }
  - { offsetInCU: 0x43D12, offset: 0x5AEBA, size: 0x8, addend: 0x0, symName: __ZNSt3__117__compressed_pairImNS_19__map_value_compareINS_12basic_stringIcNS_11char_traitsIcEENS_9allocatorIcEEEENS_12__value_typeIS7_iEENS_4lessIS7_EELb1EEEE6secondB7v160006Ev, symObjAddr: 0x20968, symBinAddr: 0x10002942C, symSize: 0x24 }
  - { offsetInCU: 0x43D38, offset: 0x5AEE0, size: 0x8, addend: 0x0, symName: __ZNSt3__122__compressed_pair_elemINS_19__map_value_compareINS_12basic_stringIcNS_11char_traitsIcEENS_9allocatorIcEEEENS_12__value_typeIS7_iEENS_4lessIS7_EELb1EEELi1ELb1EE5__getB7v160006Ev, symObjAddr: 0x2098C, symBinAddr: 0x100029450, symSize: 0x14 }
  - { offsetInCU: 0x43D5E, offset: 0x5AF06, size: 0x8, addend: 0x0, symName: __ZNKSt3__115__tree_iteratorINS_12__value_typeINS_12basic_stringIcNS_11char_traitsIcEENS_9allocatorIcEEEEiEEPNS_11__tree_nodeIS8_PvEElE8__get_npB7v160006Ev, symObjAddr: 0x209A0, symBinAddr: 0x100029464, symSize: 0x18 }
  - { offsetInCU: 0x43D84, offset: 0x5AF2C, size: 0x8, addend: 0x0, symName: __ZNSt3__114__map_iteratorINS_15__tree_iteratorINS_12__value_typeINS_12basic_stringIcNS_11char_traitsIcEENS_9allocatorIcEEEEiEEPNS_11__tree_nodeIS9_PvEElEEEC2B7v160006ESE_, symObjAddr: 0x209B8, symBinAddr: 0x10002947C, symSize: 0x20 }
  - { offsetInCU: 0x43DBD, offset: 0x5AF65, size: 0x8, addend: 0x0, symName: __ZNSt3__16__treeINS_12__value_typeINS_12basic_stringIcNS_11char_traitsIcEENS_9allocatorIcEEEEiEENS_19__map_value_compareIS7_S8_NS_4lessIS7_EELb1EEENS5_IS8_EEE25__emplace_unique_key_argsIS7_JRKNS_21piecewise_construct_tENS_5tupleIJRKS7_EEENSJ_IJEEEEEENS_4pairINS_15__tree_iteratorIS8_PNS_11__tree_nodeIS8_PvEElEEbEERKT_DpOT0_, symObjAddr: 0x209D8, symBinAddr: 0x10002949C, symSize: 0x100 }
  - { offsetInCU: 0x43E93, offset: 0x5B03B, size: 0x8, addend: 0x0, symName: __ZNKSt3__115__tree_iteratorINS_12__value_typeINS_12basic_stringIcNS_11char_traitsIcEENS_9allocatorIcEEEEiEEPNS_11__tree_nodeIS8_PvEElEptB7v160006Ev, symObjAddr: 0x20AD8, symBinAddr: 0x10002959C, symSize: 0x2C }
  - { offsetInCU: 0x43EB9, offset: 0x5B061, size: 0x8, addend: 0x0, symName: __ZNSt3__112__value_typeINS_12basic_stringIcNS_11char_traitsIcEENS_9allocatorIcEEEEiE11__get_valueB7v160006Ev, symObjAddr: 0x20B04, symBinAddr: 0x1000295C8, symSize: 0x24 }
  - { offsetInCU: 0x43EDF, offset: 0x5B087, size: 0x8, addend: 0x0, symName: __ZNSt3__16__treeINS_12__value_typeINS_12basic_stringIcNS_11char_traitsIcEENS_9allocatorIcEEEEiEENS_19__map_value_compareIS7_S8_NS_4lessIS7_EELb1EEENS5_IS8_EEE12__find_equalIS7_EERPNS_16__tree_node_baseIPvEERPNS_15__tree_end_nodeISJ_EERKT_, symObjAddr: 0x20B28, symBinAddr: 0x1000295EC, symSize: 0x184 }
  - { offsetInCU: 0x43F4C, offset: 0x5B0F4, size: 0x8, addend: 0x0, symName: __ZNSt3__16__treeINS_12__value_typeINS_12basic_stringIcNS_11char_traitsIcEENS_9allocatorIcEEEEiEENS_19__map_value_compareIS7_S8_NS_4lessIS7_EELb1EEENS5_IS8_EEE16__construct_nodeIJRKNS_21piecewise_construct_tENS_5tupleIJRKS7_EEENSJ_IJEEEEEENS_10unique_ptrINS_11__tree_nodeIS8_PvEENS_22__tree_node_destructorINS5_ISR_EEEEEEDpOT_, symObjAddr: 0x20CAC, symBinAddr: 0x100029770, symSize: 0x120 }
  - { offsetInCU: 0x43FD5, offset: 0x5B17D, size: 0x8, addend: 0x0, symName: __ZNSt3__16__treeINS_12__value_typeINS_12basic_stringIcNS_11char_traitsIcEENS_9allocatorIcEEEEiEENS_19__map_value_compareIS7_S8_NS_4lessIS7_EELb1EEENS5_IS8_EEE16__insert_node_atEPNS_15__tree_end_nodeIPNS_16__tree_node_baseIPvEEEERSJ_SJ_, symObjAddr: 0x20DCC, symBinAddr: 0x100029890, symSize: 0xCC }
  - { offsetInCU: 0x4402A, offset: 0x5B1D2, size: 0x8, addend: 0x0, symName: __ZNKSt3__110unique_ptrINS_11__tree_nodeINS_12__value_typeINS_12basic_stringIcNS_11char_traitsIcEENS_9allocatorIcEEEEiEEPvEENS_22__tree_node_destructorINS6_ISB_EEEEE3getB7v160006Ev, symObjAddr: 0x20E98, symBinAddr: 0x10002995C, symSize: 0x28 }
  - { offsetInCU: 0x44050, offset: 0x5B1F8, size: 0x8, addend: 0x0, symName: __ZNSt3__110unique_ptrINS_11__tree_nodeINS_12__value_typeINS_12basic_stringIcNS_11char_traitsIcEENS_9allocatorIcEEEEiEEPvEENS_22__tree_node_destructorINS6_ISB_EEEEE7releaseB7v160006Ev, symObjAddr: 0x20EC0, symBinAddr: 0x100029984, symSize: 0x44 }
  - { offsetInCU: 0x44085, offset: 0x5B22D, size: 0x8, addend: 0x0, symName: __ZNSt3__110unique_ptrINS_11__tree_nodeINS_12__value_typeINS_12basic_stringIcNS_11char_traitsIcEENS_9allocatorIcEEEEiEEPvEENS_22__tree_node_destructorINS6_ISB_EEEEED1B7v160006Ev, symObjAddr: 0x20F04, symBinAddr: 0x1000299C8, symSize: 0x2C }
  - { offsetInCU: 0x440AF, offset: 0x5B257, size: 0x8, addend: 0x0, symName: __ZNSt3__115__tree_iteratorINS_12__value_typeINS_12basic_stringIcNS_11char_traitsIcEENS_9allocatorIcEEEEiEEPNS_11__tree_nodeIS8_PvEElEC1B7v160006ESC_, symObjAddr: 0x20F30, symBinAddr: 0x1000299F4, symSize: 0x34 }
  - { offsetInCU: 0x440ED, offset: 0x5B295, size: 0x8, addend: 0x0, symName: __ZNSt3__14pairINS_15__tree_iteratorINS_12__value_typeINS_12basic_stringIcNS_11char_traitsIcEENS_9allocatorIcEEEEiEEPNS_11__tree_nodeIS9_PvEElEEbEC1B7v160006ISE_RbLSB_0EEEOT_OT0_, symObjAddr: 0x20F64, symBinAddr: 0x100029A28, symSize: 0x3C }
  - { offsetInCU: 0x4414B, offset: 0x5B2F3, size: 0x8, addend: 0x0, symName: __ZNKSt3__16__treeINS_12__value_typeINS_12basic_stringIcNS_11char_traitsIcEENS_9allocatorIcEEEEiEENS_19__map_value_compareIS7_S8_NS_4lessIS7_EELb1EEENS5_IS8_EEE10__root_ptrEv, symObjAddr: 0x20FA0, symBinAddr: 0x100029A64, symSize: 0x24 }
  - { offsetInCU: 0x44171, offset: 0x5B319, size: 0x8, addend: 0x0, symName: __ZNSt3__16__treeINS_12__value_typeINS_12basic_stringIcNS_11char_traitsIcEENS_9allocatorIcEEEEiEENS_19__map_value_compareIS7_S8_NS_4lessIS7_EELb1EEENS5_IS8_EEE12__node_allocB7v160006Ev, symObjAddr: 0x20FC4, symBinAddr: 0x100029A88, symSize: 0x28 }
  - { offsetInCU: 0x44197, offset: 0x5B33F, size: 0x8, addend: 0x0, symName: __ZNSt3__116allocator_traitsINS_9allocatorINS_11__tree_nodeINS_12__value_typeINS_12basic_stringIcNS_11char_traitsIcEENS1_IcEEEEiEEPvEEEEE8allocateB7v160006ERSC_m, symObjAddr: 0x20FEC, symBinAddr: 0x100029AB0, symSize: 0x2C }
  - { offsetInCU: 0x441CA, offset: 0x5B372, size: 0x8, addend: 0x0, symName: __ZNSt3__122__tree_node_destructorINS_9allocatorINS_11__tree_nodeINS_12__value_typeINS_12basic_stringIcNS_11char_traitsIcEENS1_IcEEEEiEEPvEEEEEC1B7v160006ERSC_b, symObjAddr: 0x21018, symBinAddr: 0x100029ADC, symSize: 0x48 }
  - { offsetInCU: 0x44217, offset: 0x5B3BF, size: 0x8, addend: 0x0, symName: __ZNSt3__110unique_ptrINS_11__tree_nodeINS_12__value_typeINS_12basic_stringIcNS_11char_traitsIcEENS_9allocatorIcEEEEiEEPvEENS_22__tree_node_destructorINS6_ISB_EEEEEC1B7v160006ILb1EvEEPSB_NS_16__dependent_typeINS_27__unique_ptr_deleter_sfinaeISE_EEXT_EE20__good_rval_ref_typeE, symObjAddr: 0x21060, symBinAddr: 0x100029B24, symSize: 0x3C }
  - { offsetInCU: 0x44268, offset: 0x5B410, size: 0x8, addend: 0x0, symName: __ZNSt3__116allocator_traitsINS_9allocatorINS_11__tree_nodeINS_12__value_typeINS_12basic_stringIcNS_11char_traitsIcEENS1_IcEEEEiEEPvEEEEE9constructB7v160006INS_4pairIKS8_iEEJRKNS_21piecewise_construct_tENS_5tupleIJRSG_EEENSL_IJEEEEvEEvRSC_PT_DpOT0_, symObjAddr: 0x2109C, symBinAddr: 0x100029B60, symSize: 0x44 }
  - { offsetInCU: 0x442E7, offset: 0x5B48F, size: 0x8, addend: 0x0, symName: __ZNSt3__122__tree_key_value_typesINS_12__value_typeINS_12basic_stringIcNS_11char_traitsIcEENS_9allocatorIcEEEEiEEE9__get_ptrB7v160006ERS8_, symObjAddr: 0x210E0, symBinAddr: 0x100029BA4, symSize: 0x24 }
  - { offsetInCU: 0x4430B, offset: 0x5B4B3, size: 0x8, addend: 0x0, symName: __ZNKSt3__110unique_ptrINS_11__tree_nodeINS_12__value_typeINS_12basic_stringIcNS_11char_traitsIcEENS_9allocatorIcEEEEiEEPvEENS_22__tree_node_destructorINS6_ISB_EEEEEptB7v160006Ev, symObjAddr: 0x21104, symBinAddr: 0x100029BC8, symSize: 0x28 }
  - { offsetInCU: 0x44331, offset: 0x5B4D9, size: 0x8, addend: 0x0, symName: __ZNSt3__110unique_ptrINS_11__tree_nodeINS_12__value_typeINS_12basic_stringIcNS_11char_traitsIcEENS_9allocatorIcEEEEiEEPvEENS_22__tree_node_destructorINS6_ISB_EEEEE11get_deleterB7v160006Ev, symObjAddr: 0x2112C, symBinAddr: 0x100029BF0, symSize: 0x24 }
  - { offsetInCU: 0x44357, offset: 0x5B4FF, size: 0x8, addend: 0x0, symName: __ZNSt3__117__compressed_pairINS_15__tree_end_nodeIPNS_16__tree_node_baseIPvEEEENS_9allocatorINS_11__tree_nodeINS_12__value_typeINS_12basic_stringIcNS_11char_traitsIcEENS7_IcEEEEiEES3_EEEEE6secondB7v160006Ev, symObjAddr: 0x21150, symBinAddr: 0x100029C14, symSize: 0x24 }
  - { offsetInCU: 0x4437D, offset: 0x5B525, size: 0x8, addend: 0x0, symName: __ZNSt3__122__compressed_pair_elemINS_9allocatorINS_11__tree_nodeINS_12__value_typeINS_12basic_stringIcNS_11char_traitsIcEENS1_IcEEEEiEEPvEEEELi1ELb1EE5__getB7v160006Ev, symObjAddr: 0x21174, symBinAddr: 0x100029C38, symSize: 0x14 }
  - { offsetInCU: 0x443A3, offset: 0x5B54B, size: 0x8, addend: 0x0, symName: __ZNSt3__19allocatorINS_11__tree_nodeINS_12__value_typeINS_12basic_stringIcNS_11char_traitsIcEENS0_IcEEEEiEEPvEEE8allocateB7v160006Em, symObjAddr: 0x21188, symBinAddr: 0x100029C4C, symSize: 0x58 }
  - { offsetInCU: 0x443E1, offset: 0x5B589, size: 0x8, addend: 0x0, symName: __ZNSt3__116allocator_traitsINS_9allocatorINS_11__tree_nodeINS_12__value_typeINS_12basic_stringIcNS_11char_traitsIcEENS1_IcEEEEiEEPvEEEEE8max_sizeB7v160006ISC_vEEmRKSC_, symObjAddr: 0x211E0, symBinAddr: 0x100029CA4, symSize: 0x24 }
  - { offsetInCU: 0x4440F, offset: 0x5B5B7, size: 0x8, addend: 0x0, symName: __ZNKSt3__19allocatorINS_11__tree_nodeINS_12__value_typeINS_12basic_stringIcNS_11char_traitsIcEENS0_IcEEEEiEEPvEEE8max_sizeB7v160006Ev, symObjAddr: 0x21204, symBinAddr: 0x100029CC8, symSize: 0x14 }
  - { offsetInCU: 0x44435, offset: 0x5B5DD, size: 0x8, addend: 0x0, symName: __ZNSt3__122__tree_node_destructorINS_9allocatorINS_11__tree_nodeINS_12__value_typeINS_12basic_stringIcNS_11char_traitsIcEENS1_IcEEEEiEEPvEEEEEC2B7v160006ERSC_b, symObjAddr: 0x21218, symBinAddr: 0x100029CDC, symSize: 0x38 }
  - { offsetInCU: 0x4447D, offset: 0x5B625, size: 0x8, addend: 0x0, symName: __ZNSt3__110unique_ptrINS_11__tree_nodeINS_12__value_typeINS_12basic_stringIcNS_11char_traitsIcEENS_9allocatorIcEEEEiEEPvEENS_22__tree_node_destructorINS6_ISB_EEEEEC2B7v160006ILb1EvEEPSB_NS_16__dependent_typeINS_27__unique_ptr_deleter_sfinaeISE_EEXT_EE20__good_rval_ref_typeE, symObjAddr: 0x21250, symBinAddr: 0x100029D14, symSize: 0x48 }
  - { offsetInCU: 0x444CE, offset: 0x5B676, size: 0x8, addend: 0x0, symName: __ZNSt3__117__compressed_pairIPNS_11__tree_nodeINS_12__value_typeINS_12basic_stringIcNS_11char_traitsIcEENS_9allocatorIcEEEEiEEPvEENS_22__tree_node_destructorINS6_ISB_EEEEEC1B7v160006IRSC_SF_EEOT_OT0_, symObjAddr: 0x21298, symBinAddr: 0x100029D5C, symSize: 0x3C }
  - { offsetInCU: 0x44526, offset: 0x5B6CE, size: 0x8, addend: 0x0, symName: __ZNSt3__117__compressed_pairIPNS_11__tree_nodeINS_12__value_typeINS_12basic_stringIcNS_11char_traitsIcEENS_9allocatorIcEEEEiEEPvEENS_22__tree_node_destructorINS6_ISB_EEEEEC2B7v160006IRSC_SF_EEOT_OT0_, symObjAddr: 0x212D4, symBinAddr: 0x100029D98, symSize: 0x48 }
  - { offsetInCU: 0x4457E, offset: 0x5B726, size: 0x8, addend: 0x0, symName: __ZNSt3__122__compressed_pair_elemIPNS_11__tree_nodeINS_12__value_typeINS_12basic_stringIcNS_11char_traitsIcEENS_9allocatorIcEEEEiEEPvEELi0ELb0EEC2B7v160006IRSC_vEEOT_, symObjAddr: 0x2131C, symBinAddr: 0x100029DE0, symSize: 0x24 }
  - { offsetInCU: 0x445C0, offset: 0x5B768, size: 0x8, addend: 0x0, symName: __ZNSt3__122__compressed_pair_elemINS_22__tree_node_destructorINS_9allocatorINS_11__tree_nodeINS_12__value_typeINS_12basic_stringIcNS_11char_traitsIcEENS2_IcEEEEiEEPvEEEEEELi1ELb0EEC2B7v160006ISE_vEEOT_, symObjAddr: 0x21340, symBinAddr: 0x100029E04, symSize: 0x24 }
  - { offsetInCU: 0x44602, offset: 0x5B7AA, size: 0x8, addend: 0x0, symName: __ZNSt3__19allocatorINS_11__tree_nodeINS_12__value_typeINS_12basic_stringIcNS_11char_traitsIcEENS0_IcEEEEiEEPvEEE9constructB7v160006INS_4pairIKS7_iEEJRKNS_21piecewise_construct_tENS_5tupleIJRSE_EEENSJ_IJEEEEEEvPT_DpOT0_, symObjAddr: 0x21364, symBinAddr: 0x100029E28, symSize: 0x44 }
  - { offsetInCU: 0x4467E, offset: 0x5B826, size: 0x8, addend: 0x0, symName: __ZNSt3__14pairIKNS_12basic_stringIcNS_11char_traitsIcEENS_9allocatorIcEEEEiEC1B7v160006IJRS7_EJEEENS_21piecewise_construct_tENS_5tupleIJDpT_EEENSC_IJDpT0_EEE, symObjAddr: 0x213A8, symBinAddr: 0x100029E6C, symSize: 0x3C }
  - { offsetInCU: 0x446E5, offset: 0x5B88D, size: 0x8, addend: 0x0, symName: __ZNSt3__14pairIKNS_12basic_stringIcNS_11char_traitsIcEENS_9allocatorIcEEEEiEC1B7v160006IJRS7_EJEJLm0EEJEEENS_21piecewise_construct_tERNS_5tupleIJDpT_EEERNSC_IJDpT0_EEENS_15__tuple_indicesIJXspT1_EEEENSL_IJXspT2_EEEE, symObjAddr: 0x213E4, symBinAddr: 0x100029EA8, symSize: 0x3C }
  - { offsetInCU: 0x44772, offset: 0x5B91A, size: 0x8, addend: 0x0, symName: __ZNSt3__14pairIKNS_12basic_stringIcNS_11char_traitsIcEENS_9allocatorIcEEEEiEC2B7v160006IJRS7_EJEJLm0EEJEEENS_21piecewise_construct_tERNS_5tupleIJDpT_EEERNSC_IJDpT0_EEENS_15__tuple_indicesIJXspT1_EEEENSL_IJXspT2_EEEE, symObjAddr: 0x21420, symBinAddr: 0x100029EE4, symSize: 0x48 }
  - { offsetInCU: 0x447FF, offset: 0x5B9A7, size: 0x8, addend: 0x0, symName: __ZNKSt3__117__compressed_pairIPNS_11__tree_nodeINS_12__value_typeINS_12basic_stringIcNS_11char_traitsIcEENS_9allocatorIcEEEEiEEPvEENS_22__tree_node_destructorINS6_ISB_EEEEE5firstB7v160006Ev, symObjAddr: 0x21468, symBinAddr: 0x100029F2C, symSize: 0x24 }
  - { offsetInCU: 0x44825, offset: 0x5B9CD, size: 0x8, addend: 0x0, symName: __ZNKSt3__122__compressed_pair_elemIPNS_11__tree_nodeINS_12__value_typeINS_12basic_stringIcNS_11char_traitsIcEENS_9allocatorIcEEEEiEEPvEELi0ELb0EE5__getB7v160006Ev, symObjAddr: 0x2148C, symBinAddr: 0x100029F50, symSize: 0x14 }
  - { offsetInCU: 0x4484B, offset: 0x5B9F3, size: 0x8, addend: 0x0, symName: __ZNSt3__117__compressed_pairIPNS_11__tree_nodeINS_12__value_typeINS_12basic_stringIcNS_11char_traitsIcEENS_9allocatorIcEEEEiEEPvEENS_22__tree_node_destructorINS6_ISB_EEEEE6secondB7v160006Ev, symObjAddr: 0x214A0, symBinAddr: 0x100029F64, symSize: 0x28 }
  - { offsetInCU: 0x44871, offset: 0x5BA19, size: 0x8, addend: 0x0, symName: __ZNSt3__122__compressed_pair_elemINS_22__tree_node_destructorINS_9allocatorINS_11__tree_nodeINS_12__value_typeINS_12basic_stringIcNS_11char_traitsIcEENS2_IcEEEEiEEPvEEEEEELi1ELb0EE5__getB7v160006Ev, symObjAddr: 0x214C8, symBinAddr: 0x100029F8C, symSize: 0x14 }
  - { offsetInCU: 0x44897, offset: 0x5BA3F, size: 0x8, addend: 0x0, symName: __ZNSt3__16__treeINS_12__value_typeINS_12basic_stringIcNS_11char_traitsIcEENS_9allocatorIcEEEEiEENS_19__map_value_compareIS7_S8_NS_4lessIS7_EELb1EEENS5_IS8_EEE4sizeB7v160006Ev, symObjAddr: 0x214DC, symBinAddr: 0x100029FA0, symSize: 0x28 }
  - { offsetInCU: 0x448BD, offset: 0x5BA65, size: 0x8, addend: 0x0, symName: __ZNSt3__117__compressed_pairImNS_19__map_value_compareINS_12basic_stringIcNS_11char_traitsIcEENS_9allocatorIcEEEENS_12__value_typeIS7_iEENS_4lessIS7_EELb1EEEE5firstB7v160006Ev, symObjAddr: 0x21504, symBinAddr: 0x100029FC8, symSize: 0x24 }
  - { offsetInCU: 0x448E3, offset: 0x5BA8B, size: 0x8, addend: 0x0, symName: __ZNSt3__117__compressed_pairIPNS_11__tree_nodeINS_12__value_typeINS_12basic_stringIcNS_11char_traitsIcEENS_9allocatorIcEEEEiEEPvEENS_22__tree_node_destructorINS6_ISB_EEEEE5firstB7v160006Ev, symObjAddr: 0x21528, symBinAddr: 0x100029FEC, symSize: 0x24 }
  - { offsetInCU: 0x44909, offset: 0x5BAB1, size: 0x8, addend: 0x0, symName: __ZNSt3__122__compressed_pair_elemIPNS_11__tree_nodeINS_12__value_typeINS_12basic_stringIcNS_11char_traitsIcEENS_9allocatorIcEEEEiEEPvEELi0ELb0EE5__getB7v160006Ev, symObjAddr: 0x2154C, symBinAddr: 0x10002A010, symSize: 0x14 }
  - { offsetInCU: 0x4492F, offset: 0x5BAD7, size: 0x8, addend: 0x0, symName: __ZNSt3__110unique_ptrINS_11__tree_nodeINS_12__value_typeINS_12basic_stringIcNS_11char_traitsIcEENS_9allocatorIcEEEEiEEPvEENS_22__tree_node_destructorINS6_ISB_EEEEED2B7v160006Ev, symObjAddr: 0x21560, symBinAddr: 0x10002A024, symSize: 0x30 }
  - { offsetInCU: 0x44959, offset: 0x5BB01, size: 0x8, addend: 0x0, symName: __ZNSt3__110unique_ptrINS_11__tree_nodeINS_12__value_typeINS_12basic_stringIcNS_11char_traitsIcEENS_9allocatorIcEEEEiEEPvEENS_22__tree_node_destructorINS6_ISB_EEEEE5resetB7v160006EPSB_, symObjAddr: 0x21590, symBinAddr: 0x10002A054, symSize: 0x78 }
  - { offsetInCU: 0x4499D, offset: 0x5BB45, size: 0x8, addend: 0x0, symName: __ZNSt3__122__tree_node_destructorINS_9allocatorINS_11__tree_nodeINS_12__value_typeINS_12basic_stringIcNS_11char_traitsIcEENS1_IcEEEEiEEPvEEEEEclB7v160006EPSB_, symObjAddr: 0x21608, symBinAddr: 0x10002A0CC, symSize: 0x98 }
  - { offsetInCU: 0x449D2, offset: 0x5BB7A, size: 0x8, addend: 0x0, symName: __ZNSt3__116allocator_traitsINS_9allocatorINS_11__tree_nodeINS_12__value_typeINS_12basic_stringIcNS_11char_traitsIcEENS1_IcEEEEiEEPvEEEEE7destroyB7v160006INS_4pairIKS8_iEEvvEEvRSC_PT_, symObjAddr: 0x216A0, symBinAddr: 0x10002A164, symSize: 0x28 }
  - { offsetInCU: 0x44A0C, offset: 0x5BBB4, size: 0x8, addend: 0x0, symName: __ZNSt3__116allocator_traitsINS_9allocatorINS_11__tree_nodeINS_12__value_typeINS_12basic_stringIcNS_11char_traitsIcEENS1_IcEEEEiEEPvEEEEE10deallocateB7v160006ERSC_PSB_m, symObjAddr: 0x216C8, symBinAddr: 0x10002A18C, symSize: 0x34 }
  - { offsetInCU: 0x44A4E, offset: 0x5BBF6, size: 0x8, addend: 0x0, symName: __ZNSt3__14pairIKNS_12basic_stringIcNS_11char_traitsIcEENS_9allocatorIcEEEEiED1Ev, symObjAddr: 0x216FC, symBinAddr: 0x10002A1C0, symSize: 0x2C }
  - { offsetInCU: 0x44A7A, offset: 0x5BC22, size: 0x8, addend: 0x0, symName: __ZNSt3__14pairIKNS_12basic_stringIcNS_11char_traitsIcEENS_9allocatorIcEEEEiED2Ev, symObjAddr: 0x21728, symBinAddr: 0x10002A1EC, symSize: 0x2C }
  - { offsetInCU: 0x44AA6, offset: 0x5BC4E, size: 0x8, addend: 0x0, symName: __ZNSt3__19allocatorINS_11__tree_nodeINS_12__value_typeINS_12basic_stringIcNS_11char_traitsIcEENS0_IcEEEEiEEPvEEE10deallocateB7v160006EPSA_m, symObjAddr: 0x21754, symBinAddr: 0x10002A218, symSize: 0x40 }
  - { offsetInCU: 0x44AE8, offset: 0x5BC90, size: 0x8, addend: 0x0, symName: __ZNSt3__115__tree_iteratorINS_12__value_typeINS_12basic_stringIcNS_11char_traitsIcEENS_9allocatorIcEEEEiEEPNS_11__tree_nodeIS8_PvEElEC2B7v160006ESC_, symObjAddr: 0x21794, symBinAddr: 0x10002A258, symSize: 0x20 }
  - { offsetInCU: 0x44B21, offset: 0x5BCC9, size: 0x8, addend: 0x0, symName: __ZNSt3__14pairINS_15__tree_iteratorINS_12__value_typeINS_12basic_stringIcNS_11char_traitsIcEENS_9allocatorIcEEEEiEEPNS_11__tree_nodeIS9_PvEElEEbEC2B7v160006ISE_RbLSB_0EEEOT_OT0_, symObjAddr: 0x217B4, symBinAddr: 0x10002A278, symSize: 0x38 }
  - { offsetInCU: 0x44B7F, offset: 0x5BD27, size: 0x8, addend: 0x0, symName: __ZNSt3__114pointer_traitsIPNS_12__value_typeINS_12basic_stringIcNS_11char_traitsIcEENS_9allocatorIcEEEEiEEE10pointer_toB7v160006ERS8_, symObjAddr: 0x217EC, symBinAddr: 0x10002A2B0, symSize: 0x14 }
  - { offsetInCU: 0x44BB1, offset: 0x5BD59, size: 0x8, addend: 0x0, symName: __ZNSt3__116_UnwrapAlgPolicyIRNS_6__lessI3RowS2_EEE10__get_compB7v160006ES4_, symObjAddr: 0x219F8, symBinAddr: 0x10002A4BC, symSize: 0x14 }
  - { offsetInCU: 0x44BD4, offset: 0x5BD7C, size: 0x8, addend: 0x0, symName: __ZNKSt3__16__lessI3RowS1_EclB7v160006ERKS1_S4_, symObjAddr: 0x22110, symBinAddr: 0x10002ABD4, symSize: 0x34 }
  - { offsetInCU: 0x44C16, offset: 0x5BDBE, size: 0x8, addend: 0x0, symName: __ZNSt3__18_IterOpsINS_17_ClassicAlgPolicyEE9iter_swapB7v160006IRP3RowS6_EEvOT_OT0_, symObjAddr: 0x22144, symBinAddr: 0x10002AC08, symSize: 0x34 }
  - { offsetInCU: 0x44C59, offset: 0x5BE01, size: 0x8, addend: 0x0, symName: __ZNKSt3__16vectorINS_12basic_stringIcNS_11char_traitsIcEENS_9allocatorIcEEEENS4_IS6_EEE5beginB7v160006Ev, symObjAddr: 0x22A50, symBinAddr: 0x10002B514, symSize: 0x30 }
  - { offsetInCU: 0x44C81, offset: 0x5BE29, size: 0x8, addend: 0x0, symName: __ZNKSt3__16vectorINS_12basic_stringIcNS_11char_traitsIcEENS_9allocatorIcEEEENS4_IS6_EEE3endB7v160006Ev, symObjAddr: 0x22A80, symBinAddr: 0x10002B544, symSize: 0x30 }
  - { offsetInCU: 0x44CB3, offset: 0x5BE5B, size: 0x8, addend: 0x0, symName: __ZNKSt3__16__lessINS_12basic_stringIcNS_11char_traitsIcEENS_9allocatorIcEEEES6_EclB7v160006ERKS6_S9_, symObjAddr: 0x22CAC, symBinAddr: 0x10002B770, symSize: 0x34 }
  - { offsetInCU: 0x44CF5, offset: 0x5BE9D, size: 0x8, addend: 0x0, symName: __ZNKSt3__111__wrap_iterIPKNS_12basic_stringIcNS_11char_traitsIcEENS_9allocatorIcEEEEEdeB7v160006Ev, symObjAddr: 0x22CE0, symBinAddr: 0x10002B7A4, symSize: 0x18 }
  - { offsetInCU: 0x44D1B, offset: 0x5BEC3, size: 0x8, addend: 0x0, symName: __ZNSt3__111__wrap_iterIPKNS_12basic_stringIcNS_11char_traitsIcEENS_9allocatorIcEEEEEppB7v160006Ev, symObjAddr: 0x22CF8, symBinAddr: 0x10002B7BC, symSize: 0x20 }
  - { offsetInCU: 0x44D41, offset: 0x5BEE9, size: 0x8, addend: 0x0, symName: __ZNKSt3__111__wrap_iterIPKNS_12basic_stringIcNS_11char_traitsIcEENS_9allocatorIcEEEEE4baseB7v160006Ev, symObjAddr: 0x22D18, symBinAddr: 0x10002B7DC, symSize: 0x18 }
  - { offsetInCU: 0x44D67, offset: 0x5BF0F, size: 0x8, addend: 0x0, symName: __ZNKSt3__16vectorINS_12basic_stringIcNS_11char_traitsIcEENS_9allocatorIcEEEENS4_IS6_EEE11__make_iterB7v160006EPKS6_, symObjAddr: 0x22D30, symBinAddr: 0x10002B7F4, symSize: 0x34 }
  - { offsetInCU: 0x44D9C, offset: 0x5BF44, size: 0x8, addend: 0x0, symName: __ZNSt3__111__wrap_iterIPKNS_12basic_stringIcNS_11char_traitsIcEENS_9allocatorIcEEEEEC1B7v160006EPKvS8_, symObjAddr: 0x22D64, symBinAddr: 0x10002B828, symSize: 0x3C }
  - { offsetInCU: 0x44DE2, offset: 0x5BF8A, size: 0x8, addend: 0x0, symName: __ZNSt3__111__wrap_iterIPKNS_12basic_stringIcNS_11char_traitsIcEENS_9allocatorIcEEEEEC2B7v160006EPKvS8_, symObjAddr: 0x22DA0, symBinAddr: 0x10002B864, symSize: 0x24 }
  - { offsetInCU: 0x44E28, offset: 0x5BFD0, size: 0x8, addend: 0x0, symName: __ZN3RowaSEOS_, symObjAddr: 0x22E40, symBinAddr: 0x10002B904, symSize: 0x34 }
  - { offsetInCU: 0x44E59, offset: 0x5C001, size: 0x8, addend: 0x0, symName: __ZNSt3__18_IterOpsINS_17_ClassicAlgPolicyEE11__iter_moveB7v160006IRP3RowEENS_9enable_ifIXsr12is_referenceIDTdeclsr3stdE7declvalIRT_EEEEE5valueEDTclsr3stdE4movedeclsr3stdE7declvalIS9_EEEEE4typeEOS8_, symObjAddr: 0x22F58, symBinAddr: 0x10002BA1C, symSize: 0x28 }
  - { offsetInCU: 0x44E85, offset: 0x5C02D, size: 0x8, addend: 0x0, symName: __ZNSt3__18_IterOpsINS_17_ClassicAlgPolicyEE25__validate_iter_referenceB7v160006IRP3RowEEvv, symObjAddr: 0x22F80, symBinAddr: 0x10002BA44, symSize: 0x4 }
  - { offsetInCU: 0x44EA3, offset: 0x5C04B, size: 0x8, addend: 0x0, symName: __ZNSt3__18_IterOpsINS_17_ClassicAlgPolicyEE4nextB7v160006IP3RowEET_S6_S6_, symObjAddr: 0x22F84, symBinAddr: 0x10002BA48, symSize: 0x18 }
  - { offsetInCU: 0x44EDA, offset: 0x5C082, size: 0x8, addend: 0x0, symName: __ZNSt3__118__unwrap_iter_implINS_11__wrap_iterIP3RowEELb1EE8__unwrapB7v160006ES4_, symObjAddr: 0x23958, symBinAddr: 0x10002C41C, symSize: 0x28 }
  - { offsetInCU: 0x44F02, offset: 0x5C0AA, size: 0x8, addend: 0x0, symName: __ZNSt3__119__to_address_helperINS_11__wrap_iterIP3RowEEvE6__callB7v160006ERKS4_, symObjAddr: 0x239A4, symBinAddr: 0x10002C468, symSize: 0x30 }
  - { offsetInCU: 0x44F25, offset: 0x5C0CD, size: 0x8, addend: 0x0, symName: __ZNSt3__114pointer_traitsINS_11__wrap_iterIP3RowEEE10to_addressB7v160006ES4_, symObjAddr: 0x239D4, symBinAddr: 0x10002C498, symSize: 0x2C }
  - { offsetInCU: 0x44F49, offset: 0x5C0F1, size: 0x8, addend: 0x0, symName: __ZNKSt3__111__wrap_iterIP3RowE4baseB7v160006Ev, symObjAddr: 0x23A00, symBinAddr: 0x10002C4C4, symSize: 0x18 }
  - { offsetInCU: 0x44F6F, offset: 0x5C117, size: 0x8, addend: 0x0, symName: __ZNSt3__16vectorI3RowNS_9allocatorIS1_EEE11__make_iterB7v160006EPS1_, symObjAddr: 0x23A18, symBinAddr: 0x10002C4DC, symSize: 0x34 }
  - { offsetInCU: 0x44FA4, offset: 0x5C14C, size: 0x8, addend: 0x0, symName: __ZNSt3__111__wrap_iterIP3RowEC1B7v160006EPKvS2_, symObjAddr: 0x23A4C, symBinAddr: 0x10002C510, symSize: 0x3C }
  - { offsetInCU: 0x44FEA, offset: 0x5C192, size: 0x8, addend: 0x0, symName: __ZNSt3__111__wrap_iterIP3RowEC2B7v160006EPKvS2_, symObjAddr: 0x23A88, symBinAddr: 0x10002C54C, symSize: 0x24 }
  - { offsetInCU: 0x45030, offset: 0x5C1D8, size: 0x8, addend: 0x0, symName: __ZNKSt3__111__wrap_iterIPK3RowE4baseB7v160006Ev, symObjAddr: 0x23BB0, symBinAddr: 0x10002C674, symSize: 0x18 }
  - { offsetInCU: 0x45056, offset: 0x5C1FE, size: 0x8, addend: 0x0, symName: __ZNKSt3__111__move_loopINS_17_ClassicAlgPolicyEEclB7v160006IP3RowS5_S5_EENS_4pairIT_T1_EES7_T0_S8_, symObjAddr: 0x23D4C, symBinAddr: 0x10002C810, symSize: 0x90 }
  - { offsetInCU: 0x450C1, offset: 0x5C269, size: 0x8, addend: 0x0, symName: __ZNSt3__111__wrap_iterIP3RowEppB7v160006Ev, symObjAddr: 0x2406C, symBinAddr: 0x10002CB30, symSize: 0x20 }
  - { offsetInCU: 0x450F1, offset: 0x5C299, size: 0x8, addend: 0x0, symName: __ZNKSt3__110__equal_toclB7v160006I3RowS2_EEbRKT_RKT0_, symObjAddr: 0x2408C, symBinAddr: 0x10002CB50, symSize: 0x34 }
  - { offsetInCU: 0x45145, offset: 0x5C2ED, size: 0x8, addend: 0x0, symName: __ZNKSt3__111__wrap_iterIP3RowEdeB7v160006Ev, symObjAddr: 0x240C0, symBinAddr: 0x10002CB84, symSize: 0x18 }
  - { offsetInCU: 0x4516B, offset: 0x5C313, size: 0x8, addend: 0x0, symName: __ZNSt3__18_IterOpsINS_17_ClassicAlgPolicyEE11__iter_moveB7v160006IRNS_11__wrap_iterIP3RowEEEENS_9enable_ifIXsr12is_referenceIDTdeclsr3stdE7declvalIRT_EEEEE5valueEDTclsr3stdE4movedeclsr3stdE7declvalISB_EEEEE4typeEOSA_, symObjAddr: 0x240D8, symBinAddr: 0x10002CB9C, symSize: 0x28 }
  - { offsetInCU: 0x451B5, offset: 0x5C35D, size: 0x8, addend: 0x0, symName: __ZNSt3__14pairINS_11__wrap_iterIP3RowEES4_EC1B7v160006IS4_S4_LPv0EEEOT_OT0_, symObjAddr: 0x24100, symBinAddr: 0x10002CBC4, symSize: 0x3C }
  - { offsetInCU: 0x45213, offset: 0x5C3BB, size: 0x8, addend: 0x0, symName: __ZNSt3__14pairINS_11__wrap_iterIP3RowEES4_EC1B7v160006IRS4_S7_LPv0EEEOT_OT0_, symObjAddr: 0x2413C, symBinAddr: 0x10002CC00, symSize: 0x3C }
  - { offsetInCU: 0x45271, offset: 0x5C419, size: 0x8, addend: 0x0, symName: __ZNKSt3__110__equal_toclB7v160006INS_12basic_stringIcNS_11char_traitsIcEENS_9allocatorIcEEEES7_EEbRKT_RKT0_, symObjAddr: 0x2435C, symBinAddr: 0x10002CE20, symSize: 0x34 }
  - { offsetInCU: 0x452C5, offset: 0x5C46D, size: 0x8, addend: 0x0, symName: __ZNSt3__18_IterOpsINS_17_ClassicAlgPolicyEE25__validate_iter_referenceB7v160006IRNS_11__wrap_iterIP3RowEEEEvv, symObjAddr: 0x24390, symBinAddr: 0x10002CE54, symSize: 0x4 }
  - { offsetInCU: 0x452E3, offset: 0x5C48B, size: 0x8, addend: 0x0, symName: __ZNSt3__14pairINS_11__wrap_iterIP3RowEES4_EC2B7v160006IS4_S4_LPv0EEEOT_OT0_, symObjAddr: 0x24394, symBinAddr: 0x10002CE58, symSize: 0x34 }
  - { offsetInCU: 0x45341, offset: 0x5C4E9, size: 0x8, addend: 0x0, symName: __ZNSt3__14pairINS_11__wrap_iterIP3RowEES4_EC2B7v160006IRS4_S7_LPv0EEEOT_OT0_, symObjAddr: 0x243C8, symBinAddr: 0x10002CE8C, symSize: 0x34 }
  - { offsetInCU: 0x4539F, offset: 0x5C547, size: 0x8, addend: 0x0, symName: __ZNSt3__111__wrap_iterIPK3RowEC2B7v160006IPS1_EERKNS0_IT_EEPNS_9enable_ifIXsr14is_convertibleIS7_S3_EE5valueEvE4typeE, symObjAddr: 0x243FC, symBinAddr: 0x10002CEC0, symSize: 0x40 }
  - { offsetInCU: 0x453EB, offset: 0x5C593, size: 0x8, addend: 0x0, symName: __ZNSt3__13mapINS_12basic_stringIcNS_11char_traitsIcEENS_9allocatorIcEEEEiNS_4lessIS6_EENS4_INS_4pairIKS6_iEEEEED2B7v160006Ev, symObjAddr: 0x2443C, symBinAddr: 0x10002CF00, symSize: 0x2C }
  - { offsetInCU: 0x45415, offset: 0x5C5BD, size: 0x8, addend: 0x0, symName: __ZNSt3__16__treeINS_12__value_typeINS_12basic_stringIcNS_11char_traitsIcEENS_9allocatorIcEEEEiEENS_19__map_value_compareIS7_S8_NS_4lessIS7_EELb1EEENS5_IS8_EEED1Ev, symObjAddr: 0x24468, symBinAddr: 0x10002CF2C, symSize: 0x2C }
  - { offsetInCU: 0x45441, offset: 0x5C5E9, size: 0x8, addend: 0x0, symName: __ZNSt3__16__treeINS_12__value_typeINS_12basic_stringIcNS_11char_traitsIcEENS_9allocatorIcEEEEiEENS_19__map_value_compareIS7_S8_NS_4lessIS7_EELb1EEENS5_IS8_EEED2Ev, symObjAddr: 0x24494, symBinAddr: 0x10002CF58, symSize: 0x38 }
  - { offsetInCU: 0x4546D, offset: 0x5C615, size: 0x8, addend: 0x0, symName: __ZNSt3__16__treeINS_12__value_typeINS_12basic_stringIcNS_11char_traitsIcEENS_9allocatorIcEEEEiEENS_19__map_value_compareIS7_S8_NS_4lessIS7_EELb1EEENS5_IS8_EEE7destroyEPNS_11__tree_nodeIS8_PvEE, symObjAddr: 0x244CC, symBinAddr: 0x10002CF90, symSize: 0xA8 }
  - { offsetInCU: 0x454B9, offset: 0x5C661, size: 0x8, addend: 0x0, symName: __ZN9QueryItemD2Ev, symObjAddr: 0x24574, symBinAddr: 0x10002D038, symSize: 0x38 }
  - { offsetInCU: 0x454E5, offset: 0x5C68D, size: 0x8, addend: 0x0, symName: __ZN9QueryItem8toStringEv, symObjAddr: 0x245AC, symBinAddr: 0x10002D070, symSize: 0x1E4 }
  - { offsetInCU: 0x4552E, offset: 0x5C6D6, size: 0x8, addend: 0x0, symName: __ZNSt3__112basic_stringIcNS_11char_traitsIcEENS_9allocatorIcEEEpLB7v160006ERKS5_, symObjAddr: 0x248AC, symBinAddr: 0x10002D370, symSize: 0x2C }
  - { offsetInCU: 0x45563, offset: 0x5C70B, size: 0x8, addend: 0x0, symName: __ZNSt3__16vectorI5TableNS_9allocatorIS1_EEE9__end_capB7v160006Ev, symObjAddr: 0x256F4, symBinAddr: 0x10002D39C, symSize: 0x28 }
  - { offsetInCU: 0x45589, offset: 0x5C731, size: 0x8, addend: 0x0, symName: __ZNSt3__16vectorI5TableNS_9allocatorIS1_EEE22__construct_one_at_endB7v160006IJRKS1_EEEvDpOT_, symObjAddr: 0x2571C, symBinAddr: 0x10002D3C4, symSize: 0x90 }
  - { offsetInCU: 0x455D8, offset: 0x5C780, size: 0x8, addend: 0x0, symName: __ZNSt3__16vectorI5TableNS_9allocatorIS1_EEE21__push_back_slow_pathIRKS1_EEvOT_, symObjAddr: 0x257AC, symBinAddr: 0x10002D454, symSize: 0xD8 }
  - { offsetInCU: 0x45636, offset: 0x5C7DE, size: 0x8, addend: 0x0, symName: __ZNSt3__117__compressed_pairIP5TableNS_9allocatorIS1_EEE5firstB7v160006Ev, symObjAddr: 0x25884, symBinAddr: 0x10002D52C, symSize: 0x24 }
  - { offsetInCU: 0x4565C, offset: 0x5C804, size: 0x8, addend: 0x0, symName: __ZNSt3__122__compressed_pair_elemIP5TableLi0ELb0EE5__getB7v160006Ev, symObjAddr: 0x258A8, symBinAddr: 0x10002D550, symSize: 0x14 }
  - { offsetInCU: 0x4569B, offset: 0x5C843, size: 0x8, addend: 0x0, symName: __ZNSt3__16vectorI5TableNS_9allocatorIS1_EEE21_ConstructTransactionC1B7v160006ERS4_m, symObjAddr: 0x258BC, symBinAddr: 0x10002D564, symSize: 0x3C }
  - { offsetInCU: 0x456E3, offset: 0x5C88B, size: 0x8, addend: 0x0, symName: __ZNSt3__116allocator_traitsINS_9allocatorI5TableEEE9constructB7v160006IS2_JRKS2_EvEEvRS3_PT_DpOT0_, symObjAddr: 0x258F8, symBinAddr: 0x10002D5A0, symSize: 0x34 }
  - { offsetInCU: 0x4573A, offset: 0x5C8E2, size: 0x8, addend: 0x0, symName: __ZNSt3__16vectorI5TableNS_9allocatorIS1_EEE7__allocB7v160006Ev, symObjAddr: 0x2592C, symBinAddr: 0x10002D5D4, symSize: 0x28 }
  - { offsetInCU: 0x45760, offset: 0x5C908, size: 0x8, addend: 0x0, symName: __ZNSt3__16vectorI5TableNS_9allocatorIS1_EEE21_ConstructTransactionD1B7v160006Ev, symObjAddr: 0x25968, symBinAddr: 0x10002D610, symSize: 0x2C }
  - { offsetInCU: 0x4578A, offset: 0x5C932, size: 0x8, addend: 0x0, symName: __ZNSt3__16vectorI5TableNS_9allocatorIS1_EEE21_ConstructTransactionC2B7v160006ERS4_m, symObjAddr: 0x25994, symBinAddr: 0x10002D63C, symSize: 0x4C }
  - { offsetInCU: 0x457D2, offset: 0x5C97A, size: 0x8, addend: 0x0, symName: __ZNSt3__19allocatorI5TableE9constructB7v160006IS1_JRKS1_EEEvPT_DpOT0_, symObjAddr: 0x259E0, symBinAddr: 0x10002D688, symSize: 0x30 }
  - { offsetInCU: 0x45828, offset: 0x5C9D0, size: 0x8, addend: 0x0, symName: __ZN5TableC1ERKS_, symObjAddr: 0x25A10, symBinAddr: 0x10002D6B8, symSize: 0x34 }
  - { offsetInCU: 0x4585D, offset: 0x5CA05, size: 0x8, addend: 0x0, symName: __ZN5TableC2ERKS_, symObjAddr: 0x25A44, symBinAddr: 0x10002D6EC, symSize: 0xA8 }
  - { offsetInCU: 0x45892, offset: 0x5CA3A, size: 0x8, addend: 0x0, symName: __ZN6HeaderC1ERKS_, symObjAddr: 0x25AEC, symBinAddr: 0x10002D794, symSize: 0x34 }
  - { offsetInCU: 0x458C7, offset: 0x5CA6F, size: 0x8, addend: 0x0, symName: __ZNSt3__16vectorI3RowNS_9allocatorIS1_EEEC1ERKS4_, symObjAddr: 0x25B20, symBinAddr: 0x10002D7C8, symSize: 0x34 }
  - { offsetInCU: 0x45902, offset: 0x5CAAA, size: 0x8, addend: 0x0, symName: __ZN6HeaderC2ERKS_, symObjAddr: 0x25B54, symBinAddr: 0x10002D7FC, symSize: 0x34 }
  - { offsetInCU: 0x45937, offset: 0x5CADF, size: 0x8, addend: 0x0, symName: __ZNSt3__16vectorI3RowNS_9allocatorIS1_EEEC2ERKS4_, symObjAddr: 0x25B88, symBinAddr: 0x10002D830, symSize: 0x110 }
  - { offsetInCU: 0x45996, offset: 0x5CB3E, size: 0x8, addend: 0x0, symName: __ZNSt3__116allocator_traitsINS_9allocatorI3RowEEE37select_on_container_copy_constructionB7v160006IS3_vvEES3_RKS3_, symObjAddr: 0x25C98, symBinAddr: 0x10002D940, symSize: 0x10 }
  - { offsetInCU: 0x459CA, offset: 0x5CB72, size: 0x8, addend: 0x0, symName: __ZNSt3__117__compressed_pairIP3RowNS_9allocatorIS1_EEEC1B7v160006IDnS4_EEOT_OT0_, symObjAddr: 0x25CA8, symBinAddr: 0x10002D950, symSize: 0x3C }
  - { offsetInCU: 0x45A22, offset: 0x5CBCA, size: 0x8, addend: 0x0, symName: __ZNSt3__128__exception_guard_exceptionsINS_6vectorI3RowNS_9allocatorIS2_EEE16__destroy_vectorEE10__completeB7v160006Ev, symObjAddr: 0x25D24, symBinAddr: 0x10002D9CC, symSize: 0x1C }
  - { offsetInCU: 0x45A48, offset: 0x5CBF0, size: 0x8, addend: 0x0, symName: __ZNSt3__128__exception_guard_exceptionsINS_6vectorI3RowNS_9allocatorIS2_EEE16__destroy_vectorEED1B7v160006Ev, symObjAddr: 0x25D40, symBinAddr: 0x10002D9E8, symSize: 0x2C }
  - { offsetInCU: 0x45A72, offset: 0x5CC1A, size: 0x8, addend: 0x0, symName: __ZNSt3__117__compressed_pairIP3RowNS_9allocatorIS1_EEEC2B7v160006IDnS4_EEOT_OT0_, symObjAddr: 0x25D6C, symBinAddr: 0x10002DA14, symSize: 0x44 }
  - { offsetInCU: 0x45ACA, offset: 0x5CC72, size: 0x8, addend: 0x0, symName: __ZNSt3__122__compressed_pair_elemINS_9allocatorI3RowEELi1ELb1EEC2B7v160006IS3_vEEOT_, symObjAddr: 0x25DB0, symBinAddr: 0x10002DA58, symSize: 0x18 }
  - { offsetInCU: 0x45B0C, offset: 0x5CCB4, size: 0x8, addend: 0x0, symName: __ZNSt3__128__exception_guard_exceptionsINS_6vectorI3RowNS_9allocatorIS2_EEE16__destroy_vectorEEC1B7v160006ES6_, symObjAddr: 0x25DC8, symBinAddr: 0x10002DA70, symSize: 0x34 }
  - { offsetInCU: 0x45B44, offset: 0x5CCEC, size: 0x8, addend: 0x0, symName: __ZNSt3__128__exception_guard_exceptionsINS_6vectorI3RowNS_9allocatorIS2_EEE16__destroy_vectorEEC2B7v160006ES6_, symObjAddr: 0x25DFC, symBinAddr: 0x10002DAA4, symSize: 0x24 }
  - { offsetInCU: 0x45B7C, offset: 0x5CD24, size: 0x8, addend: 0x0, symName: __ZNSt3__128__exception_guard_exceptionsINS_6vectorI3RowNS_9allocatorIS2_EEE16__destroy_vectorEED2B7v160006Ev, symObjAddr: 0x25E20, symBinAddr: 0x10002DAC8, symSize: 0x50 }
  - { offsetInCU: 0x45BA6, offset: 0x5CD4E, size: 0x8, addend: 0x0, symName: __ZNSt3__117__compressed_pairIP5TableNS_9allocatorIS1_EEE6secondB7v160006Ev, symObjAddr: 0x25E70, symBinAddr: 0x10002DB18, symSize: 0x24 }
  - { offsetInCU: 0x45BCC, offset: 0x5CD74, size: 0x8, addend: 0x0, symName: __ZNSt3__122__compressed_pair_elemINS_9allocatorI5TableEELi1ELb1EE5__getB7v160006Ev, symObjAddr: 0x25E94, symBinAddr: 0x10002DB3C, symSize: 0x14 }
  - { offsetInCU: 0x45BF2, offset: 0x5CD9A, size: 0x8, addend: 0x0, symName: __ZNSt3__16vectorI5TableNS_9allocatorIS1_EEE21_ConstructTransactionD2B7v160006Ev, symObjAddr: 0x25EA8, symBinAddr: 0x10002DB50, symSize: 0x20 }
  - { offsetInCU: 0x45C1C, offset: 0x5CDC4, size: 0x8, addend: 0x0, symName: __ZNKSt3__16vectorI5TableNS_9allocatorIS1_EEE11__recommendB7v160006Em, symObjAddr: 0x25EC8, symBinAddr: 0x10002DB70, symSize: 0xB4 }
  - { offsetInCU: 0x45C71, offset: 0x5CE19, size: 0x8, addend: 0x0, symName: __ZNKSt3__16vectorI5TableNS_9allocatorIS1_EEE4sizeB7v160006Ev, symObjAddr: 0x25F7C, symBinAddr: 0x10002DC24, symSize: 0x28 }
  - { offsetInCU: 0x45C97, offset: 0x5CE3F, size: 0x8, addend: 0x0, symName: __ZNSt3__114__split_bufferI5TableRNS_9allocatorIS1_EEEC1EmmS4_, symObjAddr: 0x25FA4, symBinAddr: 0x10002DC4C, symSize: 0x44 }
  - { offsetInCU: 0x45CED, offset: 0x5CE95, size: 0x8, addend: 0x0, symName: __ZNSt3__114__split_bufferI5TableRNS_9allocatorIS1_EEED1Ev, symObjAddr: 0x26100, symBinAddr: 0x10002DDA8, symSize: 0x2C }
  - { offsetInCU: 0x45D19, offset: 0x5CEC1, size: 0x8, addend: 0x0, symName: __ZNKSt3__16vectorI5TableNS_9allocatorIS1_EEE8max_sizeEv, symObjAddr: 0x2612C, symBinAddr: 0x10002DDD4, symSize: 0x60 }
  - { offsetInCU: 0x45D41, offset: 0x5CEE9, size: 0x8, addend: 0x0, symName: __ZNKSt3__16vectorI5TableNS_9allocatorIS1_EEE20__throw_length_errorB7v160006Ev, symObjAddr: 0x2618C, symBinAddr: 0x10002DE34, symSize: 0x1C }
  - { offsetInCU: 0x45D67, offset: 0x5CF0F, size: 0x8, addend: 0x0, symName: __ZNKSt3__16vectorI5TableNS_9allocatorIS1_EEE8capacityB7v160006Ev, symObjAddr: 0x261A8, symBinAddr: 0x10002DE50, symSize: 0x40 }
  - { offsetInCU: 0x45D97, offset: 0x5CF3F, size: 0x8, addend: 0x0, symName: __ZNSt3__116allocator_traitsINS_9allocatorI5TableEEE8max_sizeB7v160006IS3_vEEmRKS3_, symObjAddr: 0x261E8, symBinAddr: 0x10002DE90, symSize: 0x24 }
  - { offsetInCU: 0x45DC5, offset: 0x5CF6D, size: 0x8, addend: 0x0, symName: __ZNKSt3__16vectorI5TableNS_9allocatorIS1_EEE7__allocB7v160006Ev, symObjAddr: 0x2620C, symBinAddr: 0x10002DEB4, symSize: 0x28 }
  - { offsetInCU: 0x45DEB, offset: 0x5CF93, size: 0x8, addend: 0x0, symName: __ZNKSt3__19allocatorI5TableE8max_sizeB7v160006Ev, symObjAddr: 0x26234, symBinAddr: 0x10002DEDC, symSize: 0x20 }
  - { offsetInCU: 0x45E11, offset: 0x5CFB9, size: 0x8, addend: 0x0, symName: __ZNKSt3__117__compressed_pairIP5TableNS_9allocatorIS1_EEE6secondB7v160006Ev, symObjAddr: 0x26254, symBinAddr: 0x10002DEFC, symSize: 0x24 }
  - { offsetInCU: 0x45E37, offset: 0x5CFDF, size: 0x8, addend: 0x0, symName: __ZNKSt3__122__compressed_pair_elemINS_9allocatorI5TableEELi1ELb1EE5__getB7v160006Ev, symObjAddr: 0x26278, symBinAddr: 0x10002DF20, symSize: 0x14 }
  - { offsetInCU: 0x45E5D, offset: 0x5D005, size: 0x8, addend: 0x0, symName: __ZNKSt3__16vectorI5TableNS_9allocatorIS1_EEE9__end_capB7v160006Ev, symObjAddr: 0x2628C, symBinAddr: 0x10002DF34, symSize: 0x28 }
  - { offsetInCU: 0x45E83, offset: 0x5D02B, size: 0x8, addend: 0x0, symName: __ZNKSt3__117__compressed_pairIP5TableNS_9allocatorIS1_EEE5firstB7v160006Ev, symObjAddr: 0x262B4, symBinAddr: 0x10002DF5C, symSize: 0x24 }
  - { offsetInCU: 0x45EA9, offset: 0x5D051, size: 0x8, addend: 0x0, symName: __ZNKSt3__122__compressed_pair_elemIP5TableLi0ELb0EE5__getB7v160006Ev, symObjAddr: 0x262D8, symBinAddr: 0x10002DF80, symSize: 0x14 }
  - { offsetInCU: 0x45ECF, offset: 0x5D077, size: 0x8, addend: 0x0, symName: __ZNSt3__114__split_bufferI5TableRNS_9allocatorIS1_EEEC2EmmS4_, symObjAddr: 0x262EC, symBinAddr: 0x10002DF94, symSize: 0xE0 }
  - { offsetInCU: 0x45F42, offset: 0x5D0EA, size: 0x8, addend: 0x0, symName: __ZNSt3__117__compressed_pairIP5TableRNS_9allocatorIS1_EEEC1B7v160006IDnS5_EEOT_OT0_, symObjAddr: 0x263CC, symBinAddr: 0x10002E074, symSize: 0x3C }
  - { offsetInCU: 0x45F9A, offset: 0x5D142, size: 0x8, addend: 0x0, symName: __ZNSt3__114__split_bufferI5TableRNS_9allocatorIS1_EEE7__allocB7v160006Ev, symObjAddr: 0x26448, symBinAddr: 0x10002E0F0, symSize: 0x28 }
  - { offsetInCU: 0x45FC0, offset: 0x5D168, size: 0x8, addend: 0x0, symName: __ZNSt3__114__split_bufferI5TableRNS_9allocatorIS1_EEE9__end_capB7v160006Ev, symObjAddr: 0x26470, symBinAddr: 0x10002E118, symSize: 0x28 }
  - { offsetInCU: 0x45FE6, offset: 0x5D18E, size: 0x8, addend: 0x0, symName: __ZNSt3__117__compressed_pairIP5TableRNS_9allocatorIS1_EEEC2B7v160006IDnS5_EEOT_OT0_, symObjAddr: 0x26498, symBinAddr: 0x10002E140, symSize: 0x48 }
  - { offsetInCU: 0x4603E, offset: 0x5D1E6, size: 0x8, addend: 0x0, symName: __ZNSt3__122__compressed_pair_elemIRNS_9allocatorI5TableEELi1ELb0EEC2B7v160006IS4_vEEOT_, symObjAddr: 0x264E0, symBinAddr: 0x10002E188, symSize: 0x20 }
  - { offsetInCU: 0x46080, offset: 0x5D228, size: 0x8, addend: 0x0, symName: __ZNSt3__19allocatorI5TableE8allocateB7v160006Em, symObjAddr: 0x26500, symBinAddr: 0x10002E1A8, symSize: 0x5C }
  - { offsetInCU: 0x460B4, offset: 0x5D25C, size: 0x8, addend: 0x0, symName: __ZNSt3__117__compressed_pairIP5TableRNS_9allocatorIS1_EEE6secondB7v160006Ev, symObjAddr: 0x2655C, symBinAddr: 0x10002E204, symSize: 0x28 }
  - { offsetInCU: 0x460DA, offset: 0x5D282, size: 0x8, addend: 0x0, symName: __ZNSt3__122__compressed_pair_elemIRNS_9allocatorI5TableEELi1ELb0EE5__getB7v160006Ev, symObjAddr: 0x26584, symBinAddr: 0x10002E22C, symSize: 0x18 }
  - { offsetInCU: 0x46100, offset: 0x5D2A8, size: 0x8, addend: 0x0, symName: __ZNSt3__117__compressed_pairIP5TableRNS_9allocatorIS1_EEE5firstB7v160006Ev, symObjAddr: 0x2659C, symBinAddr: 0x10002E244, symSize: 0x24 }
  - { offsetInCU: 0x46126, offset: 0x5D2CE, size: 0x8, addend: 0x0, symName: __ZNKSt3__16vectorI5TableNS_9allocatorIS1_EEE17__annotate_deleteB7v160006Ev, symObjAddr: 0x265C0, symBinAddr: 0x10002E268, symSize: 0xD4 }
  - { offsetInCU: 0x4614C, offset: 0x5D2F4, size: 0x8, addend: 0x0, symName: __ZNSt3__116reverse_iteratorIP5TableEC1B7v160006ES2_, symObjAddr: 0x267C0, symBinAddr: 0x10002E468, symSize: 0x34 }
  - { offsetInCU: 0x46184, offset: 0x5D32C, size: 0x8, addend: 0x0, symName: __ZNKSt3__116reverse_iteratorIP5TableE4baseB7v160006Ev, symObjAddr: 0x267F4, symBinAddr: 0x10002E49C, symSize: 0x18 }
  - { offsetInCU: 0x461AA, offset: 0x5D352, size: 0x8, addend: 0x0, symName: __ZNKSt3__16vectorI5TableNS_9allocatorIS1_EEE14__annotate_newB7v160006Em, symObjAddr: 0x26848, symBinAddr: 0x10002E4F0, symSize: 0xC8 }
  - { offsetInCU: 0x461DF, offset: 0x5D387, size: 0x8, addend: 0x0, symName: __ZNKSt3__16vectorI5TableNS_9allocatorIS1_EEE31__annotate_contiguous_containerB7v160006EPKvS6_S6_S6_, symObjAddr: 0x26920, symBinAddr: 0x10002E5C8, symSize: 0x20 }
  - { offsetInCU: 0x46231, offset: 0x5D3D9, size: 0x8, addend: 0x0, symName: __ZNKSt3__16vectorI5TableNS_9allocatorIS1_EEE4dataB7v160006Ev, symObjAddr: 0x26940, symBinAddr: 0x10002E5E8, symSize: 0x28 }
  - { offsetInCU: 0x46257, offset: 0x5D3FF, size: 0x8, addend: 0x0, symName: __ZNSt3__129_AllocatorDestroyRangeReverseINS_9allocatorI5TableEENS_16reverse_iteratorIPS2_EEEC1B7v160006ERS3_RS6_S9_, symObjAddr: 0x269B4, symBinAddr: 0x10002E65C, symSize: 0x44 }
  - { offsetInCU: 0x462AE, offset: 0x5D456, size: 0x8, addend: 0x0, symName: __ZNSt3__116allocator_traitsINS_9allocatorI5TableEEE9constructB7v160006IS2_JS2_EvEEvRS3_PT_DpOT0_, symObjAddr: 0x26A40, symBinAddr: 0x10002E6E8, symSize: 0x34 }
  - { offsetInCU: 0x46305, offset: 0x5D4AD, size: 0x8, addend: 0x0, symName: __ZNKSt3__116reverse_iteratorIP5TableEdeB7v160006Ev, symObjAddr: 0x26A98, symBinAddr: 0x10002E740, symSize: 0x28 }
  - { offsetInCU: 0x46339, offset: 0x5D4E1, size: 0x8, addend: 0x0, symName: __ZNSt3__116reverse_iteratorIP5TableEppB7v160006Ev, symObjAddr: 0x26AC0, symBinAddr: 0x10002E768, symSize: 0x20 }
  - { offsetInCU: 0x4635F, offset: 0x5D507, size: 0x8, addend: 0x0, symName: __ZNSt3__128__exception_guard_exceptionsINS_29_AllocatorDestroyRangeReverseINS_9allocatorI5TableEENS_16reverse_iteratorIPS3_EEEEE10__completeB7v160006Ev, symObjAddr: 0x26AE0, symBinAddr: 0x10002E788, symSize: 0x1C }
  - { offsetInCU: 0x46385, offset: 0x5D52D, size: 0x8, addend: 0x0, symName: __ZNSt3__128__exception_guard_exceptionsINS_29_AllocatorDestroyRangeReverseINS_9allocatorI5TableEENS_16reverse_iteratorIPS3_EEEEED1B7v160006Ev, symObjAddr: 0x26AFC, symBinAddr: 0x10002E7A4, symSize: 0x2C }
  - { offsetInCU: 0x463AF, offset: 0x5D557, size: 0x8, addend: 0x0, symName: __ZNSt3__128__exception_guard_exceptionsINS_29_AllocatorDestroyRangeReverseINS_9allocatorI5TableEENS_16reverse_iteratorIPS3_EEEEEC1B7v160006ES8_, symObjAddr: 0x26B28, symBinAddr: 0x10002E7D0, symSize: 0x34 }
  - { offsetInCU: 0x463E8, offset: 0x5D590, size: 0x8, addend: 0x0, symName: __ZNSt3__128__exception_guard_exceptionsINS_29_AllocatorDestroyRangeReverseINS_9allocatorI5TableEENS_16reverse_iteratorIPS3_EEEEEC2B7v160006ES8_, symObjAddr: 0x26B5C, symBinAddr: 0x10002E804, symSize: 0x30 }
  - { offsetInCU: 0x46421, offset: 0x5D5C9, size: 0x8, addend: 0x0, symName: __ZNSt3__129_AllocatorDestroyRangeReverseINS_9allocatorI5TableEENS_16reverse_iteratorIPS2_EEEC2B7v160006ERS3_RS6_S9_, symObjAddr: 0x26B8C, symBinAddr: 0x10002E834, symSize: 0x38 }
  - { offsetInCU: 0x46478, offset: 0x5D620, size: 0x8, addend: 0x0, symName: __ZNSt3__19allocatorI5TableE9constructB7v160006IS1_JS1_EEEvPT_DpOT0_, symObjAddr: 0x26BC4, symBinAddr: 0x10002E86C, symSize: 0x30 }
  - { offsetInCU: 0x464CE, offset: 0x5D676, size: 0x8, addend: 0x0, symName: __ZN5TableC1EOS_, symObjAddr: 0x26BF4, symBinAddr: 0x10002E89C, symSize: 0x34 }
  - { offsetInCU: 0x46503, offset: 0x5D6AB, size: 0x8, addend: 0x0, symName: __ZN5TableC2EOS_, symObjAddr: 0x26C28, symBinAddr: 0x10002E8D0, symSize: 0x5C }
  - { offsetInCU: 0x46538, offset: 0x5D6E0, size: 0x8, addend: 0x0, symName: __ZN6HeaderC1EOS_, symObjAddr: 0x26C84, symBinAddr: 0x10002E92C, symSize: 0x34 }
  - { offsetInCU: 0x4656D, offset: 0x5D715, size: 0x8, addend: 0x0, symName: __ZNSt3__16vectorI3RowNS_9allocatorIS1_EEEC1B7v160006EOS4_, symObjAddr: 0x26CB8, symBinAddr: 0x10002E960, symSize: 0x34 }
  - { offsetInCU: 0x465A8, offset: 0x5D750, size: 0x8, addend: 0x0, symName: __ZN6HeaderC2EOS_, symObjAddr: 0x26CEC, symBinAddr: 0x10002E994, symSize: 0x34 }
  - { offsetInCU: 0x465DD, offset: 0x5D785, size: 0x8, addend: 0x0, symName: __ZNSt3__16vectorI3RowNS_9allocatorIS1_EEEC2B7v160006EOS4_, symObjAddr: 0x26D20, symBinAddr: 0x10002E9C8, symSize: 0xD8 }
  - { offsetInCU: 0x4661D, offset: 0x5D7C5, size: 0x8, addend: 0x0, symName: __ZNSt3__119__to_address_helperINS_16reverse_iteratorIP5TableEEvE6__callB7v160006ERKS4_, symObjAddr: 0x26DF8, symBinAddr: 0x10002EAA0, symSize: 0x38 }
  - { offsetInCU: 0x46640, offset: 0x5D7E8, size: 0x8, addend: 0x0, symName: __ZNKSt3__116reverse_iteratorIP5TableEptB7v160006Ev, symObjAddr: 0x26E30, symBinAddr: 0x10002EAD8, symSize: 0x24 }
  - { offsetInCU: 0x46666, offset: 0x5D80E, size: 0x8, addend: 0x0, symName: __ZNSt3__128__exception_guard_exceptionsINS_29_AllocatorDestroyRangeReverseINS_9allocatorI5TableEENS_16reverse_iteratorIPS3_EEEEED2B7v160006Ev, symObjAddr: 0x26E54, symBinAddr: 0x10002EAFC, symSize: 0x50 }
  - { offsetInCU: 0x46690, offset: 0x5D838, size: 0x8, addend: 0x0, symName: __ZNKSt3__129_AllocatorDestroyRangeReverseINS_9allocatorI5TableEENS_16reverse_iteratorIPS2_EEEclB7v160006Ev, symObjAddr: 0x26EA4, symBinAddr: 0x10002EB4C, symSize: 0xB4 }
  - { offsetInCU: 0x466B7, offset: 0x5D85F, size: 0x8, addend: 0x0, symName: __ZNSt3__116reverse_iteratorINS0_IP5TableEEEC1B7v160006ES3_, symObjAddr: 0x26FC8, symBinAddr: 0x10002EC70, symSize: 0x3C }
  - { offsetInCU: 0x466EF, offset: 0x5D897, size: 0x8, addend: 0x0, symName: __ZNSt3__116allocator_traitsINS_9allocatorI5TableEEE7destroyB7v160006IS2_vEEvRS3_PT_, symObjAddr: 0x27064, symBinAddr: 0x10002ED0C, symSize: 0x2C }
  - { offsetInCU: 0x4672C, offset: 0x5D8D4, size: 0x8, addend: 0x0, symName: __ZNSt3__116reverse_iteratorINS0_IP5TableEEEppB7v160006Ev, symObjAddr: 0x270B4, symBinAddr: 0x10002ED5C, symSize: 0x30 }
  - { offsetInCU: 0x46752, offset: 0x5D8FA, size: 0x8, addend: 0x0, symName: __ZNKSt3__116reverse_iteratorINS0_IP5TableEEE4baseB7v160006Ev, symObjAddr: 0x270E4, symBinAddr: 0x10002ED8C, symSize: 0x24 }
  - { offsetInCU: 0x46778, offset: 0x5D920, size: 0x8, addend: 0x0, symName: __ZNSt3__19allocatorI5TableE7destroyB7v160006EPS1_, symObjAddr: 0x27108, symBinAddr: 0x10002EDB0, symSize: 0x28 }
  - { offsetInCU: 0x467B1, offset: 0x5D959, size: 0x8, addend: 0x0, symName: __ZNSt3__119__to_address_helperINS_16reverse_iteratorINS1_IP5TableEEEEvE6__callB7v160006ERKS5_, symObjAddr: 0x27130, symBinAddr: 0x10002EDD8, symSize: 0x38 }
  - { offsetInCU: 0x467D4, offset: 0x5D97C, size: 0x8, addend: 0x0, symName: __ZNKSt3__116reverse_iteratorINS0_IP5TableEEEptB7v160006Ev, symObjAddr: 0x27168, symBinAddr: 0x10002EE10, symSize: 0x24 }
  - { offsetInCU: 0x467FA, offset: 0x5D9A2, size: 0x8, addend: 0x0, symName: __ZNKSt3__116reverse_iteratorINS0_IP5TableEEEdeB7v160006Ev, symObjAddr: 0x2718C, symBinAddr: 0x10002EE34, symSize: 0x34 }
  - { offsetInCU: 0x4682E, offset: 0x5D9D6, size: 0x8, addend: 0x0, symName: __ZNSt3__116reverse_iteratorIP5TableEmmB7v160006Ev, symObjAddr: 0x271C0, symBinAddr: 0x10002EE68, symSize: 0x20 }
  - { offsetInCU: 0x46854, offset: 0x5D9FC, size: 0x8, addend: 0x0, symName: __ZNSt3__116reverse_iteratorINS0_IP5TableEEEC2B7v160006ES3_, symObjAddr: 0x271E0, symBinAddr: 0x10002EE88, symSize: 0x2C }
  - { offsetInCU: 0x4688C, offset: 0x5DA34, size: 0x8, addend: 0x0, symName: __ZNSt3__116reverse_iteratorIP5TableEC2B7v160006ES2_, symObjAddr: 0x2720C, symBinAddr: 0x10002EEB4, symSize: 0x28 }
  - { offsetInCU: 0x468C4, offset: 0x5DA6C, size: 0x8, addend: 0x0, symName: __ZNSt3__114__split_bufferI5TableRNS_9allocatorIS1_EEED2Ev, symObjAddr: 0x27234, symBinAddr: 0x10002EEDC, symSize: 0x8C }
  - { offsetInCU: 0x468F0, offset: 0x5DA98, size: 0x8, addend: 0x0, symName: __ZNSt3__114__split_bufferI5TableRNS_9allocatorIS1_EEE5clearB7v160006Ev, symObjAddr: 0x272C0, symBinAddr: 0x10002EF68, symSize: 0x28 }
  - { offsetInCU: 0x46916, offset: 0x5DABE, size: 0x8, addend: 0x0, symName: __ZNSt3__116allocator_traitsINS_9allocatorI5TableEEE10deallocateB7v160006ERS3_PS2_m, symObjAddr: 0x272E8, symBinAddr: 0x10002EF90, symSize: 0x34 }
  - { offsetInCU: 0x46958, offset: 0x5DB00, size: 0x8, addend: 0x0, symName: __ZNKSt3__114__split_bufferI5TableRNS_9allocatorIS1_EEE8capacityB7v160006Ev, symObjAddr: 0x2731C, symBinAddr: 0x10002EFC4, symSize: 0x40 }
  - { offsetInCU: 0x4697E, offset: 0x5DB26, size: 0x8, addend: 0x0, symName: __ZNSt3__114__split_bufferI5TableRNS_9allocatorIS1_EEE17__destruct_at_endB7v160006EPS1_, symObjAddr: 0x2735C, symBinAddr: 0x10002F004, symSize: 0x2C }
  - { offsetInCU: 0x469B2, offset: 0x5DB5A, size: 0x8, addend: 0x0, symName: __ZNSt3__114__split_bufferI5TableRNS_9allocatorIS1_EEE17__destruct_at_endB7v160006EPS1_NS_17integral_constantIbLb0EEE, symObjAddr: 0x27388, symBinAddr: 0x10002F030, symSize: 0x80 }
  - { offsetInCU: 0x469F3, offset: 0x5DB9B, size: 0x8, addend: 0x0, symName: __ZNSt3__19allocatorI5TableE10deallocateB7v160006EPS1_m, symObjAddr: 0x27408, symBinAddr: 0x10002F0B0, symSize: 0x44 }
  - { offsetInCU: 0x46A35, offset: 0x5DBDD, size: 0x8, addend: 0x0, symName: __ZNKSt3__114__split_bufferI5TableRNS_9allocatorIS1_EEE9__end_capB7v160006Ev, symObjAddr: 0x2744C, symBinAddr: 0x10002F0F4, symSize: 0x28 }
  - { offsetInCU: 0x46A5B, offset: 0x5DC03, size: 0x8, addend: 0x0, symName: __ZNKSt3__117__compressed_pairIP5TableRNS_9allocatorIS1_EEE5firstB7v160006Ev, symObjAddr: 0x27474, symBinAddr: 0x10002F11C, symSize: 0x24 }
  - { offsetInCU: 0x46A81, offset: 0x5DC29, size: 0x8, addend: 0x0, symName: __ZNSt3__16vectorI9QueryItemNS_9allocatorIS1_EEED2B7v160006Ev, symObjAddr: 0x27498, symBinAddr: 0x10002F140, symSize: 0x44 }
  - { offsetInCU: 0x46AAB, offset: 0x5DC53, size: 0x8, addend: 0x0, symName: __ZNSt3__16vectorI9QueryItemNS_9allocatorIS1_EEE16__destroy_vectorC1ERS4_, symObjAddr: 0x274DC, symBinAddr: 0x10002F184, symSize: 0x34 }
  - { offsetInCU: 0x46AE4, offset: 0x5DC8C, size: 0x8, addend: 0x0, symName: __ZNSt3__16vectorI9QueryItemNS_9allocatorIS1_EEE16__destroy_vectorclB7v160006Ev, symObjAddr: 0x27510, symBinAddr: 0x10002F1B8, symSize: 0x9C }
  - { offsetInCU: 0x46B0A, offset: 0x5DCB2, size: 0x8, addend: 0x0, symName: __ZNSt3__16vectorI9QueryItemNS_9allocatorIS1_EEE16__destroy_vectorC2ERS4_, symObjAddr: 0x275AC, symBinAddr: 0x10002F254, symSize: 0x20 }
  - { offsetInCU: 0x46B43, offset: 0x5DCEB, size: 0x8, addend: 0x0, symName: __ZNSt3__16vectorI9QueryItemNS_9allocatorIS1_EEE7__clearB7v160006Ev, symObjAddr: 0x275DC, symBinAddr: 0x10002F284, symSize: 0x28 }
  - { offsetInCU: 0x46B69, offset: 0x5DD11, size: 0x8, addend: 0x0, symName: __ZNSt3__16vectorI9QueryItemNS_9allocatorIS1_EEE22__base_destruct_at_endB7v160006EPS1_, symObjAddr: 0x27604, symBinAddr: 0x10002F2AC, symSize: 0x8C }
  - { offsetInCU: 0x46BAD, offset: 0x5DD55, size: 0x8, addend: 0x0, symName: __ZNSt3__16vectorI5TableNS_9allocatorIS1_EEED2B7v160006Ev, symObjAddr: 0x27690, symBinAddr: 0x10002F338, symSize: 0x44 }
  - { offsetInCU: 0x46BD7, offset: 0x5DD7F, size: 0x8, addend: 0x0, symName: __ZNSt3__16vectorI5TableNS_9allocatorIS1_EEE16__destroy_vectorC1ERS4_, symObjAddr: 0x276D4, symBinAddr: 0x10002F37C, symSize: 0x34 }
  - { offsetInCU: 0x46C10, offset: 0x5DDB8, size: 0x8, addend: 0x0, symName: __ZNSt3__16vectorI5TableNS_9allocatorIS1_EEE16__destroy_vectorclB7v160006Ev, symObjAddr: 0x27708, symBinAddr: 0x10002F3B0, symSize: 0x9C }
  - { offsetInCU: 0x46C36, offset: 0x5DDDE, size: 0x8, addend: 0x0, symName: __ZNSt3__16vectorI5TableNS_9allocatorIS1_EEE16__destroy_vectorC2ERS4_, symObjAddr: 0x277A4, symBinAddr: 0x10002F44C, symSize: 0x20 }
  - { offsetInCU: 0x46C6F, offset: 0x5DE17, size: 0x8, addend: 0x0, symName: __ZNSt3__16vectorI5TableNS_9allocatorIS1_EEE7__clearB7v160006Ev, symObjAddr: 0x277D4, symBinAddr: 0x10002F47C, symSize: 0x28 }
  - { offsetInCU: 0x46C95, offset: 0x5DE3D, size: 0x8, addend: 0x0, symName: __ZNSt3__16vectorI5TableNS_9allocatorIS1_EEE22__base_destruct_at_endB7v160006EPS1_, symObjAddr: 0x277FC, symBinAddr: 0x10002F4A4, symSize: 0x8C }
