---
triple:          'arm64-apple-darwin'
binary-path:     test
relocations:
  - { offsetInCU: 0x5C, offset: 0x5C, size: 0x8, addend: 0x0, symName: __ZNSt3__119piecewise_constructE, symObjAddr: 0xDFCB, symBinAddr: 0x10000F5D7, symSize: 0x0 }
  - { offsetInCU: 0xBAA9, offset: 0xBAA9, size: 0x8, addend: 0x0, symName: __ZNSt3__124__put_character_sequenceB8ue170006IcNS_11char_traitsIcEEEERNS_13basic_ostreamIT_T0_EES7_PKS4_m, symObjAddr: 0x61FC, symBinAddr: 0x100007394, symSize: 0x1EC }
  - { offsetInCU: 0xCB3D, offset: 0xCB3D, size: 0x8, addend: 0x0, symName: __ZNSt3__16copy_nB8ue170006IPKcmPcEENS_9enable_ifIXsr37__has_random_access_iterator_categoryIT_EE5valueET1_E4typeES5_T0_S6_, symObjAddr: 0x8394, symBinAddr: 0x10000952C, symSize: 0x44 }
  - { offsetInCU: 0xF74A, offset: 0xF74A, size: 0x8, addend: 0x0, symName: __ZNSt3__1neB8ue170006IPNS_12basic_stringIcNS_11char_traitsIcEENS_9allocatorIcEEEEEEbRKNS_11__wrap_iterIT_EESC_, symObjAddr: 0x974, symBinAddr: 0x100001B0C, symSize: 0x34 }
  - { offsetInCU: 0xF78D, offset: 0xF78D, size: 0x8, addend: 0x0, symName: __ZNSt3__1lsB8ue170006IcNS_11char_traitsIcEENS_9allocatorIcEEEERNS_13basic_ostreamIT_T0_EES9_RKNS_12basic_stringIS6_S7_T1_EE, symObjAddr: 0xF2C, symBinAddr: 0x1000020C4, symSize: 0x4C }
  - { offsetInCU: 0xF7E5, offset: 0xF7E5, size: 0x8, addend: 0x0, symName: __ZNSt3__1eqB8ue170006IPNS_12basic_stringIcNS_11char_traitsIcEENS_9allocatorIcEEEEEEbRKNS_11__wrap_iterIT_EESC_, symObjAddr: 0x155C, symBinAddr: 0x1000026F4, symSize: 0x48 }
  - { offsetInCU: 0xF828, offset: 0xF828, size: 0x8, addend: 0x0, symName: __ZNSt3__112__to_addressB8ue170006I9PredicateEEPT_S3_, symObjAddr: 0x1888, symBinAddr: 0x100002A20, symSize: 0x14 }
  - { offsetInCU: 0xF85D, offset: 0xF85D, size: 0x8, addend: 0x0, symName: __ZNSt3__13maxB8ue170006ImEERKT_S3_S3_, symObjAddr: 0x1CB4, symBinAddr: 0x100002E4C, symSize: 0x2C }
  - { offsetInCU: 0xF8A0, offset: 0xF8A0, size: 0x8, addend: 0x0, symName: __ZNSt3__13minB8ue170006ImEERKT_S3_S3_, symObjAddr: 0x1CE0, symBinAddr: 0x100002E78, symSize: 0x2C }
  - { offsetInCU: 0xFACD, offset: 0xFACD, size: 0x8, addend: 0x0, symName: __ZNSt3__13minB8ue170006ImNS_6__lessIvvEEEERKT_S5_S5_T0_, symObjAddr: 0x1D6C, symBinAddr: 0x100002F04, symSize: 0x54 }
  - { offsetInCU: 0xFB6C, offset: 0xFB6C, size: 0x8, addend: 0x0, symName: __ZNSt3__120__throw_length_errorB8ue170006EPKc, symObjAddr: 0x1E4C, symBinAddr: 0x100002FE4, symSize: 0x64 }
  - { offsetInCU: 0xFB96, offset: 0xFB96, size: 0x8, addend: 0x0, symName: __ZNSt3__13maxB8ue170006ImNS_6__lessIvvEEEERKT_S5_S5_T0_, symObjAddr: 0x1F90, symBinAddr: 0x100003128, symSize: 0x54 }
  - { offsetInCU: 0xFBF0, offset: 0xFBF0, size: 0x8, addend: 0x0, symName: __ZNSt3__119__allocate_at_leastB8ue170006INS_9allocatorI9PredicateEEEENS_19__allocation_resultINS_16allocator_traitsIT_E7pointerEEERS6_m, symObjAddr: 0x2100, symBinAddr: 0x100003298, symSize: 0x40 }
  - { offsetInCU: 0xFC33, offset: 0xFC33, size: 0x8, addend: 0x0, symName: __ZNSt3__117__libcpp_allocateB8ue170006Emm, symObjAddr: 0x2288, symBinAddr: 0x100003420, symSize: 0x60 }
  - { offsetInCU: 0xFC8D, offset: 0xFC8D, size: 0x8, addend: 0x0, symName: __ZNSt3__124__is_overaligned_for_newB8ue170006Em, symObjAddr: 0x22E8, symBinAddr: 0x100003480, symSize: 0x20 }
  - { offsetInCU: 0xFCBB, offset: 0xFCBB, size: 0x8, addend: 0x0, symName: __ZNSt3__121__libcpp_operator_newB8ue170006IJmSt11align_val_tEEEPvDpT_, symObjAddr: 0x2308, symBinAddr: 0x1000034A0, symSize: 0x2C }
  - { offsetInCU: 0xFD08, offset: 0xFD08, size: 0x8, addend: 0x0, symName: __ZNSt3__121__libcpp_operator_newB8ue170006IJmEEEPvDpT_, symObjAddr: 0x2334, symBinAddr: 0x1000034CC, symSize: 0x24 }
  - { offsetInCU: 0xFD41, offset: 0xFD41, size: 0x8, addend: 0x0, symName: __ZNSt3__142__uninitialized_allocator_move_if_noexceptB8ue170006INS_9allocatorI9PredicateEENS_16reverse_iteratorIPS2_EES6_S6_EET2_RT_T0_T1_S7_, symObjAddr: 0x2490, symBinAddr: 0x100003628, symSize: 0x12C }
  - { offsetInCU: 0xFDE1, offset: 0xFDE1, size: 0x8, addend: 0x0, symName: __ZNSt3__14swapB8ue170006IP9PredicateEENS_9enable_ifIXaasr21is_move_constructibleIT_EE5valuesr18is_move_assignableIS4_EE5valueEvE4typeERS4_S7_, symObjAddr: 0x2608, symBinAddr: 0x1000037A0, symSize: 0x3C }
  - { offsetInCU: 0xFE32, offset: 0xFE32, size: 0x8, addend: 0x0, symName: __ZNSt3__122__make_exception_guardB8ue170006INS_29_AllocatorDestroyRangeReverseINS_9allocatorI9PredicateEENS_16reverse_iteratorIPS3_EEEEEENS_28__exception_guard_exceptionsIT_EESA_, symObjAddr: 0x2754, symBinAddr: 0x1000038EC, symSize: 0x4C }
  - { offsetInCU: 0xFE68, offset: 0xFE68, size: 0x8, addend: 0x0, symName: __ZNSt3__1neB8ue170006IP9PredicateS2_EEbRKNS_16reverse_iteratorIT_EERKNS3_IT0_EE, symObjAddr: 0x27E4, symBinAddr: 0x10000397C, symSize: 0x48 }
  - { offsetInCU: 0xFEB4, offset: 0xFEB4, size: 0x8, addend: 0x0, symName: __ZNSt3__112__to_addressB8ue170006INS_16reverse_iteratorIP9PredicateEEvEEu7__decayIDTclsr19__to_address_helperIT_EE6__callclsr3stdE7declvalIRKS5_EEEEES7_, symObjAddr: 0x2860, symBinAddr: 0x1000039F8, symSize: 0x24 }
  - { offsetInCU: 0xFF13, offset: 0xFF13, size: 0x8, addend: 0x0, symName: __ZNSt3__119__allocator_destroyB8ue170006INS_9allocatorI9PredicateEENS_16reverse_iteratorINS4_IPS2_EEEES7_EEvRT_T0_T1_, symObjAddr: 0x2CA4, symBinAddr: 0x100003E3C, symSize: 0x70 }
  - { offsetInCU: 0xFF78, offset: 0xFF78, size: 0x8, addend: 0x0, symName: __ZNSt3__1neB8ue170006INS_16reverse_iteratorIP9PredicateEES4_EEbRKNS1_IT_EERKNS1_IT0_EE, symObjAddr: 0x2D50, symBinAddr: 0x100003EE8, symSize: 0x60 }
  - { offsetInCU: 0xFFC4, offset: 0xFFC4, size: 0x8, addend: 0x0, symName: __ZNSt3__112__to_addressB8ue170006INS_16reverse_iteratorINS1_IP9PredicateEEEEvEEu7__decayIDTclsr19__to_address_helperIT_EE6__callclsr3stdE7declvalIRKS6_EEEEES8_, symObjAddr: 0x2DDC, symBinAddr: 0x100003F74, symSize: 0x24 }
  - { offsetInCU: 0x10023, offset: 0x10023, size: 0x8, addend: 0x0, symName: __ZNSt3__119__libcpp_deallocateB8ue170006EPvmm, symObjAddr: 0x3198, symBinAddr: 0x100004330, symSize: 0x60 }
  - { offsetInCU: 0x10088, offset: 0x10088, size: 0x8, addend: 0x0, symName: __ZNSt3__127__do_deallocate_handle_sizeB8ue170006IJSt11align_val_tEEEvPvmDpT_, symObjAddr: 0x31F8, symBinAddr: 0x100004390, symSize: 0x30 }
  - { offsetInCU: 0x100DB, offset: 0x100DB, size: 0x8, addend: 0x0, symName: __ZNSt3__127__do_deallocate_handle_sizeB8ue170006IJEEEvPvmDpT_, symObjAddr: 0x3228, symBinAddr: 0x1000043C0, symSize: 0x28 }
  - { offsetInCU: 0x10119, offset: 0x10119, size: 0x8, addend: 0x0, symName: __ZNSt3__124__libcpp_operator_deleteB8ue170006IJPvSt11align_val_tEEEvDpT_, symObjAddr: 0x3250, symBinAddr: 0x1000043E8, symSize: 0x2C }
  - { offsetInCU: 0x10162, offset: 0x10162, size: 0x8, addend: 0x0, symName: __ZNSt3__124__libcpp_operator_deleteB8ue170006IJPvEEEvDpT_, symObjAddr: 0x327C, symBinAddr: 0x100004414, symSize: 0x24 }
  - { offsetInCU: 0x10197, offset: 0x10197, size: 0x8, addend: 0x0, symName: __ZNSt3__1lsB8ue170006INS_11char_traitsIcEEEERNS_13basic_ostreamIcT_EES6_PKc, symObjAddr: 0x35B4, symBinAddr: 0x10000474C, symSize: 0x48 }
  - { offsetInCU: 0x101DD, offset: 0x101DD, size: 0x8, addend: 0x0, symName: __ZNSt3__14endlB8ue170006IcNS_11char_traitsIcEEEERNS_13basic_ostreamIT_T0_EES7_, symObjAddr: 0x37B0, symBinAddr: 0x100004948, symSize: 0x58 }
  - { offsetInCU: 0x1021D, offset: 0x1021D, size: 0x8, addend: 0x0, symName: __ZNSt3__1neB8ue170006IP9PredicateEEbRKNS_11__wrap_iterIT_EES7_, symObjAddr: 0x38A4, symBinAddr: 0x100004A3C, symSize: 0x34 }
  - { offsetInCU: 0x10260, offset: 0x10260, size: 0x8, addend: 0x0, symName: __ZNSt3__1eqB8ue170006INS_9allocatorIcEEEEbRKNS_12basic_stringIcNS_11char_traitsIcEET_EES9_, symObjAddr: 0x3944, symBinAddr: 0x100004ADC, symSize: 0x148 }
  - { offsetInCU: 0x1033D, offset: 0x1033D, size: 0x8, addend: 0x0, symName: __ZNSt3__116forward_as_tupleB8ue170006IJRKiEEENS_5tupleIJDpOT_EEES6_, symObjAddr: 0x4520, symBinAddr: 0x1000056B8, symSize: 0x2C }
  - { offsetInCU: 0x10376, offset: 0x10376, size: 0x8, addend: 0x0, symName: __ZNSt3__116forward_as_tupleB8ue170006IJEEENS_5tupleIJDpOT_EEES4_, symObjAddr: 0x454C, symBinAddr: 0x1000056E4, symSize: 0x4 }
  - { offsetInCU: 0x1039A, offset: 0x1039A, size: 0x8, addend: 0x0, symName: __ZNSt3__17launderB8ue170006IKNS_4pairIKi4NodeEEEEPT_S7_, symObjAddr: 0x4C18, symBinAddr: 0x100005DB0, symSize: 0x24 }
  - { offsetInCU: 0x103D1, offset: 0x103D1, size: 0x8, addend: 0x0, symName: __ZNSt3__19__launderB8ue170006IKNS_4pairIKi4NodeEEEEPT_S7_, symObjAddr: 0x4C3C, symBinAddr: 0x100005DD4, symSize: 0x14 }
  - { offsetInCU: 0x10431, offset: 0x10431, size: 0x8, addend: 0x0, symName: __ZNSt3__13getB8ue170006ILm0EJRKiEEERNS_13tuple_elementIXT_ENS_5tupleIJDpT0_EEEE4typeERS7_, symObjAddr: 0x510C, symBinAddr: 0x1000062A4, symSize: 0x24 }
  - { offsetInCU: 0x10474, offset: 0x10474, size: 0x8, addend: 0x0, symName: __ZNSt3__127__tree_balance_after_insertB8ue170006IPNS_16__tree_node_baseIPvEEEEvT_S5_, symObjAddr: 0x51BC, symBinAddr: 0x100006354, symSize: 0x32C }
  - { offsetInCU: 0x104F0, offset: 0x104F0, size: 0x8, addend: 0x0, symName: __ZNSt3__120__tree_is_left_childB8ue170006IPNS_16__tree_node_baseIPvEEEEbT_, symObjAddr: 0x5528, symBinAddr: 0x1000066C0, symSize: 0x2C }
  - { offsetInCU: 0x10525, offset: 0x10525, size: 0x8, addend: 0x0, symName: __ZNSt3__118__tree_left_rotateB8ue170006IPNS_16__tree_node_baseIPvEEEEvT_, symObjAddr: 0x5554, symBinAddr: 0x1000066EC, symSize: 0xD8 }
  - { offsetInCU: 0x10567, offset: 0x10567, size: 0x8, addend: 0x0, symName: __ZNSt3__119__tree_right_rotateB8ue170006IPNS_16__tree_node_baseIPvEEEEvT_, symObjAddr: 0x562C, symBinAddr: 0x1000067C4, symSize: 0xCC }
  - { offsetInCU: 0x10600, offset: 0x10600, size: 0x8, addend: 0x0, symName: __ZNSt3__17launderB8ue170006INS_4pairIKi4NodeEEEEPT_S6_, symObjAddr: 0x5B34, symBinAddr: 0x100006CCC, symSize: 0x24 }
  - { offsetInCU: 0x10637, offset: 0x10637, size: 0x8, addend: 0x0, symName: __ZNSt3__19__launderB8ue170006INS_4pairIKi4NodeEEEEPT_S6_, symObjAddr: 0x5B58, symBinAddr: 0x100006CF0, symSize: 0x14 }
  - { offsetInCU: 0x1066E, offset: 0x1066E, size: 0x8, addend: 0x0, symName: __ZNSt3__116__pad_and_outputB8ue170006IcNS_11char_traitsIcEEEENS_19ostreambuf_iteratorIT_T0_EES6_PKS4_S8_S8_RNS_8ios_baseES4_, symObjAddr: 0x6438, symBinAddr: 0x1000075D0, symSize: 0x240 }
  - { offsetInCU: 0x1073D, offset: 0x1073D, size: 0x8, addend: 0x0, symName: __ZNSt3__112__to_addressB8ue170006IcEEPT_S2_, symObjAddr: 0x69A0, symBinAddr: 0x100007B38, symSize: 0x14 }
  - { offsetInCU: 0x107A5, offset: 0x107A5, size: 0x8, addend: 0x0, symName: __ZNSt3__19use_facetB8ue170006INS_5ctypeIcEEEERKT_RKNS_6localeE, symObjAddr: 0x6C20, symBinAddr: 0x100007DB8, symSize: 0x2C }
  - { offsetInCU: 0x10C72, offset: 0x10C72, size: 0x8, addend: 0x0, symName: __ZNSt3__118__constexpr_strlenB8ue170006EPKc, symObjAddr: 0x6CB8, symBinAddr: 0x100007E50, symSize: 0x24 }
  - { offsetInCU: 0x10C9E, offset: 0x10C9E, size: 0x8, addend: 0x0, symName: __ZNSt3__1plB8ue170006IcNS_11char_traitsIcEENS_9allocatorIcEEEENS_12basic_stringIT_T0_T1_EEOS9_PKS6_, symObjAddr: 0x6CDC, symBinAddr: 0x100007E74, symSize: 0x40 }
  - { offsetInCU: 0x10CF6, offset: 0x10CF6, size: 0x8, addend: 0x0, symName: __ZNSt3__112__to_addressB8ue170006IKcEEPT_S3_, symObjAddr: 0x6E68, symBinAddr: 0x100008000, symSize: 0x14 }
  - { offsetInCU: 0x10D5E, offset: 0x10D5E, size: 0x8, addend: 0x0, symName: __ZNSt3__122__make_exception_guardB8ue170006INS_6vectorI9PredicateNS_9allocatorIS2_EEE16__destroy_vectorEEENS_28__exception_guard_exceptionsIT_EES8_, symObjAddr: 0x71B8, symBinAddr: 0x100008350, symSize: 0x40 }
  - { offsetInCU: 0x10D93, offset: 0x10D93, size: 0x8, addend: 0x0, symName: __ZNSt3__130__uninitialized_allocator_copyB8ue170006INS_9allocatorI9PredicateEEPS2_S4_S4_EET2_RT_T0_T1_S5_, symObjAddr: 0x73D8, symBinAddr: 0x100008570, symSize: 0x80 }
  - { offsetInCU: 0x10E30, offset: 0x10E30, size: 0x8, addend: 0x0, symName: __ZNSt3__114__unwrap_rangeB8ue170006IP9PredicateS2_EENS_4pairIT0_S4_EET_S6_, symObjAddr: 0x7458, symBinAddr: 0x1000085F0, symSize: 0x60 }
  - { offsetInCU: 0x10E7C, offset: 0x10E7C, size: 0x8, addend: 0x0, symName: __ZNSt3__135__uninitialized_allocator_copy_implB8ue170006INS_9allocatorI9PredicateEEPS2_S4_S4_EET2_RT_T0_T1_S5_, symObjAddr: 0x74B8, symBinAddr: 0x100008650, symSize: 0xF4 }
  - { offsetInCU: 0x10F1A, offset: 0x10F1A, size: 0x8, addend: 0x0, symName: __ZNSt3__113__unwrap_iterB8ue170006IP9PredicateNS_18__unwrap_iter_implIS2_Lb1EEELi0EEEDTclsrT0_8__unwrapclsr3stdE7declvalIT_EEEES6_, symObjAddr: 0x75AC, symBinAddr: 0x100008744, symSize: 0x24 }
  - { offsetInCU: 0x10F5E, offset: 0x10F5E, size: 0x8, addend: 0x0, symName: __ZNSt3__113__rewrap_iterB8ue170006IP9PredicateS2_NS_18__unwrap_iter_implIS2_Lb1EEEEET_S5_T0_, symObjAddr: 0x75D0, symBinAddr: 0x100008768, symSize: 0x3C }
  - { offsetInCU: 0x10FB3, offset: 0x10FB3, size: 0x8, addend: 0x0, symName: __ZNSt3__19make_pairB8ue170006IP9PredicateS2_EENS_4pairINS_18__unwrap_ref_decayIT_E4typeENS4_IT0_E4typeEEEOS5_OS8_, symObjAddr: 0x760C, symBinAddr: 0x1000087A4, symSize: 0x38 }
  - { offsetInCU: 0x110D6, offset: 0x110D6, size: 0x8, addend: 0x0, symName: __ZNSt3__122__make_exception_guardB8ue170006INS_29_AllocatorDestroyRangeReverseINS_9allocatorI9PredicateEEPS3_EEEENS_28__exception_guard_exceptionsIT_EES8_, symObjAddr: 0x76B4, symBinAddr: 0x10000884C, symSize: 0x4C }
  - { offsetInCU: 0x1110C, offset: 0x1110C, size: 0x8, addend: 0x0, symName: __ZNSt3__119__allocator_destroyB8ue170006INS_9allocatorI9PredicateEENS_16reverse_iteratorIPS2_EES6_EEvRT_T0_T1_, symObjAddr: 0x7944, symBinAddr: 0x100008ADC, symSize: 0x70 }
  - { offsetInCU: 0x111C2, offset: 0x111C2, size: 0x8, addend: 0x0, symName: __ZNSt3__1eqB8ue170006IP9PredicateEEbRKNS_11__wrap_iterIT_EES7_, symObjAddr: 0x7AFC, symBinAddr: 0x100008C94, symSize: 0x48 }
  - { offsetInCU: 0x11205, offset: 0x11205, size: 0x8, addend: 0x0, symName: __ZNSt3__1plB8ue170006IcNS_11char_traitsIcEENS_9allocatorIcEEEENS_12basic_stringIT_T0_T1_EERKS9_PKS6_, symObjAddr: 0x7B5C, symBinAddr: 0x100008CF4, symSize: 0x11C }
  - { offsetInCU: 0x11492, offset: 0x11492, size: 0x8, addend: 0x0, symName: __ZNSt3__14copyB8ue170006IPKcPcEET0_T_S5_S4_, symObjAddr: 0x83D8, symBinAddr: 0x100009570, symSize: 0x40 }
  - { offsetInCU: 0x114EC, offset: 0x114EC, size: 0x8, addend: 0x0, symName: __ZNSt3__16__copyB8ue170006INS_17_ClassicAlgPolicyEPKcS3_PcEENS_4pairIT0_T2_EES6_T1_S7_, symObjAddr: 0x8418, symBinAddr: 0x1000095B0, symSize: 0x44 }
  - { offsetInCU: 0x11558, offset: 0x11558, size: 0x8, addend: 0x0, symName: __ZNSt3__123__dispatch_copy_or_moveB8ue170006INS_17_ClassicAlgPolicyENS_11__copy_loopIS1_EENS_14__copy_trivialEPKcS6_PcEENS_4pairIT2_T4_EES9_T3_SA_, symObjAddr: 0x845C, symBinAddr: 0x1000095F4, symSize: 0x44 }
  - { offsetInCU: 0x115D6, offset: 0x115D6, size: 0x8, addend: 0x0, symName: __ZNSt3__121__unwrap_and_dispatchB8ue170006INS_10__overloadINS_11__copy_loopINS_17_ClassicAlgPolicyEEENS_14__copy_trivialEEEPKcS8_PcLi0EEENS_4pairIT0_T2_EESB_T1_SC_, symObjAddr: 0x84A0, symBinAddr: 0x100009638, symSize: 0xB4 }
  - { offsetInCU: 0x11664, offset: 0x11664, size: 0x8, addend: 0x0, symName: __ZNSt3__114__unwrap_rangeB8ue170006IPKcS2_EENS_4pairIT0_S4_EET_S6_, symObjAddr: 0x8554, symBinAddr: 0x1000096EC, symSize: 0x60 }
  - { offsetInCU: 0x117F9, offset: 0x117F9, size: 0x8, addend: 0x0, symName: __ZNSt3__113__unwrap_iterB8ue170006IPcNS_18__unwrap_iter_implIS1_Lb1EEELi0EEEDTclsrT0_8__unwrapclsr3stdE7declvalIT_EEEES5_, symObjAddr: 0x85FC, symBinAddr: 0x100009794, symSize: 0x24 }
  - { offsetInCU: 0x1183D, offset: 0x1183D, size: 0x8, addend: 0x0, symName: __ZNSt3__19make_pairB8ue170006IPKcPcEENS_4pairINS_18__unwrap_ref_decayIT_E4typeENS5_IT0_E4typeEEEOS6_OS9_, symObjAddr: 0x8620, symBinAddr: 0x1000097B8, symSize: 0x38 }
  - { offsetInCU: 0x1188C, offset: 0x1188C, size: 0x8, addend: 0x0, symName: __ZNSt3__114__rewrap_rangeB8ue170006IPKcS2_EET_S3_T0_, symObjAddr: 0x8658, symBinAddr: 0x1000097F0, symSize: 0x2C }
  - { offsetInCU: 0x118D8, offset: 0x118D8, size: 0x8, addend: 0x0, symName: __ZNSt3__113__rewrap_iterB8ue170006IPcS1_NS_18__unwrap_iter_implIS1_Lb1EEEEET_S4_T0_, symObjAddr: 0x8684, symBinAddr: 0x10000981C, symSize: 0x3C }
  - { offsetInCU: 0x1192D, offset: 0x1192D, size: 0x8, addend: 0x0, symName: __ZNSt3__19make_pairB8ue170006IPKcS2_EENS_4pairINS_18__unwrap_ref_decayIT_E4typeENS4_IT0_E4typeEEEOS5_OS8_, symObjAddr: 0x86C0, symBinAddr: 0x100009858, symSize: 0x38 }
  - { offsetInCU: 0x1197C, offset: 0x1197C, size: 0x8, addend: 0x0, symName: __ZNSt3__113__unwrap_iterB8ue170006IPKcNS_18__unwrap_iter_implIS2_Lb1EEELi0EEEDTclsrT0_8__unwrapclsr3stdE7declvalIT_EEEES6_, symObjAddr: 0x86F8, symBinAddr: 0x100009890, symSize: 0x24 }
  - { offsetInCU: 0x11AE7, offset: 0x11AE7, size: 0x8, addend: 0x0, symName: __ZNSt3__119__copy_trivial_implB8ue170006IKccEENS_4pairIPT_PT0_EES4_S4_S6_, symObjAddr: 0x87B0, symBinAddr: 0x100009948, symSize: 0x78 }
  - { offsetInCU: 0x11B4F, offset: 0x11B4F, size: 0x8, addend: 0x0, symName: __ZNSt3__119__constexpr_memmoveB8ue170006IcKcLi0EEEPT_S3_PT0_NS_15__element_countE, symObjAddr: 0x8828, symBinAddr: 0x1000099C0, symSize: 0x64 }
  - { offsetInCU: 0x11BBD, offset: 0x11BBD, size: 0x8, addend: 0x0, symName: __ZNSt3__19make_pairB8ue170006IRPKcPcEENS_4pairINS_18__unwrap_ref_decayIT_E4typeENS6_IT0_E4typeEEEOS7_OSA_, symObjAddr: 0x888C, symBinAddr: 0x100009A24, symSize: 0x38 }
  - { offsetInCU: 0x11C5F, offset: 0x11C5F, size: 0x8, addend: 0x0, symName: __ZNSt3__113__rewrap_iterB8ue170006IPKcS2_NS_18__unwrap_iter_implIS2_Lb1EEEEET_S5_T0_, symObjAddr: 0x89C8, symBinAddr: 0x100009B60, symSize: 0x3C }
  - { offsetInCU: 0x11CB4, offset: 0x11CB4, size: 0x8, addend: 0x0, symName: __ZNSt3__16fill_nB8ue170006IPcmcEET_S2_T0_RKT1_, symObjAddr: 0x8A94, symBinAddr: 0x100009C2C, symSize: 0x44 }
  - { offsetInCU: 0x11D17, offset: 0x11D17, size: 0x8, addend: 0x0, symName: __ZNSt3__18__fill_nB8ue170006IPcmcEET_S2_T0_RKT1_, symObjAddr: 0x8AD8, symBinAddr: 0x100009C70, symSize: 0x64 }
  - { offsetInCU: 0x11D7A, offset: 0x11D7A, size: 0x8, addend: 0x0, symName: __ZNSt3__121__convert_to_integralB8ue170006Em, symObjAddr: 0x8B3C, symBinAddr: 0x100009CD4, symSize: 0x14 }
  - { offsetInCU: 0x11DC4, offset: 0x11DC4, size: 0x8, addend: 0x0, symName: __ZNSt3__1neB8ue170006ERKNS_20__map_const_iteratorINS_21__tree_const_iteratorINS_12__value_typeIi4NodeEEPNS_11__tree_nodeIS4_PvEElEEEESC_, symObjAddr: 0x991C, symBinAddr: 0x10000AAB4, symSize: 0x30 }
  - { offsetInCU: 0x11E01, offset: 0x11E01, size: 0x8, addend: 0x0, symName: __ZNSt3__1plB8ue170006IcNS_11char_traitsIcEENS_9allocatorIcEEEENS_12basic_stringIT_T0_T1_EEPKS6_OS9_, symObjAddr: 0x9974, symBinAddr: 0x10000AB0C, symSize: 0x44 }
  - { offsetInCU: 0x11E59, offset: 0x11E59, size: 0x8, addend: 0x0, symName: __ZNSt3__1neB8ue170006ERKNS_21__tree_const_iteratorINS_12__value_typeIi4NodeEEPNS_11__tree_nodeIS3_PvEElEESA_, symObjAddr: 0x9D08, symBinAddr: 0x10000AEA0, symSize: 0x34 }
  - { offsetInCU: 0x11E96, offset: 0x11E96, size: 0x8, addend: 0x0, symName: __ZNSt3__1eqB8ue170006ERKNS_21__tree_const_iteratorINS_12__value_typeIi4NodeEEPNS_11__tree_nodeIS3_PvEElEESA_, symObjAddr: 0x9D3C, symBinAddr: 0x10000AED4, symSize: 0x30 }
  - { offsetInCU: 0x11F06, offset: 0x11F06, size: 0x8, addend: 0x0, symName: __ZNSt3__1neB8ue170006ERKNS_21__tree_const_iteratorIiPNS_11__tree_nodeIiPvEElEES7_, symObjAddr: 0x9DF0, symBinAddr: 0x10000AF88, symSize: 0x34 }
  - { offsetInCU: 0x11F43, offset: 0x11F43, size: 0x8, addend: 0x0, symName: __ZNSt3__1eqB8ue170006ERKNS_21__tree_const_iteratorIiPNS_11__tree_nodeIiPvEElEES7_, symObjAddr: 0x9F4C, symBinAddr: 0x10000B0E4, symSize: 0x30 }
  - { offsetInCU: 0x11F80, offset: 0x11F80, size: 0x8, addend: 0x0, symName: __ZNSt3__116__tree_next_iterB8ue170006IPNS_15__tree_end_nodeIPNS_16__tree_node_baseIPvEEEES5_EET_T0_, symObjAddr: 0x9FC8, symBinAddr: 0x10000B160, symSize: 0x80 }
  - { offsetInCU: 0x11FBE, offset: 0x11FBE, size: 0x8, addend: 0x0, symName: __ZNSt3__110__tree_minB8ue170006IPNS_16__tree_node_baseIPvEEEET_S5_, symObjAddr: 0xA048, symBinAddr: 0x10000B1E0, symSize: 0x40 }
  - { offsetInCU: 0x11FF3, offset: 0x11FF3, size: 0x8, addend: 0x0, symName: __ZNSt3__112__to_addressB8ue170006INS_12basic_stringIcNS_11char_traitsIcEENS_9allocatorIcEEEEEEPT_S8_, symObjAddr: 0xA464, symBinAddr: 0x10000B5FC, symSize: 0x14 }
  - { offsetInCU: 0x12028, offset: 0x12028, size: 0x8, addend: 0x0, symName: __ZNSt3__122__make_exception_guardB8ue170006INS_6vectorINS_12basic_stringIcNS_11char_traitsIcEENS_9allocatorIcEEEENS5_IS7_EEE16__destroy_vectorEEENS_28__exception_guard_exceptionsIT_EESC_, symObjAddr: 0xA7A0, symBinAddr: 0x10000B938, symSize: 0x40 }
  - { offsetInCU: 0x1205D, offset: 0x1205D, size: 0x8, addend: 0x0, symName: __ZNSt3__119__allocate_at_leastB8ue170006INS_9allocatorINS_12basic_stringIcNS_11char_traitsIcEENS1_IcEEEEEEEENS_19__allocation_resultINS_16allocator_traitsIT_E7pointerEEERSA_m, symObjAddr: 0xAB5C, symBinAddr: 0x10000BCF4, symSize: 0x40 }
  - { offsetInCU: 0x120A0, offset: 0x120A0, size: 0x8, addend: 0x0, symName: __ZNSt3__130__uninitialized_allocator_copyB8ue170006INS_9allocatorINS_12basic_stringIcNS_11char_traitsIcEENS1_IcEEEEEEPKS6_S9_PS6_EET2_RT_T0_T1_SB_, symObjAddr: 0xADF8, symBinAddr: 0x10000BF90, symSize: 0x80 }
  - { offsetInCU: 0x1213D, offset: 0x1213D, size: 0x8, addend: 0x0, symName: __ZNSt3__114__unwrap_rangeB8ue170006IPKNS_12basic_stringIcNS_11char_traitsIcEENS_9allocatorIcEEEES8_EENS_4pairIT0_SA_EET_SC_, symObjAddr: 0xAEF0, symBinAddr: 0x10000C088, symSize: 0x60 }
  - { offsetInCU: 0x12189, offset: 0x12189, size: 0x8, addend: 0x0, symName: __ZNSt3__135__uninitialized_allocator_copy_implB8ue170006INS_9allocatorINS_12basic_stringIcNS_11char_traitsIcEENS1_IcEEEEEEPKS6_S9_PS6_EET2_RT_T0_T1_SB_, symObjAddr: 0xAF50, symBinAddr: 0x10000C0E8, symSize: 0xF4 }
  - { offsetInCU: 0x12227, offset: 0x12227, size: 0x8, addend: 0x0, symName: __ZNSt3__113__unwrap_iterB8ue170006IPNS_12basic_stringIcNS_11char_traitsIcEENS_9allocatorIcEEEENS_18__unwrap_iter_implIS7_Lb1EEELi0EEEDTclsrT0_8__unwrapclsr3stdE7declvalIT_EEEESB_, symObjAddr: 0xB044, symBinAddr: 0x10000C1DC, symSize: 0x24 }
  - { offsetInCU: 0x1226B, offset: 0x1226B, size: 0x8, addend: 0x0, symName: __ZNSt3__113__rewrap_iterB8ue170006IPNS_12basic_stringIcNS_11char_traitsIcEENS_9allocatorIcEEEES7_NS_18__unwrap_iter_implIS7_Lb1EEEEET_SA_T0_, symObjAddr: 0xB068, symBinAddr: 0x10000C200, symSize: 0x3C }
  - { offsetInCU: 0x122C0, offset: 0x122C0, size: 0x8, addend: 0x0, symName: __ZNSt3__19make_pairB8ue170006IPKNS_12basic_stringIcNS_11char_traitsIcEENS_9allocatorIcEEEES8_EENS_4pairINS_18__unwrap_ref_decayIT_E4typeENSA_IT0_E4typeEEEOSB_OSE_, symObjAddr: 0xB0A4, symBinAddr: 0x10000C23C, symSize: 0x38 }
  - { offsetInCU: 0x1230F, offset: 0x1230F, size: 0x8, addend: 0x0, symName: __ZNSt3__113__unwrap_iterB8ue170006IPKNS_12basic_stringIcNS_11char_traitsIcEENS_9allocatorIcEEEENS_18__unwrap_iter_implIS8_Lb1EEELi0EEEDTclsrT0_8__unwrapclsr3stdE7declvalIT_EEEESC_, symObjAddr: 0xB0DC, symBinAddr: 0x10000C274, symSize: 0x24 }
  - { offsetInCU: 0x1247A, offset: 0x1247A, size: 0x8, addend: 0x0, symName: __ZNSt3__112__to_addressB8ue170006IKNS_12basic_stringIcNS_11char_traitsIcEENS_9allocatorIcEEEEEEPT_S9_, symObjAddr: 0xB194, symBinAddr: 0x10000C32C, symSize: 0x14 }
  - { offsetInCU: 0x124AF, offset: 0x124AF, size: 0x8, addend: 0x0, symName: __ZNSt3__122__make_exception_guardB8ue170006INS_29_AllocatorDestroyRangeReverseINS_9allocatorINS_12basic_stringIcNS_11char_traitsIcEENS2_IcEEEEEEPS7_EEEENS_28__exception_guard_exceptionsIT_EESC_, symObjAddr: 0xB1A8, symBinAddr: 0x10000C340, symSize: 0x4C }
  - { offsetInCU: 0x124E5, offset: 0x124E5, size: 0x8, addend: 0x0, symName: __ZNSt3__119__allocator_destroyB8ue170006INS_9allocatorINS_12basic_stringIcNS_11char_traitsIcEENS1_IcEEEEEENS_16reverse_iteratorIPS6_EESA_EEvRT_T0_T1_, symObjAddr: 0xB438, symBinAddr: 0x10000C5D0, symSize: 0x70 }
  - { offsetInCU: 0x12548, offset: 0x12548, size: 0x8, addend: 0x0, symName: __ZNSt3__1neB8ue170006IPNS_12basic_stringIcNS_11char_traitsIcEENS_9allocatorIcEEEES7_EEbRKNS_16reverse_iteratorIT_EERKNS8_IT0_EE, symObjAddr: 0xB4DC, symBinAddr: 0x10000C674, symSize: 0x48 }
  - { offsetInCU: 0x12594, offset: 0x12594, size: 0x8, addend: 0x0, symName: __ZNSt3__112__to_addressB8ue170006INS_16reverse_iteratorIPNS_12basic_stringIcNS_11char_traitsIcEENS_9allocatorIcEEEEEEvEEu7__decayIDTclsr19__to_address_helperIT_EE6__callclsr3stdE7declvalIRKSA_EEEEESC_, symObjAddr: 0xB524, symBinAddr: 0x10000C6BC, symSize: 0x24 }
  - { offsetInCU: 0x12646, offset: 0x12646, size: 0x8, addend: 0x0, symName: __ZNSt3__130__uninitialized_allocator_copyB8ue170006INS_9allocatorINS_12basic_stringIcNS_11char_traitsIcEENS1_IcEEEEEEPS6_S8_S8_EET2_RT_T0_T1_S9_, symObjAddr: 0xB990, symBinAddr: 0x10000CB28, symSize: 0x80 }
  - { offsetInCU: 0x126E3, offset: 0x126E3, size: 0x8, addend: 0x0, symName: __ZNSt3__114__unwrap_rangeB8ue170006IPNS_12basic_stringIcNS_11char_traitsIcEENS_9allocatorIcEEEES7_EENS_4pairIT0_S9_EET_SB_, symObjAddr: 0xBA10, symBinAddr: 0x10000CBA8, symSize: 0x60 }
  - { offsetInCU: 0x1272F, offset: 0x1272F, size: 0x8, addend: 0x0, symName: __ZNSt3__135__uninitialized_allocator_copy_implB8ue170006INS_9allocatorINS_12basic_stringIcNS_11char_traitsIcEENS1_IcEEEEEEPS6_S8_S8_EET2_RT_T0_T1_S9_, symObjAddr: 0xBA70, symBinAddr: 0x10000CC08, symSize: 0xF4 }
  - { offsetInCU: 0x127CD, offset: 0x127CD, size: 0x8, addend: 0x0, symName: __ZNSt3__19make_pairB8ue170006IPNS_12basic_stringIcNS_11char_traitsIcEENS_9allocatorIcEEEES7_EENS_4pairINS_18__unwrap_ref_decayIT_E4typeENS9_IT0_E4typeEEEOSA_OSD_, symObjAddr: 0xBB64, symBinAddr: 0x10000CCFC, symSize: 0x38 }
  - { offsetInCU: 0x128F0, offset: 0x128F0, size: 0x8, addend: 0x0, symName: __ZNSt3__112__to_addressB8ue170006I4RuleEEPT_S3_, symObjAddr: 0xC138, symBinAddr: 0x10000D2D0, symSize: 0x14 }
  - { offsetInCU: 0x12925, offset: 0x12925, size: 0x8, addend: 0x0, symName: __ZNSt3__119__allocate_at_leastB8ue170006INS_9allocatorI4RuleEEEENS_19__allocation_resultINS_16allocator_traitsIT_E7pointerEEERS6_m, symObjAddr: 0xCB28, symBinAddr: 0x10000DCC0, symSize: 0x40 }
  - { offsetInCU: 0x12968, offset: 0x12968, size: 0x8, addend: 0x0, symName: __ZNSt3__142__uninitialized_allocator_move_if_noexceptB8ue170006INS_9allocatorI4RuleEENS_16reverse_iteratorIPS2_EES6_S6_EET2_RT_T0_T1_S7_, symObjAddr: 0xCCE0, symBinAddr: 0x10000DE78, symSize: 0x12C }
  - { offsetInCU: 0x12A08, offset: 0x12A08, size: 0x8, addend: 0x0, symName: __ZNSt3__14swapB8ue170006IP4RuleEENS_9enable_ifIXaasr21is_move_constructibleIT_EE5valuesr18is_move_assignableIS4_EE5valueEvE4typeERS4_S7_, symObjAddr: 0xCE58, symBinAddr: 0x10000DFF0, symSize: 0x3C }
  - { offsetInCU: 0x12A59, offset: 0x12A59, size: 0x8, addend: 0x0, symName: __ZNSt3__122__make_exception_guardB8ue170006INS_29_AllocatorDestroyRangeReverseINS_9allocatorI4RuleEENS_16reverse_iteratorIPS3_EEEEEENS_28__exception_guard_exceptionsIT_EESA_, symObjAddr: 0xCF5C, symBinAddr: 0x10000E0F4, symSize: 0x4C }
  - { offsetInCU: 0x12A8F, offset: 0x12A8F, size: 0x8, addend: 0x0, symName: __ZNSt3__1neB8ue170006IP4RuleS2_EEbRKNS_16reverse_iteratorIT_EERKNS3_IT0_EE, symObjAddr: 0xCFEC, symBinAddr: 0x10000E184, symSize: 0x48 }
  - { offsetInCU: 0x12ADB, offset: 0x12ADB, size: 0x8, addend: 0x0, symName: __ZNSt3__112__to_addressB8ue170006INS_16reverse_iteratorIP4RuleEEvEEu7__decayIDTclsr19__to_address_helperIT_EE6__callclsr3stdE7declvalIRKS5_EEEEES7_, symObjAddr: 0xD068, symBinAddr: 0x10000E200, symSize: 0x24 }
  - { offsetInCU: 0x12B3A, offset: 0x12B3A, size: 0x8, addend: 0x0, symName: __ZNSt3__119__allocator_destroyB8ue170006INS_9allocatorI4RuleEENS_16reverse_iteratorINS4_IPS2_EEEES7_EEvRT_T0_T1_, symObjAddr: 0xD4BC, symBinAddr: 0x10000E654, symSize: 0x70 }
  - { offsetInCU: 0x12B9F, offset: 0x12B9F, size: 0x8, addend: 0x0, symName: __ZNSt3__1neB8ue170006INS_16reverse_iteratorIP4RuleEES4_EEbRKNS1_IT_EERKNS1_IT0_EE, symObjAddr: 0xD568, symBinAddr: 0x10000E700, symSize: 0x60 }
  - { offsetInCU: 0x12BEB, offset: 0x12BEB, size: 0x8, addend: 0x0, symName: __ZNSt3__112__to_addressB8ue170006INS_16reverse_iteratorINS1_IP4RuleEEEEvEEu7__decayIDTclsr19__to_address_helperIT_EE6__callclsr3stdE7declvalIRKS6_EEEEES8_, symObjAddr: 0xD5C8, symBinAddr: 0x10000E760, symSize: 0x24 }
  - { offsetInCU: 0x131CB, offset: 0x131CB, size: 0x8, addend: 0x0, symName: __ZSt28__throw_bad_array_new_lengthB8ue170006v, symObjAddr: 0x2254, symBinAddr: 0x1000033EC, symSize: 0x34 }
  - { offsetInCU: 0x1384F, offset: 0x1384F, size: 0x8, addend: 0x0, symName: __ZNSt3__16vectorI9PredicateNS_9allocatorIS1_EEE26__swap_out_circular_bufferERNS_14__split_bufferIS1_RS3_EE, symObjAddr: 0x1ABC, symBinAddr: 0x100002C54, symSize: 0x110 }
  - { offsetInCU: 0x14674, offset: 0x14674, size: 0x8, addend: 0x0, symName: __ZNSt3__16vectorI4RuleNS_9allocatorIS1_EEE26__swap_out_circular_bufferERNS_14__split_bufferIS1_RS3_EE, symObjAddr: 0xC7B8, symBinAddr: 0x10000D950, symSize: 0x110 }
  - { offsetInCU: 0x16A82, offset: 0x16A82, size: 0x8, addend: 0x0, symName: _main, symObjAddr: 0x0, symBinAddr: 0x100001198, symSize: 0x71C }
  - { offsetInCU: 0x16B8C, offset: 0x16B8C, size: 0x8, addend: 0x0, symName: __ZNSt3__112basic_stringIcNS_11char_traitsIcEENS_9allocatorIcEEEC1B8ue170006ILi0EEEPKc, symObjAddr: 0x71C, symBinAddr: 0x1000018B4, symSize: 0x34 }
  - { offsetInCU: 0x16BCB, offset: 0x16BCB, size: 0x8, addend: 0x0, symName: __ZNSt3__16vectorINS_12basic_stringIcNS_11char_traitsIcEENS_9allocatorIcEEEENS4_IS6_EEEC1B8ue170006ESt16initializer_listIS6_E, symObjAddr: 0x750, symBinAddr: 0x1000018E8, symSize: 0x3C }
  - { offsetInCU: 0x16C22, offset: 0x16C22, size: 0x8, addend: 0x0, symName: __ZNSt3__14pairINS_12basic_stringIcNS_11char_traitsIcEENS_9allocatorIcEEEENS_6vectorIS6_NS4_IS6_EEEEEC1B8ue170006ILb1ELPv0EEERKS6_RKS9_, symObjAddr: 0x78C, symBinAddr: 0x100001924, symSize: 0x3C }
  - { offsetInCU: 0x16C78, offset: 0x16C78, size: 0x8, addend: 0x0, symName: __ZNSt3__16vectorINS_12basic_stringIcNS_11char_traitsIcEENS_9allocatorIcEEEENS4_IS6_EEED1B8ue170006Ev, symObjAddr: 0x7C8, symBinAddr: 0x100001960, symSize: 0x2C }
  - { offsetInCU: 0x16CA2, offset: 0x16CA2, size: 0x8, addend: 0x0, symName: __ZNSt3__14pairINS_12basic_stringIcNS_11char_traitsIcEENS_9allocatorIcEEEENS_6vectorIS6_NS4_IS6_EEEEED1Ev, symObjAddr: 0x7F4, symBinAddr: 0x10000198C, symSize: 0x2C }
  - { offsetInCU: 0x16CCE, offset: 0x16CCE, size: 0x8, addend: 0x0, symName: __ZNSt3__16vectorI4RuleNS_9allocatorIS1_EEEC1B8ue170006Ev, symObjAddr: 0x820, symBinAddr: 0x1000019B8, symSize: 0x2C }
  - { offsetInCU: 0x16CF8, offset: 0x16CF8, size: 0x8, addend: 0x0, symName: __ZN9PredicateC1ERKNSt3__112basic_stringIcNS0_11char_traitsIcEENS0_9allocatorIcEEEE, symObjAddr: 0x84C, symBinAddr: 0x1000019E4, symSize: 0x34 }
  - { offsetInCU: 0x16D30, offset: 0x16D30, size: 0x8, addend: 0x0, symName: __ZN4RuleC1ERK9Predicate, symObjAddr: 0x880, symBinAddr: 0x100001A18, symSize: 0x34 }
  - { offsetInCU: 0x16D68, offset: 0x16D68, size: 0x8, addend: 0x0, symName: __ZN9PredicateD1Ev, symObjAddr: 0x8B4, symBinAddr: 0x100001A4C, symSize: 0x2C }
  - { offsetInCU: 0x16D94, offset: 0x16D94, size: 0x8, addend: 0x0, symName: __ZNSt3__16vectorINS_12basic_stringIcNS_11char_traitsIcEENS_9allocatorIcEEEENS4_IS6_EEEC1ERKS8_, symObjAddr: 0x8E0, symBinAddr: 0x100001A78, symSize: 0x34 }
  - { offsetInCU: 0x16DCF, offset: 0x16DCF, size: 0x8, addend: 0x0, symName: __ZNSt3__16vectorINS_12basic_stringIcNS_11char_traitsIcEENS_9allocatorIcEEEENS4_IS6_EEE5beginB8ue170006Ev, symObjAddr: 0x914, symBinAddr: 0x100001AAC, symSize: 0x30 }
  - { offsetInCU: 0x16DF7, offset: 0x16DF7, size: 0x8, addend: 0x0, symName: __ZNSt3__16vectorINS_12basic_stringIcNS_11char_traitsIcEENS_9allocatorIcEEEENS4_IS6_EEE3endB8ue170006Ev, symObjAddr: 0x944, symBinAddr: 0x100001ADC, symSize: 0x30 }
  - { offsetInCU: 0x16E1F, offset: 0x16E1F, size: 0x8, addend: 0x0, symName: __ZNKSt3__111__wrap_iterIPNS_12basic_stringIcNS_11char_traitsIcEENS_9allocatorIcEEEEEdeB8ue170006Ev, symObjAddr: 0x9A8, symBinAddr: 0x100001B40, symSize: 0x18 }
  - { offsetInCU: 0x16E45, offset: 0x16E45, size: 0x8, addend: 0x0, symName: __ZN4Rule16addBodyPredicateERK9Predicate, symObjAddr: 0x9C0, symBinAddr: 0x100001B58, symSize: 0x30 }
  - { offsetInCU: 0x16E79, offset: 0x16E79, size: 0x8, addend: 0x0, symName: __ZNSt3__111__wrap_iterIPNS_12basic_stringIcNS_11char_traitsIcEENS_9allocatorIcEEEEEppB8ue170006Ev, symObjAddr: 0x9F0, symBinAddr: 0x100001B88, symSize: 0x20 }
  - { offsetInCU: 0x16E9F, offset: 0x16E9F, size: 0x8, addend: 0x0, symName: __ZNSt3__16vectorI4RuleNS_9allocatorIS1_EEE9push_backB8ue170006ERKS1_, symObjAddr: 0xA10, symBinAddr: 0x100001BA8, symSize: 0x6C }
  - { offsetInCU: 0x16ED6, offset: 0x16ED6, size: 0x8, addend: 0x0, symName: __ZN4RuleD1Ev, symObjAddr: 0xA7C, symBinAddr: 0x100001C14, symSize: 0x2C }
  - { offsetInCU: 0x16F99, offset: 0x16F99, size: 0x8, addend: 0x0, symName: __ZN11Interpreter9makeGraphERKNSt3__16vectorI4RuleNS0_9allocatorIS2_EEEE, symObjAddr: 0xAA8, symBinAddr: 0x100001C40, symSize: 0x484 }
  - { offsetInCU: 0x17082, offset: 0x17082, size: 0x8, addend: 0x0, symName: __ZNK5Graph8toStringEv, symObjAddr: 0xF78, symBinAddr: 0x100002110, symSize: 0x254 }
  - { offsetInCU: 0x17116, offset: 0x17116, size: 0x8, addend: 0x0, symName: __ZN5GraphD1Ev, symObjAddr: 0x11CC, symBinAddr: 0x100002364, symSize: 0x2C }
  - { offsetInCU: 0x17142, offset: 0x17142, size: 0x8, addend: 0x0, symName: __ZNSt3__16vectorI4RuleNS_9allocatorIS1_EEED1B8ue170006Ev, symObjAddr: 0x11F8, symBinAddr: 0x100002390, symSize: 0x2C }
  - { offsetInCU: 0x1716C, offset: 0x1716C, size: 0x8, addend: 0x0, symName: __ZNSt3__14pairINS_12basic_stringIcNS_11char_traitsIcEENS_9allocatorIcEEEENS_6vectorIS6_NS4_IS6_EEEEEC2B8ue170006ILb1ELPv0EEERKS6_RKS9_, symObjAddr: 0x1224, symBinAddr: 0x1000023BC, symSize: 0x70 }
  - { offsetInCU: 0x171C2, offset: 0x171C2, size: 0x8, addend: 0x0, symName: __ZNSt3__14pairINS_12basic_stringIcNS_11char_traitsIcEENS_9allocatorIcEEEENS_6vectorIS6_NS4_IS6_EEEEED2Ev, symObjAddr: 0x1294, symBinAddr: 0x10000242C, symSize: 0x38 }
  - { offsetInCU: 0x171EE, offset: 0x171EE, size: 0x8, addend: 0x0, symName: __ZN9PredicateC2ERKNSt3__112basic_stringIcNS0_11char_traitsIcEENS0_9allocatorIcEEEE, symObjAddr: 0x12CC, symBinAddr: 0x100002464, symSize: 0x34 }
  - { offsetInCU: 0x17226, offset: 0x17226, size: 0x8, addend: 0x0, symName: __ZN4RuleC2ERK9Predicate, symObjAddr: 0x1300, symBinAddr: 0x100002498, symSize: 0x40 }
  - { offsetInCU: 0x1725E, offset: 0x1725E, size: 0x8, addend: 0x0, symName: __ZN9PredicateC1ERKS_, symObjAddr: 0x1340, symBinAddr: 0x1000024D8, symSize: 0x34 }
  - { offsetInCU: 0x17293, offset: 0x17293, size: 0x8, addend: 0x0, symName: __ZNSt3__16vectorI9PredicateNS_9allocatorIS1_EEEC1B8ue170006Ev, symObjAddr: 0x1374, symBinAddr: 0x10000250C, symSize: 0x2C }
  - { offsetInCU: 0x172BD, offset: 0x172BD, size: 0x8, addend: 0x0, symName: __ZN9PredicateC2ERKS_, symObjAddr: 0x13A0, symBinAddr: 0x100002538, symSize: 0x34 }
  - { offsetInCU: 0x172F2, offset: 0x172F2, size: 0x8, addend: 0x0, symName: __ZNSt3__16vectorI9PredicateNS_9allocatorIS1_EEEC2B8ue170006Ev, symObjAddr: 0x13D4, symBinAddr: 0x10000256C, symSize: 0x4C }
  - { offsetInCU: 0x17328, offset: 0x17328, size: 0x8, addend: 0x0, symName: __ZNSt3__117__compressed_pairIP9PredicateNS_9allocatorIS1_EEEC1B8ue170006IDnNS_18__default_init_tagEEEOT_OT0_, symObjAddr: 0x1420, symBinAddr: 0x1000025B8, symSize: 0x3C }
  - { offsetInCU: 0x17380, offset: 0x17380, size: 0x8, addend: 0x0, symName: __ZNSt3__117__compressed_pairIP9PredicateNS_9allocatorIS1_EEEC2B8ue170006IDnNS_18__default_init_tagEEEOT_OT0_, symObjAddr: 0x1468, symBinAddr: 0x100002600, symSize: 0x40 }
  - { offsetInCU: 0x173D8, offset: 0x173D8, size: 0x8, addend: 0x0, symName: __ZNSt3__122__compressed_pair_elemIP9PredicateLi0ELb0EEC2B8ue170006IDnvEEOT_, symObjAddr: 0x14A8, symBinAddr: 0x100002640, symSize: 0x1C }
  - { offsetInCU: 0x1741A, offset: 0x1741A, size: 0x8, addend: 0x0, symName: __ZNSt3__122__compressed_pair_elemINS_9allocatorI9PredicateEELi1ELb1EEC2B8ue170006ENS_18__default_init_tagE, symObjAddr: 0x14C4, symBinAddr: 0x10000265C, symSize: 0x2C }
  - { offsetInCU: 0x1744F, offset: 0x1744F, size: 0x8, addend: 0x0, symName: __ZNSt3__19allocatorI9PredicateEC2B8ue170006Ev, symObjAddr: 0x14F0, symBinAddr: 0x100002688, symSize: 0x2C }
  - { offsetInCU: 0x17479, offset: 0x17479, size: 0x8, addend: 0x0, symName: __ZNSt3__116__non_trivial_ifILb1ENS_9allocatorI9PredicateEEEC2B8ue170006Ev, symObjAddr: 0x151C, symBinAddr: 0x1000026B4, symSize: 0x14 }
  - { offsetInCU: 0x174A3, offset: 0x174A3, size: 0x8, addend: 0x0, symName: __ZN9PredicateD2Ev, symObjAddr: 0x1530, symBinAddr: 0x1000026C8, symSize: 0x2C }
  - { offsetInCU: 0x174CF, offset: 0x174CF, size: 0x8, addend: 0x0, symName: __ZNKSt3__111__wrap_iterIPNS_12basic_stringIcNS_11char_traitsIcEENS_9allocatorIcEEEEE4baseB8ue170006Ev, symObjAddr: 0x15A4, symBinAddr: 0x10000273C, symSize: 0x18 }
  - { offsetInCU: 0x174F5, offset: 0x174F5, size: 0x8, addend: 0x0, symName: __ZNSt3__16vectorI9PredicateNS_9allocatorIS1_EEE9push_backB8ue170006ERKS1_, symObjAddr: 0x15BC, symBinAddr: 0x100002754, symSize: 0x6C }
  - { offsetInCU: 0x1752C, offset: 0x1752C, size: 0x8, addend: 0x0, symName: __ZNSt3__16vectorI9PredicateNS_9allocatorIS1_EEE9__end_capB8ue170006Ev, symObjAddr: 0x1628, symBinAddr: 0x1000027C0, symSize: 0x28 }
  - { offsetInCU: 0x17552, offset: 0x17552, size: 0x8, addend: 0x0, symName: __ZNSt3__16vectorI9PredicateNS_9allocatorIS1_EEE22__construct_one_at_endB8ue170006IJRKS1_EEEvDpOT_, symObjAddr: 0x1650, symBinAddr: 0x1000027E8, symSize: 0x90 }
  - { offsetInCU: 0x175A1, offset: 0x175A1, size: 0x8, addend: 0x0, symName: __ZNSt3__16vectorI9PredicateNS_9allocatorIS1_EEE21__push_back_slow_pathIRKS1_EEvOT_, symObjAddr: 0x16E0, symBinAddr: 0x100002878, symSize: 0xD8 }
  - { offsetInCU: 0x175FF, offset: 0x175FF, size: 0x8, addend: 0x0, symName: __ZNSt3__117__compressed_pairIP9PredicateNS_9allocatorIS1_EEE5firstB8ue170006Ev, symObjAddr: 0x17B8, symBinAddr: 0x100002950, symSize: 0x24 }
  - { offsetInCU: 0x17625, offset: 0x17625, size: 0x8, addend: 0x0, symName: __ZNSt3__122__compressed_pair_elemIP9PredicateLi0ELb0EE5__getB8ue170006Ev, symObjAddr: 0x17DC, symBinAddr: 0x100002974, symSize: 0x14 }
  - { offsetInCU: 0x17666, offset: 0x17666, size: 0x8, addend: 0x0, symName: __ZNSt3__16vectorI9PredicateNS_9allocatorIS1_EEE21_ConstructTransactionC1B8ue170006ERS4_m, symObjAddr: 0x17F0, symBinAddr: 0x100002988, symSize: 0x3C }
  - { offsetInCU: 0x176AE, offset: 0x176AE, size: 0x8, addend: 0x0, symName: __ZNSt3__116allocator_traitsINS_9allocatorI9PredicateEEE9constructB8ue170006IS2_JRKS2_EvEEvRS3_PT_DpOT0_, symObjAddr: 0x182C, symBinAddr: 0x1000029C4, symSize: 0x34 }
  - { offsetInCU: 0x17705, offset: 0x17705, size: 0x8, addend: 0x0, symName: __ZNSt3__16vectorI9PredicateNS_9allocatorIS1_EEE7__allocB8ue170006Ev, symObjAddr: 0x1860, symBinAddr: 0x1000029F8, symSize: 0x28 }
  - { offsetInCU: 0x1772B, offset: 0x1772B, size: 0x8, addend: 0x0, symName: __ZNSt3__16vectorI9PredicateNS_9allocatorIS1_EEE21_ConstructTransactionD1B8ue170006Ev, symObjAddr: 0x189C, symBinAddr: 0x100002A34, symSize: 0x2C }
  - { offsetInCU: 0x17755, offset: 0x17755, size: 0x8, addend: 0x0, symName: __ZNSt3__16vectorI9PredicateNS_9allocatorIS1_EEE21_ConstructTransactionC2B8ue170006ERS4_m, symObjAddr: 0x18C8, symBinAddr: 0x100002A60, symSize: 0x4C }
  - { offsetInCU: 0x1779D, offset: 0x1779D, size: 0x8, addend: 0x0, symName: __ZNSt3__19allocatorI9PredicateE9constructB8ue170006IS1_JRKS1_EEEvPT_DpOT0_, symObjAddr: 0x1914, symBinAddr: 0x100002AAC, symSize: 0x30 }
  - { offsetInCU: 0x177F3, offset: 0x177F3, size: 0x8, addend: 0x0, symName: __ZNSt3__117__compressed_pairIP9PredicateNS_9allocatorIS1_EEE6secondB8ue170006Ev, symObjAddr: 0x1944, symBinAddr: 0x100002ADC, symSize: 0x24 }
  - { offsetInCU: 0x17819, offset: 0x17819, size: 0x8, addend: 0x0, symName: __ZNSt3__122__compressed_pair_elemINS_9allocatorI9PredicateEELi1ELb1EE5__getB8ue170006Ev, symObjAddr: 0x1968, symBinAddr: 0x100002B00, symSize: 0x14 }
  - { offsetInCU: 0x1783F, offset: 0x1783F, size: 0x8, addend: 0x0, symName: __ZNSt3__16vectorI9PredicateNS_9allocatorIS1_EEE21_ConstructTransactionD2B8ue170006Ev, symObjAddr: 0x197C, symBinAddr: 0x100002B14, symSize: 0x20 }
  - { offsetInCU: 0x17869, offset: 0x17869, size: 0x8, addend: 0x0, symName: __ZNKSt3__16vectorI9PredicateNS_9allocatorIS1_EEE11__recommendB8ue170006Em, symObjAddr: 0x199C, symBinAddr: 0x100002B34, symSize: 0xB4 }
  - { offsetInCU: 0x178BE, offset: 0x178BE, size: 0x8, addend: 0x0, symName: __ZNKSt3__16vectorI9PredicateNS_9allocatorIS1_EEE4sizeB8ue170006Ev, symObjAddr: 0x1A50, symBinAddr: 0x100002BE8, symSize: 0x28 }
  - { offsetInCU: 0x178E4, offset: 0x178E4, size: 0x8, addend: 0x0, symName: __ZNSt3__114__split_bufferI9PredicateRNS_9allocatorIS1_EEEC1EmmS4_, symObjAddr: 0x1A78, symBinAddr: 0x100002C10, symSize: 0x44 }
  - { offsetInCU: 0x1793A, offset: 0x1793A, size: 0x8, addend: 0x0, symName: __ZNSt3__114__split_bufferI9PredicateRNS_9allocatorIS1_EEED1Ev, symObjAddr: 0x1BCC, symBinAddr: 0x100002D64, symSize: 0x2C }
  - { offsetInCU: 0x17966, offset: 0x17966, size: 0x8, addend: 0x0, symName: __ZNKSt3__16vectorI9PredicateNS_9allocatorIS1_EEE8max_sizeEv, symObjAddr: 0x1BF8, symBinAddr: 0x100002D90, symSize: 0x60 }
  - { offsetInCU: 0x1798E, offset: 0x1798E, size: 0x8, addend: 0x0, symName: __ZNKSt3__16vectorI9PredicateNS_9allocatorIS1_EEE20__throw_length_errorB8ue170006Ev, symObjAddr: 0x1C58, symBinAddr: 0x100002DF0, symSize: 0x1C }
  - { offsetInCU: 0x179B4, offset: 0x179B4, size: 0x8, addend: 0x0, symName: __ZNKSt3__16vectorI9PredicateNS_9allocatorIS1_EEE8capacityB8ue170006Ev, symObjAddr: 0x1C74, symBinAddr: 0x100002E0C, symSize: 0x40 }
  - { offsetInCU: 0x179E5, offset: 0x179E5, size: 0x8, addend: 0x0, symName: __ZNSt3__116allocator_traitsINS_9allocatorI9PredicateEEE8max_sizeB8ue170006IS3_vEEmRKS3_, symObjAddr: 0x1D0C, symBinAddr: 0x100002EA4, symSize: 0x24 }
  - { offsetInCU: 0x17A13, offset: 0x17A13, size: 0x8, addend: 0x0, symName: __ZNKSt3__16vectorI9PredicateNS_9allocatorIS1_EEE7__allocB8ue170006Ev, symObjAddr: 0x1D30, symBinAddr: 0x100002EC8, symSize: 0x28 }
  - { offsetInCU: 0x17A39, offset: 0x17A39, size: 0x8, addend: 0x0, symName: __ZNSt3__114numeric_limitsIlE3maxB8ue170006Ev, symObjAddr: 0x1D58, symBinAddr: 0x100002EF0, symSize: 0x14 }
  - { offsetInCU: 0x17A57, offset: 0x17A57, size: 0x8, addend: 0x0, symName: __ZNKSt3__16__lessIvvEclB8ue170006ImmEEbRKT_RKT0_, symObjAddr: 0x1DC0, symBinAddr: 0x100002F58, symSize: 0x34 }
  - { offsetInCU: 0x17AAB, offset: 0x17AAB, size: 0x8, addend: 0x0, symName: __ZNKSt3__19allocatorI9PredicateE8max_sizeB8ue170006Ev, symObjAddr: 0x1DF4, symBinAddr: 0x100002F8C, symSize: 0x18 }
  - { offsetInCU: 0x17AD1, offset: 0x17AD1, size: 0x8, addend: 0x0, symName: __ZNKSt3__117__compressed_pairIP9PredicateNS_9allocatorIS1_EEE6secondB8ue170006Ev, symObjAddr: 0x1E0C, symBinAddr: 0x100002FA4, symSize: 0x24 }
  - { offsetInCU: 0x17AF7, offset: 0x17AF7, size: 0x8, addend: 0x0, symName: __ZNKSt3__122__compressed_pair_elemINS_9allocatorI9PredicateEELi1ELb1EE5__getB8ue170006Ev, symObjAddr: 0x1E30, symBinAddr: 0x100002FC8, symSize: 0x14 }
  - { offsetInCU: 0x17B1D, offset: 0x17B1D, size: 0x8, addend: 0x0, symName: __ZNSt3__123__libcpp_numeric_limitsIlLb1EE3maxB8ue170006Ev, symObjAddr: 0x1E44, symBinAddr: 0x100002FDC, symSize: 0x8 }
  - { offsetInCU: 0x17B31, offset: 0x17B31, size: 0x8, addend: 0x0, symName: __ZNSt12length_errorC1B8ue170006EPKc, symObjAddr: 0x1EB0, symBinAddr: 0x100003048, symSize: 0x34 }
  - { offsetInCU: 0x17B69, offset: 0x17B69, size: 0x8, addend: 0x0, symName: __ZNSt12length_errorC2B8ue170006EPKc, symObjAddr: 0x1EE4, symBinAddr: 0x10000307C, symSize: 0x4C }
  - { offsetInCU: 0x17BA1, offset: 0x17BA1, size: 0x8, addend: 0x0, symName: __ZNKSt3__16vectorI9PredicateNS_9allocatorIS1_EEE9__end_capB8ue170006Ev, symObjAddr: 0x1F30, symBinAddr: 0x1000030C8, symSize: 0x28 }
  - { offsetInCU: 0x17BC7, offset: 0x17BC7, size: 0x8, addend: 0x0, symName: __ZNKSt3__117__compressed_pairIP9PredicateNS_9allocatorIS1_EEE5firstB8ue170006Ev, symObjAddr: 0x1F58, symBinAddr: 0x1000030F0, symSize: 0x24 }
  - { offsetInCU: 0x17BED, offset: 0x17BED, size: 0x8, addend: 0x0, symName: __ZNKSt3__122__compressed_pair_elemIP9PredicateLi0ELb0EE5__getB8ue170006Ev, symObjAddr: 0x1F7C, symBinAddr: 0x100003114, symSize: 0x14 }
  - { offsetInCU: 0x17C13, offset: 0x17C13, size: 0x8, addend: 0x0, symName: __ZNSt3__114__split_bufferI9PredicateRNS_9allocatorIS1_EEEC2EmmS4_, symObjAddr: 0x1FE4, symBinAddr: 0x10000317C, symSize: 0xE0 }
  - { offsetInCU: 0x17C86, offset: 0x17C86, size: 0x8, addend: 0x0, symName: __ZNSt3__117__compressed_pairIP9PredicateRNS_9allocatorIS1_EEEC1B8ue170006IDnS5_EEOT_OT0_, symObjAddr: 0x20C4, symBinAddr: 0x10000325C, symSize: 0x3C }
  - { offsetInCU: 0x17CDE, offset: 0x17CDE, size: 0x8, addend: 0x0, symName: __ZNSt3__114__split_bufferI9PredicateRNS_9allocatorIS1_EEE7__allocB8ue170006Ev, symObjAddr: 0x2140, symBinAddr: 0x1000032D8, symSize: 0x28 }
  - { offsetInCU: 0x17D04, offset: 0x17D04, size: 0x8, addend: 0x0, symName: __ZNSt3__114__split_bufferI9PredicateRNS_9allocatorIS1_EEE9__end_capB8ue170006Ev, symObjAddr: 0x2168, symBinAddr: 0x100003300, symSize: 0x28 }
  - { offsetInCU: 0x17D2A, offset: 0x17D2A, size: 0x8, addend: 0x0, symName: __ZNSt3__117__compressed_pairIP9PredicateRNS_9allocatorIS1_EEEC2B8ue170006IDnS5_EEOT_OT0_, symObjAddr: 0x2190, symBinAddr: 0x100003328, symSize: 0x48 }
  - { offsetInCU: 0x17D82, offset: 0x17D82, size: 0x8, addend: 0x0, symName: __ZNSt3__122__compressed_pair_elemIRNS_9allocatorI9PredicateEELi1ELb0EEC2B8ue170006IS4_vEEOT_, symObjAddr: 0x21D8, symBinAddr: 0x100003370, symSize: 0x20 }
  - { offsetInCU: 0x17DC4, offset: 0x17DC4, size: 0x8, addend: 0x0, symName: __ZNSt3__19allocatorI9PredicateE8allocateB8ue170006Em, symObjAddr: 0x21F8, symBinAddr: 0x100003390, symSize: 0x5C }
  - { offsetInCU: 0x17DF8, offset: 0x17DF8, size: 0x8, addend: 0x0, symName: __ZNSt3__117__compressed_pairIP9PredicateRNS_9allocatorIS1_EEE6secondB8ue170006Ev, symObjAddr: 0x2358, symBinAddr: 0x1000034F0, symSize: 0x28 }
  - { offsetInCU: 0x17E1E, offset: 0x17E1E, size: 0x8, addend: 0x0, symName: __ZNSt3__122__compressed_pair_elemIRNS_9allocatorI9PredicateEELi1ELb0EE5__getB8ue170006Ev, symObjAddr: 0x2380, symBinAddr: 0x100003518, symSize: 0x18 }
  - { offsetInCU: 0x17E44, offset: 0x17E44, size: 0x8, addend: 0x0, symName: __ZNSt3__117__compressed_pairIP9PredicateRNS_9allocatorIS1_EEE5firstB8ue170006Ev, symObjAddr: 0x2398, symBinAddr: 0x100003530, symSize: 0x24 }
  - { offsetInCU: 0x17E6A, offset: 0x17E6A, size: 0x8, addend: 0x0, symName: __ZNKSt3__16vectorI9PredicateNS_9allocatorIS1_EEE17__annotate_deleteB8ue170006Ev, symObjAddr: 0x23BC, symBinAddr: 0x100003554, symSize: 0xD4 }
  - { offsetInCU: 0x17E90, offset: 0x17E90, size: 0x8, addend: 0x0, symName: __ZNSt3__116reverse_iteratorIP9PredicateEC1B8ue170006ES2_, symObjAddr: 0x25BC, symBinAddr: 0x100003754, symSize: 0x34 }
  - { offsetInCU: 0x17EC8, offset: 0x17EC8, size: 0x8, addend: 0x0, symName: __ZNKSt3__116reverse_iteratorIP9PredicateE4baseB8ue170006Ev, symObjAddr: 0x25F0, symBinAddr: 0x100003788, symSize: 0x18 }
  - { offsetInCU: 0x17EEE, offset: 0x17EEE, size: 0x8, addend: 0x0, symName: __ZNKSt3__16vectorI9PredicateNS_9allocatorIS1_EEE14__annotate_newB8ue170006Em, symObjAddr: 0x2644, symBinAddr: 0x1000037DC, symSize: 0xC8 }
  - { offsetInCU: 0x17F23, offset: 0x17F23, size: 0x8, addend: 0x0, symName: __ZNKSt3__16vectorI9PredicateNS_9allocatorIS1_EEE31__annotate_contiguous_containerB8ue170006EPKvS6_S6_S6_, symObjAddr: 0x270C, symBinAddr: 0x1000038A4, symSize: 0x20 }
  - { offsetInCU: 0x17F79, offset: 0x17F79, size: 0x8, addend: 0x0, symName: __ZNKSt3__16vectorI9PredicateNS_9allocatorIS1_EEE4dataB8ue170006Ev, symObjAddr: 0x272C, symBinAddr: 0x1000038C4, symSize: 0x28 }
  - { offsetInCU: 0x17F9F, offset: 0x17F9F, size: 0x8, addend: 0x0, symName: __ZNSt3__129_AllocatorDestroyRangeReverseINS_9allocatorI9PredicateEENS_16reverse_iteratorIPS2_EEEC1B8ue170006ERS3_RS6_S9_, symObjAddr: 0x27A0, symBinAddr: 0x100003938, symSize: 0x44 }
  - { offsetInCU: 0x17FFC, offset: 0x17FFC, size: 0x8, addend: 0x0, symName: __ZNSt3__116allocator_traitsINS_9allocatorI9PredicateEEE9constructB8ue170006IS2_JS2_EvEEvRS3_PT_DpOT0_, symObjAddr: 0x282C, symBinAddr: 0x1000039C4, symSize: 0x34 }
  - { offsetInCU: 0x18053, offset: 0x18053, size: 0x8, addend: 0x0, symName: __ZNKSt3__116reverse_iteratorIP9PredicateEdeB8ue170006Ev, symObjAddr: 0x2884, symBinAddr: 0x100003A1C, symSize: 0x28 }
  - { offsetInCU: 0x18087, offset: 0x18087, size: 0x8, addend: 0x0, symName: __ZNSt3__116reverse_iteratorIP9PredicateEppB8ue170006Ev, symObjAddr: 0x28AC, symBinAddr: 0x100003A44, symSize: 0x20 }
  - { offsetInCU: 0x180AD, offset: 0x180AD, size: 0x8, addend: 0x0, symName: __ZNSt3__128__exception_guard_exceptionsINS_29_AllocatorDestroyRangeReverseINS_9allocatorI9PredicateEENS_16reverse_iteratorIPS3_EEEEE10__completeB8ue170006Ev, symObjAddr: 0x28CC, symBinAddr: 0x100003A64, symSize: 0x1C }
  - { offsetInCU: 0x180D3, offset: 0x180D3, size: 0x8, addend: 0x0, symName: __ZNSt3__128__exception_guard_exceptionsINS_29_AllocatorDestroyRangeReverseINS_9allocatorI9PredicateEENS_16reverse_iteratorIPS3_EEEEED1B8ue170006Ev, symObjAddr: 0x28E8, symBinAddr: 0x100003A80, symSize: 0x2C }
  - { offsetInCU: 0x180FD, offset: 0x180FD, size: 0x8, addend: 0x0, symName: __ZNSt3__128__exception_guard_exceptionsINS_29_AllocatorDestroyRangeReverseINS_9allocatorI9PredicateEENS_16reverse_iteratorIPS3_EEEEEC1B8ue170006ES8_, symObjAddr: 0x2914, symBinAddr: 0x100003AAC, symSize: 0x34 }
  - { offsetInCU: 0x18136, offset: 0x18136, size: 0x8, addend: 0x0, symName: __ZNSt3__128__exception_guard_exceptionsINS_29_AllocatorDestroyRangeReverseINS_9allocatorI9PredicateEENS_16reverse_iteratorIPS3_EEEEEC2B8ue170006ES8_, symObjAddr: 0x2948, symBinAddr: 0x100003AE0, symSize: 0x30 }
  - { offsetInCU: 0x1816F, offset: 0x1816F, size: 0x8, addend: 0x0, symName: __ZNSt3__129_AllocatorDestroyRangeReverseINS_9allocatorI9PredicateEENS_16reverse_iteratorIPS2_EEEC2B8ue170006ERS3_RS6_S9_, symObjAddr: 0x2978, symBinAddr: 0x100003B10, symSize: 0x38 }
  - { offsetInCU: 0x181C6, offset: 0x181C6, size: 0x8, addend: 0x0, symName: __ZNSt3__19allocatorI9PredicateE9constructB8ue170006IS1_JS1_EEEvPT_DpOT0_, symObjAddr: 0x29B0, symBinAddr: 0x100003B48, symSize: 0x30 }
  - { offsetInCU: 0x1821C, offset: 0x1821C, size: 0x8, addend: 0x0, symName: __ZN9PredicateC1EOS_, symObjAddr: 0x29E0, symBinAddr: 0x100003B78, symSize: 0x34 }
  - { offsetInCU: 0x18251, offset: 0x18251, size: 0x8, addend: 0x0, symName: __ZN9PredicateC2EOS_, symObjAddr: 0x2A14, symBinAddr: 0x100003BAC, symSize: 0x34 }
  - { offsetInCU: 0x18286, offset: 0x18286, size: 0x8, addend: 0x0, symName: __ZNSt3__112basic_stringIcNS_11char_traitsIcEENS_9allocatorIcEEEC1B8ue170006EOS5_, symObjAddr: 0x2A48, symBinAddr: 0x100003BE0, symSize: 0x34 }
  - { offsetInCU: 0x182BF, offset: 0x182BF, size: 0x8, addend: 0x0, symName: __ZNSt3__112basic_stringIcNS_11char_traitsIcEENS_9allocatorIcEEEC2B8ue170006EOS5_, symObjAddr: 0x2A7C, symBinAddr: 0x100003C14, symSize: 0x50 }
  - { offsetInCU: 0x182F8, offset: 0x182F8, size: 0x8, addend: 0x0, symName: __ZNSt3__112basic_stringIcNS_11char_traitsIcEENS_9allocatorIcEEE14__default_initB8ue170006Ev, symObjAddr: 0x2ACC, symBinAddr: 0x100003C64, symSize: 0x40 }
  - { offsetInCU: 0x1831E, offset: 0x1831E, size: 0x8, addend: 0x0, symName: __ZNSt3__117__compressed_pairINS_12basic_stringIcNS_11char_traitsIcEENS_9allocatorIcEEE5__repES5_E5firstB8ue170006Ev, symObjAddr: 0x2B0C, symBinAddr: 0x100003CA4, symSize: 0x24 }
  - { offsetInCU: 0x18344, offset: 0x18344, size: 0x8, addend: 0x0, symName: __ZNSt3__122__compressed_pair_elemINS_12basic_stringIcNS_11char_traitsIcEENS_9allocatorIcEEE5__repELi0ELb0EE5__getB8ue170006Ev, symObjAddr: 0x2B30, symBinAddr: 0x100003CC8, symSize: 0x14 }
  - { offsetInCU: 0x18370, offset: 0x18370, size: 0x8, addend: 0x0, symName: __ZNSt3__119__to_address_helperINS_16reverse_iteratorIP9PredicateEEvE6__callB8ue170006ERKS4_, symObjAddr: 0x2B44, symBinAddr: 0x100003CDC, symSize: 0x38 }
  - { offsetInCU: 0x18393, offset: 0x18393, size: 0x8, addend: 0x0, symName: __ZNKSt3__116reverse_iteratorIP9PredicateEptB8ue170006Ev, symObjAddr: 0x2B7C, symBinAddr: 0x100003D14, symSize: 0x24 }
  - { offsetInCU: 0x183B9, offset: 0x183B9, size: 0x8, addend: 0x0, symName: __ZNSt3__128__exception_guard_exceptionsINS_29_AllocatorDestroyRangeReverseINS_9allocatorI9PredicateEENS_16reverse_iteratorIPS3_EEEEED2B8ue170006Ev, symObjAddr: 0x2BA0, symBinAddr: 0x100003D38, symSize: 0x50 }
  - { offsetInCU: 0x183E3, offset: 0x183E3, size: 0x8, addend: 0x0, symName: __ZNKSt3__129_AllocatorDestroyRangeReverseINS_9allocatorI9PredicateEENS_16reverse_iteratorIPS2_EEEclB8ue170006Ev, symObjAddr: 0x2BF0, symBinAddr: 0x100003D88, symSize: 0xB4 }
  - { offsetInCU: 0x1840A, offset: 0x1840A, size: 0x8, addend: 0x0, symName: __ZNSt3__116reverse_iteratorINS0_IP9PredicateEEEC1B8ue170006ES3_, symObjAddr: 0x2D14, symBinAddr: 0x100003EAC, symSize: 0x3C }
  - { offsetInCU: 0x18442, offset: 0x18442, size: 0x8, addend: 0x0, symName: __ZNSt3__116allocator_traitsINS_9allocatorI9PredicateEEE7destroyB8ue170006IS2_vEEvRS3_PT_, symObjAddr: 0x2DB0, symBinAddr: 0x100003F48, symSize: 0x2C }
  - { offsetInCU: 0x1847F, offset: 0x1847F, size: 0x8, addend: 0x0, symName: __ZNSt3__116reverse_iteratorINS0_IP9PredicateEEEppB8ue170006Ev, symObjAddr: 0x2E00, symBinAddr: 0x100003F98, symSize: 0x30 }
  - { offsetInCU: 0x184A5, offset: 0x184A5, size: 0x8, addend: 0x0, symName: __ZNKSt3__116reverse_iteratorINS0_IP9PredicateEEE4baseB8ue170006Ev, symObjAddr: 0x2E30, symBinAddr: 0x100003FC8, symSize: 0x24 }
  - { offsetInCU: 0x184CB, offset: 0x184CB, size: 0x8, addend: 0x0, symName: __ZNSt3__19allocatorI9PredicateE7destroyB8ue170006EPS1_, symObjAddr: 0x2E54, symBinAddr: 0x100003FEC, symSize: 0x28 }
  - { offsetInCU: 0x18505, offset: 0x18505, size: 0x8, addend: 0x0, symName: __ZNSt3__119__to_address_helperINS_16reverse_iteratorINS1_IP9PredicateEEEEvE6__callB8ue170006ERKS5_, symObjAddr: 0x2E7C, symBinAddr: 0x100004014, symSize: 0x38 }
  - { offsetInCU: 0x18528, offset: 0x18528, size: 0x8, addend: 0x0, symName: __ZNKSt3__116reverse_iteratorINS0_IP9PredicateEEEptB8ue170006Ev, symObjAddr: 0x2EB4, symBinAddr: 0x10000404C, symSize: 0x24 }
  - { offsetInCU: 0x1854E, offset: 0x1854E, size: 0x8, addend: 0x0, symName: __ZNKSt3__116reverse_iteratorINS0_IP9PredicateEEEdeB8ue170006Ev, symObjAddr: 0x2ED8, symBinAddr: 0x100004070, symSize: 0x34 }
  - { offsetInCU: 0x18582, offset: 0x18582, size: 0x8, addend: 0x0, symName: __ZNSt3__116reverse_iteratorIP9PredicateEmmB8ue170006Ev, symObjAddr: 0x2F0C, symBinAddr: 0x1000040A4, symSize: 0x20 }
  - { offsetInCU: 0x185A8, offset: 0x185A8, size: 0x8, addend: 0x0, symName: __ZNSt3__116reverse_iteratorINS0_IP9PredicateEEEC2B8ue170006ES3_, symObjAddr: 0x2F2C, symBinAddr: 0x1000040C4, symSize: 0x2C }
  - { offsetInCU: 0x185E0, offset: 0x185E0, size: 0x8, addend: 0x0, symName: __ZNSt3__116reverse_iteratorIP9PredicateEC2B8ue170006ES2_, symObjAddr: 0x2F58, symBinAddr: 0x1000040F0, symSize: 0x28 }
  - { offsetInCU: 0x18618, offset: 0x18618, size: 0x8, addend: 0x0, symName: __ZNSt3__114__split_bufferI9PredicateRNS_9allocatorIS1_EEED2Ev, symObjAddr: 0x2F80, symBinAddr: 0x100004118, symSize: 0x8C }
  - { offsetInCU: 0x18644, offset: 0x18644, size: 0x8, addend: 0x0, symName: __ZNSt3__114__split_bufferI9PredicateRNS_9allocatorIS1_EEE5clearB8ue170006Ev, symObjAddr: 0x300C, symBinAddr: 0x1000041A4, symSize: 0x28 }
  - { offsetInCU: 0x1866A, offset: 0x1866A, size: 0x8, addend: 0x0, symName: __ZNSt3__116allocator_traitsINS_9allocatorI9PredicateEEE10deallocateB8ue170006ERS3_PS2_m, symObjAddr: 0x3034, symBinAddr: 0x1000041CC, symSize: 0x34 }
  - { offsetInCU: 0x186AC, offset: 0x186AC, size: 0x8, addend: 0x0, symName: __ZNKSt3__114__split_bufferI9PredicateRNS_9allocatorIS1_EEE8capacityB8ue170006Ev, symObjAddr: 0x3068, symBinAddr: 0x100004200, symSize: 0x40 }
  - { offsetInCU: 0x186D2, offset: 0x186D2, size: 0x8, addend: 0x0, symName: __ZNSt3__114__split_bufferI9PredicateRNS_9allocatorIS1_EEE17__destruct_at_endB8ue170006EPS1_, symObjAddr: 0x30A8, symBinAddr: 0x100004240, symSize: 0x2C }
  - { offsetInCU: 0x18706, offset: 0x18706, size: 0x8, addend: 0x0, symName: __ZNSt3__114__split_bufferI9PredicateRNS_9allocatorIS1_EEE17__destruct_at_endB8ue170006EPS1_NS_17integral_constantIbLb0EEE, symObjAddr: 0x30D4, symBinAddr: 0x10000426C, symSize: 0x80 }
  - { offsetInCU: 0x18747, offset: 0x18747, size: 0x8, addend: 0x0, symName: __ZNSt3__19allocatorI9PredicateE10deallocateB8ue170006EPS1_m, symObjAddr: 0x3154, symBinAddr: 0x1000042EC, symSize: 0x44 }
  - { offsetInCU: 0x18789, offset: 0x18789, size: 0x8, addend: 0x0, symName: __ZNKSt3__114__split_bufferI9PredicateRNS_9allocatorIS1_EEE9__end_capB8ue170006Ev, symObjAddr: 0x32A0, symBinAddr: 0x100004438, symSize: 0x28 }
  - { offsetInCU: 0x187AF, offset: 0x187AF, size: 0x8, addend: 0x0, symName: __ZNKSt3__117__compressed_pairIP9PredicateRNS_9allocatorIS1_EEE5firstB8ue170006Ev, symObjAddr: 0x32C8, symBinAddr: 0x100004460, symSize: 0x24 }
  - { offsetInCU: 0x187D5, offset: 0x187D5, size: 0x8, addend: 0x0, symName: __ZN4RuleD2Ev, symObjAddr: 0x32EC, symBinAddr: 0x100004484, symSize: 0x38 }
  - { offsetInCU: 0x18801, offset: 0x18801, size: 0x8, addend: 0x0, symName: __ZNSt3__16vectorI9PredicateNS_9allocatorIS1_EEED1B8ue170006Ev, symObjAddr: 0x3324, symBinAddr: 0x1000044BC, symSize: 0x2C }
  - { offsetInCU: 0x1882B, offset: 0x1882B, size: 0x8, addend: 0x0, symName: __ZNSt3__16vectorI9PredicateNS_9allocatorIS1_EEED2B8ue170006Ev, symObjAddr: 0x3350, symBinAddr: 0x1000044E8, symSize: 0x44 }
  - { offsetInCU: 0x18855, offset: 0x18855, size: 0x8, addend: 0x0, symName: __ZNSt3__16vectorI9PredicateNS_9allocatorIS1_EEE16__destroy_vectorC1B8ue170006ERS4_, symObjAddr: 0x3394, symBinAddr: 0x10000452C, symSize: 0x34 }
  - { offsetInCU: 0x1888E, offset: 0x1888E, size: 0x8, addend: 0x0, symName: __ZNSt3__16vectorI9PredicateNS_9allocatorIS1_EEE16__destroy_vectorclB8ue170006Ev, symObjAddr: 0x33C8, symBinAddr: 0x100004560, symSize: 0x90 }
  - { offsetInCU: 0x188B4, offset: 0x188B4, size: 0x8, addend: 0x0, symName: __ZNSt3__16vectorI9PredicateNS_9allocatorIS1_EEE16__destroy_vectorC2B8ue170006ERS4_, symObjAddr: 0x3458, symBinAddr: 0x1000045F0, symSize: 0x20 }
  - { offsetInCU: 0x188ED, offset: 0x188ED, size: 0x8, addend: 0x0, symName: __ZNSt3__16vectorI9PredicateNS_9allocatorIS1_EEE7__clearB8ue170006Ev, symObjAddr: 0x3478, symBinAddr: 0x100004610, symSize: 0x28 }
  - { offsetInCU: 0x18913, offset: 0x18913, size: 0x8, addend: 0x0, symName: __ZNSt3__16vectorI9PredicateNS_9allocatorIS1_EEE22__base_destruct_at_endB8ue170006EPS1_, symObjAddr: 0x34A0, symBinAddr: 0x100004638, symSize: 0x8C }
  - { offsetInCU: 0x18957, offset: 0x18957, size: 0x8, addend: 0x0, symName: __ZNKSt3__16vectorI4RuleNS_9allocatorIS1_EEE4sizeB8ue170006Ev, symObjAddr: 0x352C, symBinAddr: 0x1000046C4, symSize: 0x28 }
  - { offsetInCU: 0x1897D, offset: 0x1897D, size: 0x8, addend: 0x0, symName: __ZN5GraphC1Ei, symObjAddr: 0x3554, symBinAddr: 0x1000046EC, symSize: 0x34 }
  - { offsetInCU: 0x189B5, offset: 0x189B5, size: 0x8, addend: 0x0, symName: __ZNKSt3__16vectorI4RuleNS_9allocatorIS1_EEEixB8ue170006Em, symObjAddr: 0x3588, symBinAddr: 0x100004720, symSize: 0x2C }
  - { offsetInCU: 0x189EC, offset: 0x189EC, size: 0x8, addend: 0x0, symName: __ZNK4Rule8toStringEv, symObjAddr: 0x35FC, symBinAddr: 0x100004794, symSize: 0x188 }
  - { offsetInCU: 0x18A35, offset: 0x18A35, size: 0x8, addend: 0x0, symName: __ZNSt3__113basic_ostreamIcNS_11char_traitsIcEEElsB8ue170006EPFRS3_S4_E, symObjAddr: 0x3784, symBinAddr: 0x10000491C, symSize: 0x2C }
  - { offsetInCU: 0x18A69, offset: 0x18A69, size: 0x8, addend: 0x0, symName: __ZNK4Rule17getBodyPredicatesEv, symObjAddr: 0x3808, symBinAddr: 0x1000049A0, symSize: 0x3C }
  - { offsetInCU: 0x18A8F, offset: 0x18A8F, size: 0x8, addend: 0x0, symName: __ZNSt3__16vectorI9PredicateNS_9allocatorIS1_EEE5beginB8ue170006Ev, symObjAddr: 0x3844, symBinAddr: 0x1000049DC, symSize: 0x30 }
  - { offsetInCU: 0x18AB7, offset: 0x18AB7, size: 0x8, addend: 0x0, symName: __ZNSt3__16vectorI9PredicateNS_9allocatorIS1_EEE3endB8ue170006Ev, symObjAddr: 0x3874, symBinAddr: 0x100004A0C, symSize: 0x30 }
  - { offsetInCU: 0x18ADF, offset: 0x18ADF, size: 0x8, addend: 0x0, symName: __ZNKSt3__111__wrap_iterIP9PredicateEdeB8ue170006Ev, symObjAddr: 0x38D8, symBinAddr: 0x100004A70, symSize: 0x18 }
  - { offsetInCU: 0x18B05, offset: 0x18B05, size: 0x8, addend: 0x0, symName: __ZNK9Predicate8toStringEv, symObjAddr: 0x38F0, symBinAddr: 0x100004A88, symSize: 0x34 }
  - { offsetInCU: 0x18B2B, offset: 0x18B2B, size: 0x8, addend: 0x0, symName: __ZNSt3__111__wrap_iterIP9PredicateEppB8ue170006Ev, symObjAddr: 0x3924, symBinAddr: 0x100004ABC, symSize: 0x20 }
  - { offsetInCU: 0x18B51, offset: 0x18B51, size: 0x8, addend: 0x0, symName: __ZNK4Rule16getHeadPredicateEv, symObjAddr: 0x3A8C, symBinAddr: 0x100004C24, symSize: 0x38 }
  - { offsetInCU: 0x18B77, offset: 0x18B77, size: 0x8, addend: 0x0, symName: __ZNK9Predicate7getNameEv, symObjAddr: 0x3AC4, symBinAddr: 0x100004C5C, symSize: 0x38 }
  - { offsetInCU: 0x18B9D, offset: 0x18B9D, size: 0x8, addend: 0x0, symName: __ZN5Graph7addEdgeEii, symObjAddr: 0x3AFC, symBinAddr: 0x100004C94, symSize: 0x3C }
  - { offsetInCU: 0x18BDF, offset: 0x18BDF, size: 0x8, addend: 0x0, symName: __ZN5GraphC2Ei, symObjAddr: 0x3B38, symBinAddr: 0x100004CD0, symSize: 0xD0 }
  - { offsetInCU: 0x18C33, offset: 0x18C33, size: 0x8, addend: 0x0, symName: __ZNSt3__13mapIi4NodeNS_4lessIiEENS_9allocatorINS_4pairIKiS1_EEEEEC1B8ue170006Ev, symObjAddr: 0x3C08, symBinAddr: 0x100004DA0, symSize: 0x2C }
  - { offsetInCU: 0x18C5D, offset: 0x18C5D, size: 0x8, addend: 0x0, symName: __ZN4NodeC1Ev, symObjAddr: 0x3C34, symBinAddr: 0x100004DCC, symSize: 0x2C }
  - { offsetInCU: 0x18C89, offset: 0x18C89, size: 0x8, addend: 0x0, symName: __ZNSt3__13mapIi4NodeNS_4lessIiEENS_9allocatorINS_4pairIKiS1_EEEEEixERS6_, symObjAddr: 0x3C60, symBinAddr: 0x100004DF8, symSize: 0x80 }
  - { offsetInCU: 0x18CCC, offset: 0x18CCC, size: 0x8, addend: 0x0, symName: __ZN4NodeaSEOS_, symObjAddr: 0x3CE0, symBinAddr: 0x100004E78, symSize: 0x34 }
  - { offsetInCU: 0x18CFD, offset: 0x18CFD, size: 0x8, addend: 0x0, symName: __ZN4NodeD1Ev, symObjAddr: 0x3D14, symBinAddr: 0x100004EAC, symSize: 0x2C }
  - { offsetInCU: 0x18D29, offset: 0x18D29, size: 0x8, addend: 0x0, symName: __ZNSt3__13mapIi4NodeNS_4lessIiEENS_9allocatorINS_4pairIKiS1_EEEEED1B8ue170006Ev, symObjAddr: 0x3D40, symBinAddr: 0x100004ED8, symSize: 0x2C }
  - { offsetInCU: 0x18D53, offset: 0x18D53, size: 0x8, addend: 0x0, symName: __ZNSt3__13mapIi4NodeNS_4lessIiEENS_9allocatorINS_4pairIKiS1_EEEEEC2B8ue170006Ev, symObjAddr: 0x3D6C, symBinAddr: 0x100004F04, symSize: 0x40 }
  - { offsetInCU: 0x18D7D, offset: 0x18D7D, size: 0x8, addend: 0x0, symName: __ZNSt3__119__map_value_compareIiNS_12__value_typeIi4NodeEENS_4lessIiEELb1EEC1B8ue170006ES5_, symObjAddr: 0x3DAC, symBinAddr: 0x100004F44, symSize: 0x2C }
  - { offsetInCU: 0x18DB6, offset: 0x18DB6, size: 0x8, addend: 0x0, symName: __ZNSt3__16__treeINS_12__value_typeIi4NodeEENS_19__map_value_compareIiS3_NS_4lessIiEELb1EEENS_9allocatorIS3_EEEC1ERKS7_, symObjAddr: 0x3DD8, symBinAddr: 0x100004F70, symSize: 0x34 }
  - { offsetInCU: 0x18DF1, offset: 0x18DF1, size: 0x8, addend: 0x0, symName: __ZNSt3__119__map_value_compareIiNS_12__value_typeIi4NodeEENS_4lessIiEELb1EEC2B8ue170006ES5_, symObjAddr: 0x3E0C, symBinAddr: 0x100004FA4, symSize: 0x14 }
  - { offsetInCU: 0x18E2A, offset: 0x18E2A, size: 0x8, addend: 0x0, symName: __ZNSt3__16__treeINS_12__value_typeIi4NodeEENS_19__map_value_compareIiS3_NS_4lessIiEELb1EEENS_9allocatorIS3_EEEC2ERKS7_, symObjAddr: 0x3E20, symBinAddr: 0x100004FB8, symSize: 0x7C }
  - { offsetInCU: 0x18E65, offset: 0x18E65, size: 0x8, addend: 0x0, symName: __ZNSt3__117__compressed_pairINS_15__tree_end_nodeIPNS_16__tree_node_baseIPvEEEENS_9allocatorINS_11__tree_nodeINS_12__value_typeIi4NodeEES3_EEEEEC1B8ue170006ILb1EvEEv, symObjAddr: 0x3E9C, symBinAddr: 0x100005034, symSize: 0x2C }
  - { offsetInCU: 0x18EA0, offset: 0x18EA0, size: 0x8, addend: 0x0, symName: __ZNSt3__117__compressed_pairImNS_19__map_value_compareIiNS_12__value_typeIi4NodeEENS_4lessIiEELb1EEEEC1B8ue170006IiRKS7_EEOT_OT0_, symObjAddr: 0x3EC8, symBinAddr: 0x100005060, symSize: 0x3C }
  - { offsetInCU: 0x18EF8, offset: 0x18EF8, size: 0x8, addend: 0x0, symName: __ZNSt3__16__treeINS_12__value_typeIi4NodeEENS_19__map_value_compareIiS3_NS_4lessIiEELb1EEENS_9allocatorIS3_EEE10__end_nodeB8ue170006Ev, symObjAddr: 0x3F04, symBinAddr: 0x10000509C, symSize: 0x2C }
  - { offsetInCU: 0x18F1E, offset: 0x18F1E, size: 0x8, addend: 0x0, symName: __ZNSt3__16__treeINS_12__value_typeIi4NodeEENS_19__map_value_compareIiS3_NS_4lessIiEELb1EEENS_9allocatorIS3_EEE12__begin_nodeB8ue170006Ev, symObjAddr: 0x3F30, symBinAddr: 0x1000050C8, symSize: 0x14 }
  - { offsetInCU: 0x18F44, offset: 0x18F44, size: 0x8, addend: 0x0, symName: __ZNSt3__117__compressed_pairINS_15__tree_end_nodeIPNS_16__tree_node_baseIPvEEEENS_9allocatorINS_11__tree_nodeINS_12__value_typeIi4NodeEES3_EEEEEC2B8ue170006ILb1EvEEv, symObjAddr: 0x3F44, symBinAddr: 0x1000050DC, symSize: 0x34 }
  - { offsetInCU: 0x18F79, offset: 0x18F79, size: 0x8, addend: 0x0, symName: __ZNSt3__122__compressed_pair_elemINS_15__tree_end_nodeIPNS_16__tree_node_baseIPvEEEELi0ELb0EEC2B8ue170006ENS_16__value_init_tagE, symObjAddr: 0x3F78, symBinAddr: 0x100005110, symSize: 0x2C }
  - { offsetInCU: 0x18FAE, offset: 0x18FAE, size: 0x8, addend: 0x0, symName: __ZNSt3__122__compressed_pair_elemINS_9allocatorINS_11__tree_nodeINS_12__value_typeIi4NodeEEPvEEEELi1ELb1EEC2B8ue170006ENS_16__value_init_tagE, symObjAddr: 0x3FA4, symBinAddr: 0x10000513C, symSize: 0x2C }
  - { offsetInCU: 0x18FE3, offset: 0x18FE3, size: 0x8, addend: 0x0, symName: __ZNSt3__115__tree_end_nodeIPNS_16__tree_node_baseIPvEEEC1B8ue170006Ev, symObjAddr: 0x3FD0, symBinAddr: 0x100005168, symSize: 0x2C }
  - { offsetInCU: 0x1900D, offset: 0x1900D, size: 0x8, addend: 0x0, symName: __ZNSt3__115__tree_end_nodeIPNS_16__tree_node_baseIPvEEEC2B8ue170006Ev, symObjAddr: 0x3FFC, symBinAddr: 0x100005194, symSize: 0x18 }
  - { offsetInCU: 0x19037, offset: 0x19037, size: 0x8, addend: 0x0, symName: __ZNSt3__19allocatorINS_11__tree_nodeINS_12__value_typeIi4NodeEEPvEEEC2B8ue170006Ev, symObjAddr: 0x4014, symBinAddr: 0x1000051AC, symSize: 0x2C }
  - { offsetInCU: 0x19061, offset: 0x19061, size: 0x8, addend: 0x0, symName: __ZNSt3__116__non_trivial_ifILb1ENS_9allocatorINS_11__tree_nodeINS_12__value_typeIi4NodeEEPvEEEEEC2B8ue170006Ev, symObjAddr: 0x4040, symBinAddr: 0x1000051D8, symSize: 0x14 }
  - { offsetInCU: 0x1908B, offset: 0x1908B, size: 0x8, addend: 0x0, symName: __ZNSt3__117__compressed_pairImNS_19__map_value_compareIiNS_12__value_typeIi4NodeEENS_4lessIiEELb1EEEEC2B8ue170006IiRKS7_EEOT_OT0_, symObjAddr: 0x4054, symBinAddr: 0x1000051EC, symSize: 0x44 }
  - { offsetInCU: 0x190E3, offset: 0x190E3, size: 0x8, addend: 0x0, symName: __ZNSt3__122__compressed_pair_elemImLi0ELb0EEC2B8ue170006IivEEOT_, symObjAddr: 0x4098, symBinAddr: 0x100005230, symSize: 0x24 }
  - { offsetInCU: 0x19125, offset: 0x19125, size: 0x8, addend: 0x0, symName: __ZNSt3__122__compressed_pair_elemINS_19__map_value_compareIiNS_12__value_typeIi4NodeEENS_4lessIiEELb1EEELi1ELb1EEC2B8ue170006IRKS7_vEEOT_, symObjAddr: 0x40BC, symBinAddr: 0x100005254, symSize: 0x18 }
  - { offsetInCU: 0x19167, offset: 0x19167, size: 0x8, addend: 0x0, symName: __ZNSt3__114pointer_traitsIPNS_15__tree_end_nodeIPNS_16__tree_node_baseIPvEEEEE10pointer_toB8ue170006ERS6_, symObjAddr: 0x40D4, symBinAddr: 0x10000526C, symSize: 0x14 }
  - { offsetInCU: 0x1918A, offset: 0x1918A, size: 0x8, addend: 0x0, symName: __ZNSt3__117__compressed_pairINS_15__tree_end_nodeIPNS_16__tree_node_baseIPvEEEENS_9allocatorINS_11__tree_nodeINS_12__value_typeIi4NodeEES3_EEEEE5firstB8ue170006Ev, symObjAddr: 0x40E8, symBinAddr: 0x100005280, symSize: 0x24 }
  - { offsetInCU: 0x191B0, offset: 0x191B0, size: 0x8, addend: 0x0, symName: __ZNSt3__122__compressed_pair_elemINS_15__tree_end_nodeIPNS_16__tree_node_baseIPvEEEELi0ELb0EE5__getB8ue170006Ev, symObjAddr: 0x410C, symBinAddr: 0x1000052A4, symSize: 0x14 }
  - { offsetInCU: 0x191D6, offset: 0x191D6, size: 0x8, addend: 0x0, symName: __ZN4NodeC2Ev, symObjAddr: 0x4120, symBinAddr: 0x1000052B8, symSize: 0x2C }
  - { offsetInCU: 0x19202, offset: 0x19202, size: 0x8, addend: 0x0, symName: __ZNSt3__13setIiNS_4lessIiEENS_9allocatorIiEEEC1B8ue170006Ev, symObjAddr: 0x414C, symBinAddr: 0x1000052E4, symSize: 0x2C }
  - { offsetInCU: 0x1922C, offset: 0x1922C, size: 0x8, addend: 0x0, symName: __ZNSt3__13setIiNS_4lessIiEENS_9allocatorIiEEEC2B8ue170006Ev, symObjAddr: 0x4178, symBinAddr: 0x100005310, symSize: 0x30 }
  - { offsetInCU: 0x19256, offset: 0x19256, size: 0x8, addend: 0x0, symName: __ZNSt3__16__treeIiNS_4lessIiEENS_9allocatorIiEEEC1ERKS2_, symObjAddr: 0x41A8, symBinAddr: 0x100005340, symSize: 0x34 }
  - { offsetInCU: 0x19291, offset: 0x19291, size: 0x8, addend: 0x0, symName: __ZNSt3__16__treeIiNS_4lessIiEENS_9allocatorIiEEEC2ERKS2_, symObjAddr: 0x41DC, symBinAddr: 0x100005374, symSize: 0x7C }
  - { offsetInCU: 0x192CC, offset: 0x192CC, size: 0x8, addend: 0x0, symName: __ZNSt3__117__compressed_pairINS_15__tree_end_nodeIPNS_16__tree_node_baseIPvEEEENS_9allocatorINS_11__tree_nodeIiS3_EEEEEC1B8ue170006ILb1EvEEv, symObjAddr: 0x4258, symBinAddr: 0x1000053F0, symSize: 0x2C }
  - { offsetInCU: 0x19301, offset: 0x19301, size: 0x8, addend: 0x0, symName: __ZNSt3__117__compressed_pairImNS_4lessIiEEEC1B8ue170006IiRKS2_EEOT_OT0_, symObjAddr: 0x4284, symBinAddr: 0x10000541C, symSize: 0x3C }
  - { offsetInCU: 0x19359, offset: 0x19359, size: 0x8, addend: 0x0, symName: __ZNSt3__16__treeIiNS_4lessIiEENS_9allocatorIiEEE10__end_nodeB8ue170006Ev, symObjAddr: 0x42C0, symBinAddr: 0x100005458, symSize: 0x2C }
  - { offsetInCU: 0x1937F, offset: 0x1937F, size: 0x8, addend: 0x0, symName: __ZNSt3__16__treeIiNS_4lessIiEENS_9allocatorIiEEE12__begin_nodeB8ue170006Ev, symObjAddr: 0x42EC, symBinAddr: 0x100005484, symSize: 0x14 }
  - { offsetInCU: 0x193A5, offset: 0x193A5, size: 0x8, addend: 0x0, symName: __ZNSt3__117__compressed_pairINS_15__tree_end_nodeIPNS_16__tree_node_baseIPvEEEENS_9allocatorINS_11__tree_nodeIiS3_EEEEEC2B8ue170006ILb1EvEEv, symObjAddr: 0x4300, symBinAddr: 0x100005498, symSize: 0x34 }
  - { offsetInCU: 0x193DA, offset: 0x193DA, size: 0x8, addend: 0x0, symName: __ZNSt3__122__compressed_pair_elemINS_9allocatorINS_11__tree_nodeIiPvEEEELi1ELb1EEC2B8ue170006ENS_16__value_init_tagE, symObjAddr: 0x4334, symBinAddr: 0x1000054CC, symSize: 0x2C }
  - { offsetInCU: 0x1940F, offset: 0x1940F, size: 0x8, addend: 0x0, symName: __ZNSt3__19allocatorINS_11__tree_nodeIiPvEEEC2B8ue170006Ev, symObjAddr: 0x4360, symBinAddr: 0x1000054F8, symSize: 0x2C }
  - { offsetInCU: 0x19439, offset: 0x19439, size: 0x8, addend: 0x0, symName: __ZNSt3__116__non_trivial_ifILb1ENS_9allocatorINS_11__tree_nodeIiPvEEEEEC2B8ue170006Ev, symObjAddr: 0x438C, symBinAddr: 0x100005524, symSize: 0x14 }
  - { offsetInCU: 0x19463, offset: 0x19463, size: 0x8, addend: 0x0, symName: __ZNSt3__117__compressed_pairImNS_4lessIiEEEC2B8ue170006IiRKS2_EEOT_OT0_, symObjAddr: 0x43A0, symBinAddr: 0x100005538, symSize: 0x44 }
  - { offsetInCU: 0x194BB, offset: 0x194BB, size: 0x8, addend: 0x0, symName: __ZNSt3__122__compressed_pair_elemINS_4lessIiEELi1ELb1EEC2B8ue170006IRKS2_vEEOT_, symObjAddr: 0x43E4, symBinAddr: 0x10000557C, symSize: 0x18 }
  - { offsetInCU: 0x194FD, offset: 0x194FD, size: 0x8, addend: 0x0, symName: __ZNSt3__117__compressed_pairINS_15__tree_end_nodeIPNS_16__tree_node_baseIPvEEEENS_9allocatorINS_11__tree_nodeIiS3_EEEEE5firstB8ue170006Ev, symObjAddr: 0x43FC, symBinAddr: 0x100005594, symSize: 0x24 }
  - { offsetInCU: 0x1953A, offset: 0x1953A, size: 0x8, addend: 0x0, symName: __ZNSt3__16__treeINS_12__value_typeIi4NodeEENS_19__map_value_compareIiS3_NS_4lessIiEELb1EEENS_9allocatorIS3_EEE25__emplace_unique_key_argsIiJRKNS_21piecewise_construct_tENS_5tupleIJRKiEEENSF_IJEEEEEENS_4pairINS_15__tree_iteratorIS3_PNS_11__tree_nodeIS3_PvEElEEbEERKT_DpOT0_, symObjAddr: 0x4420, symBinAddr: 0x1000055B8, symSize: 0x100 }
  - { offsetInCU: 0x19610, offset: 0x19610, size: 0x8, addend: 0x0, symName: __ZNKSt3__115__tree_iteratorINS_12__value_typeIi4NodeEEPNS_11__tree_nodeIS3_PvEElEptB8ue170006Ev, symObjAddr: 0x4550, symBinAddr: 0x1000056E8, symSize: 0x2C }
  - { offsetInCU: 0x19636, offset: 0x19636, size: 0x8, addend: 0x0, symName: __ZNSt3__112__value_typeIi4NodeE11__get_valueB8ue170006Ev, symObjAddr: 0x457C, symBinAddr: 0x100005714, symSize: 0x24 }
  - { offsetInCU: 0x1965C, offset: 0x1965C, size: 0x8, addend: 0x0, symName: __ZNSt3__16__treeINS_12__value_typeIi4NodeEENS_19__map_value_compareIiS3_NS_4lessIiEELb1EEENS_9allocatorIS3_EEE12__find_equalIiEERPNS_16__tree_node_baseIPvEERPNS_15__tree_end_nodeISF_EERKT_, symObjAddr: 0x45A0, symBinAddr: 0x100005738, symSize: 0x184 }
  - { offsetInCU: 0x196C9, offset: 0x196C9, size: 0x8, addend: 0x0, symName: __ZNSt3__16__treeINS_12__value_typeIi4NodeEENS_19__map_value_compareIiS3_NS_4lessIiEELb1EEENS_9allocatorIS3_EEE16__construct_nodeIJRKNS_21piecewise_construct_tENS_5tupleIJRKiEEENSF_IJEEEEEENS_10unique_ptrINS_11__tree_nodeIS3_PvEENS_22__tree_node_destructorINS8_ISN_EEEEEEDpOT_, symObjAddr: 0x4724, symBinAddr: 0x1000058BC, symSize: 0x120 }
  - { offsetInCU: 0x19752, offset: 0x19752, size: 0x8, addend: 0x0, symName: __ZNSt3__16__treeINS_12__value_typeIi4NodeEENS_19__map_value_compareIiS3_NS_4lessIiEELb1EEENS_9allocatorIS3_EEE16__insert_node_atEPNS_15__tree_end_nodeIPNS_16__tree_node_baseIPvEEEERSF_SF_, symObjAddr: 0x4844, symBinAddr: 0x1000059DC, symSize: 0xCC }
  - { offsetInCU: 0x197A7, offset: 0x197A7, size: 0x8, addend: 0x0, symName: __ZNKSt3__110unique_ptrINS_11__tree_nodeINS_12__value_typeIi4NodeEEPvEENS_22__tree_node_destructorINS_9allocatorIS6_EEEEE3getB8ue170006Ev, symObjAddr: 0x4910, symBinAddr: 0x100005AA8, symSize: 0x28 }
  - { offsetInCU: 0x197CD, offset: 0x197CD, size: 0x8, addend: 0x0, symName: __ZNSt3__110unique_ptrINS_11__tree_nodeINS_12__value_typeIi4NodeEEPvEENS_22__tree_node_destructorINS_9allocatorIS6_EEEEE7releaseB8ue170006Ev, symObjAddr: 0x4938, symBinAddr: 0x100005AD0, symSize: 0x44 }
  - { offsetInCU: 0x19802, offset: 0x19802, size: 0x8, addend: 0x0, symName: __ZNSt3__110unique_ptrINS_11__tree_nodeINS_12__value_typeIi4NodeEEPvEENS_22__tree_node_destructorINS_9allocatorIS6_EEEEED1B8ue170006Ev, symObjAddr: 0x497C, symBinAddr: 0x100005B14, symSize: 0x2C }
  - { offsetInCU: 0x1982C, offset: 0x1982C, size: 0x8, addend: 0x0, symName: __ZNSt3__115__tree_iteratorINS_12__value_typeIi4NodeEEPNS_11__tree_nodeIS3_PvEElEC1B8ue170006ES7_, symObjAddr: 0x49A8, symBinAddr: 0x100005B40, symSize: 0x34 }
  - { offsetInCU: 0x19871, offset: 0x19871, size: 0x8, addend: 0x0, symName: __ZNSt3__14pairINS_15__tree_iteratorINS_12__value_typeIi4NodeEEPNS_11__tree_nodeIS4_PvEElEEbEC1B8ue170006IS9_RbLS6_0EEEOT_OT0_, symObjAddr: 0x49DC, symBinAddr: 0x100005B74, symSize: 0x3C }
  - { offsetInCU: 0x198CF, offset: 0x198CF, size: 0x8, addend: 0x0, symName: __ZNKSt3__16__treeINS_12__value_typeIi4NodeEENS_19__map_value_compareIiS3_NS_4lessIiEELb1EEENS_9allocatorIS3_EEE6__rootB8ue170006Ev, symObjAddr: 0x4A18, symBinAddr: 0x100005BB0, symSize: 0x28 }
  - { offsetInCU: 0x198F5, offset: 0x198F5, size: 0x8, addend: 0x0, symName: __ZNKSt3__16__treeINS_12__value_typeIi4NodeEENS_19__map_value_compareIiS3_NS_4lessIiEELb1EEENS_9allocatorIS3_EEE10__root_ptrB8ue170006Ev, symObjAddr: 0x4A40, symBinAddr: 0x100005BD8, symSize: 0x24 }
  - { offsetInCU: 0x1991B, offset: 0x1991B, size: 0x8, addend: 0x0, symName: __ZNSt3__16__treeINS_12__value_typeIi4NodeEENS_19__map_value_compareIiS3_NS_4lessIiEELb1EEENS_9allocatorIS3_EEE10value_compB8ue170006Ev, symObjAddr: 0x4A64, symBinAddr: 0x100005BFC, symSize: 0x28 }
  - { offsetInCU: 0x19941, offset: 0x19941, size: 0x8, addend: 0x0, symName: __ZNKSt3__119__map_value_compareIiNS_12__value_typeIi4NodeEENS_4lessIiEELb1EEclB8ue170006ERKiRKS3_, symObjAddr: 0x4A8C, symBinAddr: 0x100005C24, symSize: 0x50 }
  - { offsetInCU: 0x19985, offset: 0x19985, size: 0x8, addend: 0x0, symName: __ZNKSt3__119__map_value_compareIiNS_12__value_typeIi4NodeEENS_4lessIiEELb1EEclB8ue170006ERKS3_RKi, symObjAddr: 0x4ADC, symBinAddr: 0x100005C74, symSize: 0x48 }
  - { offsetInCU: 0x199C9, offset: 0x199C9, size: 0x8, addend: 0x0, symName: __ZNKSt3__16__treeINS_12__value_typeIi4NodeEENS_19__map_value_compareIiS3_NS_4lessIiEELb1EEENS_9allocatorIS3_EEE10__end_nodeB8ue170006Ev, symObjAddr: 0x4B24, symBinAddr: 0x100005CBC, symSize: 0x2C }
  - { offsetInCU: 0x199EF, offset: 0x199EF, size: 0x8, addend: 0x0, symName: __ZNKSt3__117__compressed_pairINS_15__tree_end_nodeIPNS_16__tree_node_baseIPvEEEENS_9allocatorINS_11__tree_nodeINS_12__value_typeIi4NodeEES3_EEEEE5firstB8ue170006Ev, symObjAddr: 0x4B50, symBinAddr: 0x100005CE8, symSize: 0x24 }
  - { offsetInCU: 0x19A15, offset: 0x19A15, size: 0x8, addend: 0x0, symName: __ZNKSt3__122__compressed_pair_elemINS_15__tree_end_nodeIPNS_16__tree_node_baseIPvEEEELi0ELb0EE5__getB8ue170006Ev, symObjAddr: 0x4B74, symBinAddr: 0x100005D0C, symSize: 0x14 }
  - { offsetInCU: 0x19A3B, offset: 0x19A3B, size: 0x8, addend: 0x0, symName: __ZNSt3__117__compressed_pairImNS_19__map_value_compareIiNS_12__value_typeIi4NodeEENS_4lessIiEELb1EEEE6secondB8ue170006Ev, symObjAddr: 0x4B88, symBinAddr: 0x100005D20, symSize: 0x24 }
  - { offsetInCU: 0x19A61, offset: 0x19A61, size: 0x8, addend: 0x0, symName: __ZNSt3__122__compressed_pair_elemINS_19__map_value_compareIiNS_12__value_typeIi4NodeEENS_4lessIiEELb1EEELi1ELb1EE5__getB8ue170006Ev, symObjAddr: 0x4BAC, symBinAddr: 0x100005D44, symSize: 0x14 }
  - { offsetInCU: 0x19A87, offset: 0x19A87, size: 0x8, addend: 0x0, symName: __ZNKSt3__14lessIiEclB8ue170006ERKiS3_, symObjAddr: 0x4BC0, symBinAddr: 0x100005D58, symSize: 0x34 }
  - { offsetInCU: 0x19ACB, offset: 0x19ACB, size: 0x8, addend: 0x0, symName: __ZNKSt3__112__value_typeIi4NodeE11__get_valueB8ue170006Ev, symObjAddr: 0x4BF4, symBinAddr: 0x100005D8C, symSize: 0x24 }
  - { offsetInCU: 0x19AF1, offset: 0x19AF1, size: 0x8, addend: 0x0, symName: __ZNSt3__16__treeINS_12__value_typeIi4NodeEENS_19__map_value_compareIiS3_NS_4lessIiEELb1EEENS_9allocatorIS3_EEE12__node_allocB8ue170006Ev, symObjAddr: 0x4C50, symBinAddr: 0x100005DE8, symSize: 0x28 }
  - { offsetInCU: 0x19B17, offset: 0x19B17, size: 0x8, addend: 0x0, symName: __ZNSt3__116allocator_traitsINS_9allocatorINS_11__tree_nodeINS_12__value_typeIi4NodeEEPvEEEEE8allocateB8ue170006ERS8_m, symObjAddr: 0x4C78, symBinAddr: 0x100005E10, symSize: 0x2C }
  - { offsetInCU: 0x19B4A, offset: 0x19B4A, size: 0x8, addend: 0x0, symName: __ZNSt3__122__tree_node_destructorINS_9allocatorINS_11__tree_nodeINS_12__value_typeIi4NodeEEPvEEEEEC1B8ue170006ERS8_b, symObjAddr: 0x4CA4, symBinAddr: 0x100005E3C, symSize: 0x48 }
  - { offsetInCU: 0x19B98, offset: 0x19B98, size: 0x8, addend: 0x0, symName: __ZNSt3__110unique_ptrINS_11__tree_nodeINS_12__value_typeIi4NodeEEPvEENS_22__tree_node_destructorINS_9allocatorIS6_EEEEEC1B8ue170006ILb1EvEEPS6_NS_16__dependent_typeINS_27__unique_ptr_deleter_sfinaeISA_EEXT_EE20__good_rval_ref_typeE, symObjAddr: 0x4CEC, symBinAddr: 0x100005E84, symSize: 0x3C }
  - { offsetInCU: 0x19BE9, offset: 0x19BE9, size: 0x8, addend: 0x0, symName: __ZNSt3__116allocator_traitsINS_9allocatorINS_11__tree_nodeINS_12__value_typeIi4NodeEEPvEEEEE9constructB8ue170006INS_4pairIKiS4_EEJRKNS_21piecewise_construct_tENS_5tupleIJRSC_EEENSH_IJEEEEvEEvRS8_PT_DpOT0_, symObjAddr: 0x4D28, symBinAddr: 0x100005EC0, symSize: 0x44 }
  - { offsetInCU: 0x19C68, offset: 0x19C68, size: 0x8, addend: 0x0, symName: __ZNSt3__122__tree_key_value_typesINS_12__value_typeIi4NodeEEE9__get_ptrB8ue170006ERS3_, symObjAddr: 0x4D6C, symBinAddr: 0x100005F04, symSize: 0x24 }
  - { offsetInCU: 0x19C8C, offset: 0x19C8C, size: 0x8, addend: 0x0, symName: __ZNKSt3__110unique_ptrINS_11__tree_nodeINS_12__value_typeIi4NodeEEPvEENS_22__tree_node_destructorINS_9allocatorIS6_EEEEEptB8ue170006Ev, symObjAddr: 0x4D90, symBinAddr: 0x100005F28, symSize: 0x28 }
  - { offsetInCU: 0x19CB2, offset: 0x19CB2, size: 0x8, addend: 0x0, symName: __ZNSt3__110unique_ptrINS_11__tree_nodeINS_12__value_typeIi4NodeEEPvEENS_22__tree_node_destructorINS_9allocatorIS6_EEEEE11get_deleterB8ue170006Ev, symObjAddr: 0x4DB8, symBinAddr: 0x100005F50, symSize: 0x24 }
  - { offsetInCU: 0x19CD8, offset: 0x19CD8, size: 0x8, addend: 0x0, symName: __ZNSt3__117__compressed_pairINS_15__tree_end_nodeIPNS_16__tree_node_baseIPvEEEENS_9allocatorINS_11__tree_nodeINS_12__value_typeIi4NodeEES3_EEEEE6secondB8ue170006Ev, symObjAddr: 0x4DDC, symBinAddr: 0x100005F74, symSize: 0x24 }
  - { offsetInCU: 0x19CFE, offset: 0x19CFE, size: 0x8, addend: 0x0, symName: __ZNSt3__122__compressed_pair_elemINS_9allocatorINS_11__tree_nodeINS_12__value_typeIi4NodeEEPvEEEELi1ELb1EE5__getB8ue170006Ev, symObjAddr: 0x4E00, symBinAddr: 0x100005F98, symSize: 0x14 }
  - { offsetInCU: 0x19D24, offset: 0x19D24, size: 0x8, addend: 0x0, symName: __ZNSt3__19allocatorINS_11__tree_nodeINS_12__value_typeIi4NodeEEPvEEE8allocateB8ue170006Em, symObjAddr: 0x4E14, symBinAddr: 0x100005FAC, symSize: 0x58 }
  - { offsetInCU: 0x19D63, offset: 0x19D63, size: 0x8, addend: 0x0, symName: __ZNSt3__116allocator_traitsINS_9allocatorINS_11__tree_nodeINS_12__value_typeIi4NodeEEPvEEEEE8max_sizeB8ue170006IS8_vEEmRKS8_, symObjAddr: 0x4E6C, symBinAddr: 0x100006004, symSize: 0x24 }
  - { offsetInCU: 0x19D91, offset: 0x19D91, size: 0x8, addend: 0x0, symName: __ZNKSt3__19allocatorINS_11__tree_nodeINS_12__value_typeIi4NodeEEPvEEE8max_sizeB8ue170006Ev, symObjAddr: 0x4E90, symBinAddr: 0x100006028, symSize: 0x14 }
  - { offsetInCU: 0x19DB7, offset: 0x19DB7, size: 0x8, addend: 0x0, symName: __ZNSt3__122__tree_node_destructorINS_9allocatorINS_11__tree_nodeINS_12__value_typeIi4NodeEEPvEEEEEC2B8ue170006ERS8_b, symObjAddr: 0x4EA4, symBinAddr: 0x10000603C, symSize: 0x38 }
  - { offsetInCU: 0x19DFF, offset: 0x19DFF, size: 0x8, addend: 0x0, symName: __ZNSt3__110unique_ptrINS_11__tree_nodeINS_12__value_typeIi4NodeEEPvEENS_22__tree_node_destructorINS_9allocatorIS6_EEEEEC2B8ue170006ILb1EvEEPS6_NS_16__dependent_typeINS_27__unique_ptr_deleter_sfinaeISA_EEXT_EE20__good_rval_ref_typeE, symObjAddr: 0x4EDC, symBinAddr: 0x100006074, symSize: 0x48 }
  - { offsetInCU: 0x19E50, offset: 0x19E50, size: 0x8, addend: 0x0, symName: __ZNSt3__117__compressed_pairIPNS_11__tree_nodeINS_12__value_typeIi4NodeEEPvEENS_22__tree_node_destructorINS_9allocatorIS6_EEEEEC1B8ue170006IRS7_SB_EEOT_OT0_, symObjAddr: 0x4F24, symBinAddr: 0x1000060BC, symSize: 0x3C }
  - { offsetInCU: 0x19EA8, offset: 0x19EA8, size: 0x8, addend: 0x0, symName: __ZNSt3__117__compressed_pairIPNS_11__tree_nodeINS_12__value_typeIi4NodeEEPvEENS_22__tree_node_destructorINS_9allocatorIS6_EEEEEC2B8ue170006IRS7_SB_EEOT_OT0_, symObjAddr: 0x4F60, symBinAddr: 0x1000060F8, symSize: 0x48 }
  - { offsetInCU: 0x19F00, offset: 0x19F00, size: 0x8, addend: 0x0, symName: __ZNSt3__122__compressed_pair_elemIPNS_11__tree_nodeINS_12__value_typeIi4NodeEEPvEELi0ELb0EEC2B8ue170006IRS7_vEEOT_, symObjAddr: 0x4FA8, symBinAddr: 0x100006140, symSize: 0x24 }
  - { offsetInCU: 0x19F42, offset: 0x19F42, size: 0x8, addend: 0x0, symName: __ZNSt3__122__compressed_pair_elemINS_22__tree_node_destructorINS_9allocatorINS_11__tree_nodeINS_12__value_typeIi4NodeEEPvEEEEEELi1ELb0EEC2B8ue170006ISA_vEEOT_, symObjAddr: 0x4FCC, symBinAddr: 0x100006164, symSize: 0x24 }
  - { offsetInCU: 0x19F84, offset: 0x19F84, size: 0x8, addend: 0x0, symName: __ZNSt3__19allocatorINS_11__tree_nodeINS_12__value_typeIi4NodeEEPvEEE9constructB8ue170006INS_4pairIKiS3_EEJRKNS_21piecewise_construct_tENS_5tupleIJRSA_EEENSF_IJEEEEEEvPT_DpOT0_, symObjAddr: 0x4FF0, symBinAddr: 0x100006188, symSize: 0x44 }
  - { offsetInCU: 0x1A000, offset: 0x1A000, size: 0x8, addend: 0x0, symName: __ZNSt3__14pairIKi4NodeEC1B8ue170006IJRS1_EJEEENS_21piecewise_construct_tENS_5tupleIJDpT_EEENS7_IJDpT0_EEE, symObjAddr: 0x5034, symBinAddr: 0x1000061CC, symSize: 0x44 }
  - { offsetInCU: 0x1A067, offset: 0x1A067, size: 0x8, addend: 0x0, symName: __ZNSt3__14pairIKi4NodeEC1B8ue170006IJRS1_EJEJLm0EEJEEENS_21piecewise_construct_tERNS_5tupleIJDpT_EEERNS7_IJDpT0_EEENS_15__tuple_indicesIJXspT1_EEEENSG_IJXspT2_EEEE, symObjAddr: 0x5078, symBinAddr: 0x100006210, symSize: 0x3C }
  - { offsetInCU: 0x1A0F7, offset: 0x1A0F7, size: 0x8, addend: 0x0, symName: __ZNSt3__14pairIKi4NodeEC2B8ue170006IJRS1_EJEJLm0EEJEEENS_21piecewise_construct_tERNS_5tupleIJDpT_EEERNS7_IJDpT0_EEENS_15__tuple_indicesIJXspT1_EEEENSG_IJXspT2_EEEE, symObjAddr: 0x50B4, symBinAddr: 0x10000624C, symSize: 0x58 }
  - { offsetInCU: 0x1A187, offset: 0x1A187, size: 0x8, addend: 0x0, symName: __ZNSt3__112__tuple_leafILm0ERKiLb0EE3getB8ue170006Ev, symObjAddr: 0x5130, symBinAddr: 0x1000062C8, symSize: 0x18 }
  - { offsetInCU: 0x1A1AD, offset: 0x1A1AD, size: 0x8, addend: 0x0, symName: __ZNKSt3__117__compressed_pairIPNS_11__tree_nodeINS_12__value_typeIi4NodeEEPvEENS_22__tree_node_destructorINS_9allocatorIS6_EEEEE5firstB8ue170006Ev, symObjAddr: 0x5148, symBinAddr: 0x1000062E0, symSize: 0x24 }
  - { offsetInCU: 0x1A1D3, offset: 0x1A1D3, size: 0x8, addend: 0x0, symName: __ZNKSt3__122__compressed_pair_elemIPNS_11__tree_nodeINS_12__value_typeIi4NodeEEPvEELi0ELb0EE5__getB8ue170006Ev, symObjAddr: 0x516C, symBinAddr: 0x100006304, symSize: 0x14 }
  - { offsetInCU: 0x1A1F9, offset: 0x1A1F9, size: 0x8, addend: 0x0, symName: __ZNSt3__117__compressed_pairIPNS_11__tree_nodeINS_12__value_typeIi4NodeEEPvEENS_22__tree_node_destructorINS_9allocatorIS6_EEEEE6secondB8ue170006Ev, symObjAddr: 0x5180, symBinAddr: 0x100006318, symSize: 0x28 }
  - { offsetInCU: 0x1A21F, offset: 0x1A21F, size: 0x8, addend: 0x0, symName: __ZNSt3__122__compressed_pair_elemINS_22__tree_node_destructorINS_9allocatorINS_11__tree_nodeINS_12__value_typeIi4NodeEEPvEEEEEELi1ELb0EE5__getB8ue170006Ev, symObjAddr: 0x51A8, symBinAddr: 0x100006340, symSize: 0x14 }
  - { offsetInCU: 0x1A245, offset: 0x1A245, size: 0x8, addend: 0x0, symName: __ZNSt3__16__treeINS_12__value_typeIi4NodeEENS_19__map_value_compareIiS3_NS_4lessIiEELb1EEENS_9allocatorIS3_EEE4sizeB8ue170006Ev, symObjAddr: 0x54E8, symBinAddr: 0x100006680, symSize: 0x28 }
  - { offsetInCU: 0x1A26B, offset: 0x1A26B, size: 0x8, addend: 0x0, symName: __ZNKSt3__116__tree_node_baseIPvE15__parent_unsafeB8ue170006Ev, symObjAddr: 0x5510, symBinAddr: 0x1000066A8, symSize: 0x18 }
  - { offsetInCU: 0x1A291, offset: 0x1A291, size: 0x8, addend: 0x0, symName: __ZNSt3__116__tree_node_baseIPvE12__set_parentB8ue170006EPS2_, symObjAddr: 0x56F8, symBinAddr: 0x100006890, symSize: 0x20 }
  - { offsetInCU: 0x1A2C6, offset: 0x1A2C6, size: 0x8, addend: 0x0, symName: __ZNSt3__117__compressed_pairImNS_19__map_value_compareIiNS_12__value_typeIi4NodeEENS_4lessIiEELb1EEEE5firstB8ue170006Ev, symObjAddr: 0x5718, symBinAddr: 0x1000068B0, symSize: 0x24 }
  - { offsetInCU: 0x1A2EC, offset: 0x1A2EC, size: 0x8, addend: 0x0, symName: __ZNSt3__122__compressed_pair_elemImLi0ELb0EE5__getB8ue170006Ev, symObjAddr: 0x573C, symBinAddr: 0x1000068D4, symSize: 0x14 }
  - { offsetInCU: 0x1A312, offset: 0x1A312, size: 0x8, addend: 0x0, symName: __ZNSt3__117__compressed_pairIPNS_11__tree_nodeINS_12__value_typeIi4NodeEEPvEENS_22__tree_node_destructorINS_9allocatorIS6_EEEEE5firstB8ue170006Ev, symObjAddr: 0x5750, symBinAddr: 0x1000068E8, symSize: 0x24 }
  - { offsetInCU: 0x1A338, offset: 0x1A338, size: 0x8, addend: 0x0, symName: __ZNSt3__122__compressed_pair_elemIPNS_11__tree_nodeINS_12__value_typeIi4NodeEEPvEELi0ELb0EE5__getB8ue170006Ev, symObjAddr: 0x5774, symBinAddr: 0x10000690C, symSize: 0x14 }
  - { offsetInCU: 0x1A35E, offset: 0x1A35E, size: 0x8, addend: 0x0, symName: __ZNSt3__110unique_ptrINS_11__tree_nodeINS_12__value_typeIi4NodeEEPvEENS_22__tree_node_destructorINS_9allocatorIS6_EEEEED2B8ue170006Ev, symObjAddr: 0x5788, symBinAddr: 0x100006920, symSize: 0x30 }
  - { offsetInCU: 0x1A388, offset: 0x1A388, size: 0x8, addend: 0x0, symName: __ZNSt3__110unique_ptrINS_11__tree_nodeINS_12__value_typeIi4NodeEEPvEENS_22__tree_node_destructorINS_9allocatorIS6_EEEEE5resetB8ue170006EPS6_, symObjAddr: 0x57B8, symBinAddr: 0x100006950, symSize: 0x78 }
  - { offsetInCU: 0x1A3CC, offset: 0x1A3CC, size: 0x8, addend: 0x0, symName: __ZNSt3__122__tree_node_destructorINS_9allocatorINS_11__tree_nodeINS_12__value_typeIi4NodeEEPvEEEEEclB8ue170006EPS7_, symObjAddr: 0x5830, symBinAddr: 0x1000069C8, symSize: 0x98 }
  - { offsetInCU: 0x1A401, offset: 0x1A401, size: 0x8, addend: 0x0, symName: __ZNSt3__116allocator_traitsINS_9allocatorINS_11__tree_nodeINS_12__value_typeIi4NodeEEPvEEEEE7destroyB8ue170006INS_4pairIKiS4_EEvvEEvRS8_PT_, symObjAddr: 0x58C8, symBinAddr: 0x100006A60, symSize: 0x28 }
  - { offsetInCU: 0x1A43C, offset: 0x1A43C, size: 0x8, addend: 0x0, symName: __ZNSt3__116allocator_traitsINS_9allocatorINS_11__tree_nodeINS_12__value_typeIi4NodeEEPvEEEEE10deallocateB8ue170006ERS8_PS7_m, symObjAddr: 0x58F0, symBinAddr: 0x100006A88, symSize: 0x34 }
  - { offsetInCU: 0x1A47E, offset: 0x1A47E, size: 0x8, addend: 0x0, symName: __ZNSt3__14pairIKi4NodeED1Ev, symObjAddr: 0x5924, symBinAddr: 0x100006ABC, symSize: 0x2C }
  - { offsetInCU: 0x1A4AA, offset: 0x1A4AA, size: 0x8, addend: 0x0, symName: __ZNSt3__14pairIKi4NodeED2Ev, symObjAddr: 0x5950, symBinAddr: 0x100006AE8, symSize: 0x30 }
  - { offsetInCU: 0x1A4D6, offset: 0x1A4D6, size: 0x8, addend: 0x0, symName: __ZNSt3__19allocatorINS_11__tree_nodeINS_12__value_typeIi4NodeEEPvEEE10deallocateB8ue170006EPS6_m, symObjAddr: 0x5980, symBinAddr: 0x100006B18, symSize: 0x40 }
  - { offsetInCU: 0x1A518, offset: 0x1A518, size: 0x8, addend: 0x0, symName: __ZNSt3__115__tree_iteratorINS_12__value_typeIi4NodeEEPNS_11__tree_nodeIS3_PvEElEC2B8ue170006ES7_, symObjAddr: 0x59C0, symBinAddr: 0x100006B58, symSize: 0x20 }
  - { offsetInCU: 0x1A551, offset: 0x1A551, size: 0x8, addend: 0x0, symName: __ZNSt3__14pairINS_15__tree_iteratorINS_12__value_typeIi4NodeEEPNS_11__tree_nodeIS4_PvEElEEbEC2B8ue170006IS9_RbLS6_0EEEOT_OT0_, symObjAddr: 0x59E0, symBinAddr: 0x100006B78, symSize: 0x38 }
  - { offsetInCU: 0x1A5AF, offset: 0x1A5AF, size: 0x8, addend: 0x0, symName: __ZNSt3__15tupleIJRKiEEC1B8ue170006INS_4_AndELi0EEES2_, symObjAddr: 0x5A18, symBinAddr: 0x100006BB0, symSize: 0x34 }
  - { offsetInCU: 0x1A5F7, offset: 0x1A5F7, size: 0x8, addend: 0x0, symName: __ZNSt3__15tupleIJRKiEEC2B8ue170006INS_4_AndELi0EEES2_, symObjAddr: 0x5A4C, symBinAddr: 0x100006BE4, symSize: 0x34 }
  - { offsetInCU: 0x1A63F, offset: 0x1A63F, size: 0x8, addend: 0x0, symName: __ZNSt3__112__tuple_implINS_15__tuple_indicesIJLm0EEEEJRKiEEC1B8ue170006IJLm0EEJS4_EJEJEJS4_EEENS1_IJXspT_EEEENS_13__tuple_typesIJDpT0_EEENS1_IJXspT1_EEEENS8_IJDpT2_EEEDpOT3_, symObjAddr: 0x5A80, symBinAddr: 0x100006C18, symSize: 0x34 }
  - { offsetInCU: 0x1A6D4, offset: 0x1A6D4, size: 0x8, addend: 0x0, symName: __ZNSt3__112__tuple_implINS_15__tuple_indicesIJLm0EEEEJRKiEEC2B8ue170006IJLm0EEJS4_EJEJEJS4_EEENS1_IJXspT_EEEENS_13__tuple_typesIJDpT0_EEENS1_IJXspT1_EEEENS8_IJDpT2_EEEDpOT3_, symObjAddr: 0x5AB4, symBinAddr: 0x100006C4C, symSize: 0x34 }
  - { offsetInCU: 0x1A769, offset: 0x1A769, size: 0x8, addend: 0x0, symName: __ZNSt3__112__tuple_leafILm0ERKiLb0EEC2B8ue170006IS2_vEEOT_, symObjAddr: 0x5AE8, symBinAddr: 0x100006C80, symSize: 0x20 }
  - { offsetInCU: 0x1A7AC, offset: 0x1A7AC, size: 0x8, addend: 0x0, symName: __ZNSt3__114pointer_traitsIPNS_12__value_typeIi4NodeEEE10pointer_toB8ue170006ERS3_, symObjAddr: 0x5B08, symBinAddr: 0x100006CA0, symSize: 0x14 }
  - { offsetInCU: 0x1A7CF, offset: 0x1A7CF, size: 0x8, addend: 0x0, symName: __ZNKSt3__115__tree_iteratorINS_12__value_typeIi4NodeEEPNS_11__tree_nodeIS3_PvEElE8__get_npB8ue170006Ev, symObjAddr: 0x5B1C, symBinAddr: 0x100006CB4, symSize: 0x18 }
  - { offsetInCU: 0x1A7F5, offset: 0x1A7F5, size: 0x8, addend: 0x0, symName: __ZNSt3__13setIiNS_4lessIiEENS_9allocatorIiEEEaSB8ue170006EOS5_, symObjAddr: 0x5B6C, symBinAddr: 0x100006D04, symSize: 0x34 }
  - { offsetInCU: 0x1A82A, offset: 0x1A82A, size: 0x8, addend: 0x0, symName: __ZNSt3__16__treeIiNS_4lessIiEENS_9allocatorIiEEEaSEOS5_, symObjAddr: 0x5BA0, symBinAddr: 0x100006D38, symSize: 0x34 }
  - { offsetInCU: 0x1A861, offset: 0x1A861, size: 0x8, addend: 0x0, symName: __ZNSt3__16__treeIiNS_4lessIiEENS_9allocatorIiEEE13__move_assignERS5_NS_17integral_constantIbLb1EEE, symObjAddr: 0x5BD4, symBinAddr: 0x100006D6C, symSize: 0x138 }
  - { offsetInCU: 0x1A8A4, offset: 0x1A8A4, size: 0x8, addend: 0x0, symName: __ZNSt3__16__treeIiNS_4lessIiEENS_9allocatorIiEEE7destroyEPNS_11__tree_nodeIiPvEE, symObjAddr: 0x5D0C, symBinAddr: 0x100006EA4, symSize: 0xAC }
  - { offsetInCU: 0x1A8F0, offset: 0x1A8F0, size: 0x8, addend: 0x0, symName: __ZNSt3__16__treeIiNS_4lessIiEENS_9allocatorIiEEE19__move_assign_allocB8ue170006ERS5_, symObjAddr: 0x5DB8, symBinAddr: 0x100006F50, symSize: 0x2C }
  - { offsetInCU: 0x1A925, offset: 0x1A925, size: 0x8, addend: 0x0, symName: __ZNSt3__16__treeIiNS_4lessIiEENS_9allocatorIiEEE4sizeB8ue170006Ev, symObjAddr: 0x5DE4, symBinAddr: 0x100006F7C, symSize: 0x28 }
  - { offsetInCU: 0x1A94B, offset: 0x1A94B, size: 0x8, addend: 0x0, symName: __ZNSt3__16__treeIiNS_4lessIiEENS_9allocatorIiEEE12__node_allocB8ue170006Ev, symObjAddr: 0x5E0C, symBinAddr: 0x100006FA4, symSize: 0x28 }
  - { offsetInCU: 0x1A971, offset: 0x1A971, size: 0x8, addend: 0x0, symName: __ZNSt3__116allocator_traitsINS_9allocatorINS_11__tree_nodeIiPvEEEEE7destroyB8ue170006IivvEEvRS5_PT_, symObjAddr: 0x5E34, symBinAddr: 0x100006FCC, symSize: 0x14 }
  - { offsetInCU: 0x1A9AC, offset: 0x1A9AC, size: 0x8, addend: 0x0, symName: __ZNSt3__122__tree_key_value_typesIiE9__get_ptrB8ue170006ERi, symObjAddr: 0x5E48, symBinAddr: 0x100006FE0, symSize: 0x14 }
  - { offsetInCU: 0x1A9D0, offset: 0x1A9D0, size: 0x8, addend: 0x0, symName: __ZNSt3__116allocator_traitsINS_9allocatorINS_11__tree_nodeIiPvEEEEE10deallocateB8ue170006ERS5_PS4_m, symObjAddr: 0x5E5C, symBinAddr: 0x100006FF4, symSize: 0x34 }
  - { offsetInCU: 0x1AA12, offset: 0x1AA12, size: 0x8, addend: 0x0, symName: __ZNSt3__117__compressed_pairINS_15__tree_end_nodeIPNS_16__tree_node_baseIPvEEEENS_9allocatorINS_11__tree_nodeIiS3_EEEEE6secondB8ue170006Ev, symObjAddr: 0x5E90, symBinAddr: 0x100007028, symSize: 0x24 }
  - { offsetInCU: 0x1AA38, offset: 0x1AA38, size: 0x8, addend: 0x0, symName: __ZNSt3__122__compressed_pair_elemINS_9allocatorINS_11__tree_nodeIiPvEEEELi1ELb1EE5__getB8ue170006Ev, symObjAddr: 0x5EB4, symBinAddr: 0x10000704C, symSize: 0x14 }
  - { offsetInCU: 0x1AA5E, offset: 0x1AA5E, size: 0x8, addend: 0x0, symName: __ZNSt3__19allocatorINS_11__tree_nodeIiPvEEE10deallocateB8ue170006EPS3_m, symObjAddr: 0x5EC8, symBinAddr: 0x100007060, symSize: 0x40 }
  - { offsetInCU: 0x1AAA0, offset: 0x1AAA0, size: 0x8, addend: 0x0, symName: __ZNSt3__16__treeIiNS_4lessIiEENS_9allocatorIiEEE19__move_assign_allocB8ue170006ERS5_NS_17integral_constantIbLb1EEE, symObjAddr: 0x5F08, symBinAddr: 0x1000070A0, symSize: 0x38 }
  - { offsetInCU: 0x1AAE1, offset: 0x1AAE1, size: 0x8, addend: 0x0, symName: __ZNSt3__117__compressed_pairImNS_4lessIiEEE5firstB8ue170006Ev, symObjAddr: 0x5F40, symBinAddr: 0x1000070D8, symSize: 0x24 }
  - { offsetInCU: 0x1AB07, offset: 0x1AB07, size: 0x8, addend: 0x0, symName: __ZN4NodeD2Ev, symObjAddr: 0x5F64, symBinAddr: 0x1000070FC, symSize: 0x2C }
  - { offsetInCU: 0x1AB33, offset: 0x1AB33, size: 0x8, addend: 0x0, symName: __ZNSt3__13setIiNS_4lessIiEENS_9allocatorIiEEED1B8ue170006Ev, symObjAddr: 0x5F90, symBinAddr: 0x100007128, symSize: 0x2C }
  - { offsetInCU: 0x1AB5D, offset: 0x1AB5D, size: 0x8, addend: 0x0, symName: __ZNSt3__13setIiNS_4lessIiEENS_9allocatorIiEEED2B8ue170006Ev, symObjAddr: 0x5FBC, symBinAddr: 0x100007154, symSize: 0x2C }
  - { offsetInCU: 0x1AB87, offset: 0x1AB87, size: 0x8, addend: 0x0, symName: __ZNSt3__16__treeIiNS_4lessIiEENS_9allocatorIiEEED1Ev, symObjAddr: 0x5FE8, symBinAddr: 0x100007180, symSize: 0x2C }
  - { offsetInCU: 0x1ABB3, offset: 0x1ABB3, size: 0x8, addend: 0x0, symName: __ZNSt3__16__treeIiNS_4lessIiEENS_9allocatorIiEEED2Ev, symObjAddr: 0x6014, symBinAddr: 0x1000071AC, symSize: 0x38 }
  - { offsetInCU: 0x1ABDF, offset: 0x1ABDF, size: 0x8, addend: 0x0, symName: __ZNKSt3__16__treeIiNS_4lessIiEENS_9allocatorIiEEE6__rootB8ue170006Ev, symObjAddr: 0x604C, symBinAddr: 0x1000071E4, symSize: 0x28 }
  - { offsetInCU: 0x1AC05, offset: 0x1AC05, size: 0x8, addend: 0x0, symName: __ZNKSt3__16__treeIiNS_4lessIiEENS_9allocatorIiEEE10__end_nodeB8ue170006Ev, symObjAddr: 0x6074, symBinAddr: 0x10000720C, symSize: 0x2C }
  - { offsetInCU: 0x1AC2B, offset: 0x1AC2B, size: 0x8, addend: 0x0, symName: __ZNKSt3__117__compressed_pairINS_15__tree_end_nodeIPNS_16__tree_node_baseIPvEEEENS_9allocatorINS_11__tree_nodeIiS3_EEEEE5firstB8ue170006Ev, symObjAddr: 0x60A0, symBinAddr: 0x100007238, symSize: 0x24 }
  - { offsetInCU: 0x1AC51, offset: 0x1AC51, size: 0x8, addend: 0x0, symName: __ZNSt3__13mapIi4NodeNS_4lessIiEENS_9allocatorINS_4pairIKiS1_EEEEED2B8ue170006Ev, symObjAddr: 0x60C4, symBinAddr: 0x10000725C, symSize: 0x2C }
  - { offsetInCU: 0x1AC7B, offset: 0x1AC7B, size: 0x8, addend: 0x0, symName: __ZNSt3__16__treeINS_12__value_typeIi4NodeEENS_19__map_value_compareIiS3_NS_4lessIiEELb1EEENS_9allocatorIS3_EEED1Ev, symObjAddr: 0x60F0, symBinAddr: 0x100007288, symSize: 0x2C }
  - { offsetInCU: 0x1ACA7, offset: 0x1ACA7, size: 0x8, addend: 0x0, symName: __ZNSt3__16__treeINS_12__value_typeIi4NodeEENS_19__map_value_compareIiS3_NS_4lessIiEELb1EEENS_9allocatorIS3_EEED2Ev, symObjAddr: 0x611C, symBinAddr: 0x1000072B4, symSize: 0x38 }
  - { offsetInCU: 0x1ACD3, offset: 0x1ACD3, size: 0x8, addend: 0x0, symName: __ZNSt3__16__treeINS_12__value_typeIi4NodeEENS_19__map_value_compareIiS3_NS_4lessIiEELb1EEENS_9allocatorIS3_EEE7destroyEPNS_11__tree_nodeIS3_PvEE, symObjAddr: 0x6154, symBinAddr: 0x1000072EC, symSize: 0xA8 }
  - { offsetInCU: 0x1AD1F, offset: 0x1AD1F, size: 0x8, addend: 0x0, symName: __ZNSt3__111char_traitsIcE6lengthB8ue170006EPKc, symObjAddr: 0x63E8, symBinAddr: 0x100007580, symSize: 0x34 }
  - { offsetInCU: 0x1AD63, offset: 0x1AD63, size: 0x8, addend: 0x0, symName: __ZNKSt3__113basic_ostreamIcNS_11char_traitsIcEEE6sentrycvbB8ue170006Ev, symObjAddr: 0x641C, symBinAddr: 0x1000075B4, symSize: 0x1C }
  - { offsetInCU: 0x1AD89, offset: 0x1AD89, size: 0x8, addend: 0x0, symName: __ZNSt3__119ostreambuf_iteratorIcNS_11char_traitsIcEEEC1B8ue170006ERNS_13basic_ostreamIcS2_EE, symObjAddr: 0x6678, symBinAddr: 0x100007810, symSize: 0x34 }
  - { offsetInCU: 0x1ADC1, offset: 0x1ADC1, size: 0x8, addend: 0x0, symName: __ZNKSt3__18ios_base5flagsB8ue170006Ev, symObjAddr: 0x66AC, symBinAddr: 0x100007844, symSize: 0x18 }
  - { offsetInCU: 0x1ADE9, offset: 0x1ADE9, size: 0x8, addend: 0x0, symName: __ZNKSt3__19basic_iosIcNS_11char_traitsIcEEE4fillB8ue170006Ev, symObjAddr: 0x66C4, symBinAddr: 0x10000785C, symSize: 0x64 }
  - { offsetInCU: 0x1AE11, offset: 0x1AE11, size: 0x8, addend: 0x0, symName: __ZNKSt3__119ostreambuf_iteratorIcNS_11char_traitsIcEEE6failedB8ue170006Ev, symObjAddr: 0x6728, symBinAddr: 0x1000078C0, symSize: 0x24 }
  - { offsetInCU: 0x1AE37, offset: 0x1AE37, size: 0x8, addend: 0x0, symName: __ZNSt3__19basic_iosIcNS_11char_traitsIcEEE8setstateB8ue170006Ej, symObjAddr: 0x674C, symBinAddr: 0x1000078E4, symSize: 0x2C }
  - { offsetInCU: 0x1AE6C, offset: 0x1AE6C, size: 0x8, addend: 0x0, symName: __ZNKSt3__18ios_base5widthB8ue170006Ev, symObjAddr: 0x6778, symBinAddr: 0x100007910, symSize: 0x18 }
  - { offsetInCU: 0x1AE94, offset: 0x1AE94, size: 0x8, addend: 0x0, symName: __ZNSt3__115basic_streambufIcNS_11char_traitsIcEEE5sputnB8ue170006EPKcl, symObjAddr: 0x6790, symBinAddr: 0x100007928, symSize: 0x3C }
  - { offsetInCU: 0x1AED6, offset: 0x1AED6, size: 0x8, addend: 0x0, symName: __ZNSt3__112basic_stringIcNS_11char_traitsIcEENS_9allocatorIcEEEC1B8ue170006Emc, symObjAddr: 0x67CC, symBinAddr: 0x100007964, symSize: 0x3C }
  - { offsetInCU: 0x1AF1E, offset: 0x1AF1E, size: 0x8, addend: 0x0, symName: __ZNSt3__112basic_stringIcNS_11char_traitsIcEENS_9allocatorIcEEE4dataB8ue170006Ev, symObjAddr: 0x6808, symBinAddr: 0x1000079A0, symSize: 0x28 }
  - { offsetInCU: 0x1AF44, offset: 0x1AF44, size: 0x8, addend: 0x0, symName: __ZNSt3__18ios_base5widthB8ue170006El, symObjAddr: 0x6830, symBinAddr: 0x1000079C8, symSize: 0x2C }
  - { offsetInCU: 0x1AF8A, offset: 0x1AF8A, size: 0x8, addend: 0x0, symName: __ZNSt3__112basic_stringIcNS_11char_traitsIcEENS_9allocatorIcEEEC2B8ue170006Emc, symObjAddr: 0x685C, symBinAddr: 0x1000079F4, symSize: 0x4C }
  - { offsetInCU: 0x1AFD2, offset: 0x1AFD2, size: 0x8, addend: 0x0, symName: __ZNSt3__117__compressed_pairINS_12basic_stringIcNS_11char_traitsIcEENS_9allocatorIcEEE5__repES5_EC1B8ue170006INS_18__default_init_tagESA_EEOT_OT0_, symObjAddr: 0x68A8, symBinAddr: 0x100007A40, symSize: 0x3C }
  - { offsetInCU: 0x1B02A, offset: 0x1B02A, size: 0x8, addend: 0x0, symName: __ZNSt3__117__compressed_pairINS_12basic_stringIcNS_11char_traitsIcEENS_9allocatorIcEEE5__repES5_EC2B8ue170006INS_18__default_init_tagESA_EEOT_OT0_, symObjAddr: 0x68E4, symBinAddr: 0x100007A7C, symSize: 0x3C }
  - { offsetInCU: 0x1B082, offset: 0x1B082, size: 0x8, addend: 0x0, symName: __ZNSt3__122__compressed_pair_elemINS_12basic_stringIcNS_11char_traitsIcEENS_9allocatorIcEEE5__repELi0ELb0EEC2B8ue170006ENS_18__default_init_tagE, symObjAddr: 0x6920, symBinAddr: 0x100007AB8, symSize: 0x14 }
  - { offsetInCU: 0x1B0B7, offset: 0x1B0B7, size: 0x8, addend: 0x0, symName: __ZNSt3__122__compressed_pair_elemINS_9allocatorIcEELi1ELb1EEC2B8ue170006ENS_18__default_init_tagE, symObjAddr: 0x6934, symBinAddr: 0x100007ACC, symSize: 0x2C }
  - { offsetInCU: 0x1B0EC, offset: 0x1B0EC, size: 0x8, addend: 0x0, symName: __ZNSt3__19allocatorIcEC2B8ue170006Ev, symObjAddr: 0x6960, symBinAddr: 0x100007AF8, symSize: 0x2C }
  - { offsetInCU: 0x1B116, offset: 0x1B116, size: 0x8, addend: 0x0, symName: __ZNSt3__116__non_trivial_ifILb1ENS_9allocatorIcEEEC2B8ue170006Ev, symObjAddr: 0x698C, symBinAddr: 0x100007B24, symSize: 0x14 }
  - { offsetInCU: 0x1B140, offset: 0x1B140, size: 0x8, addend: 0x0, symName: __ZNSt3__112basic_stringIcNS_11char_traitsIcEENS_9allocatorIcEEE13__get_pointerB8ue170006Ev, symObjAddr: 0x69B4, symBinAddr: 0x100007B4C, symSize: 0x54 }
  - { offsetInCU: 0x1B166, offset: 0x1B166, size: 0x8, addend: 0x0, symName: __ZNKSt3__112basic_stringIcNS_11char_traitsIcEENS_9allocatorIcEEE9__is_longB8ue170006Ev, symObjAddr: 0x6A08, symBinAddr: 0x100007BA0, symSize: 0x38 }
  - { offsetInCU: 0x1B18C, offset: 0x1B18C, size: 0x8, addend: 0x0, symName: __ZNSt3__112basic_stringIcNS_11char_traitsIcEENS_9allocatorIcEEE18__get_long_pointerB8ue170006Ev, symObjAddr: 0x6A40, symBinAddr: 0x100007BD8, symSize: 0x28 }
  - { offsetInCU: 0x1B1B2, offset: 0x1B1B2, size: 0x8, addend: 0x0, symName: __ZNSt3__112basic_stringIcNS_11char_traitsIcEENS_9allocatorIcEEE19__get_short_pointerB8ue170006Ev, symObjAddr: 0x6A68, symBinAddr: 0x100007C00, symSize: 0x28 }
  - { offsetInCU: 0x1B1D8, offset: 0x1B1D8, size: 0x8, addend: 0x0, symName: __ZNKSt3__117__compressed_pairINS_12basic_stringIcNS_11char_traitsIcEENS_9allocatorIcEEE5__repES5_E5firstB8ue170006Ev, symObjAddr: 0x6A90, symBinAddr: 0x100007C28, symSize: 0x24 }
  - { offsetInCU: 0x1B1FE, offset: 0x1B1FE, size: 0x8, addend: 0x0, symName: __ZNKSt3__122__compressed_pair_elemINS_12basic_stringIcNS_11char_traitsIcEENS_9allocatorIcEEE5__repELi0ELb0EE5__getB8ue170006Ev, symObjAddr: 0x6AB4, symBinAddr: 0x100007C4C, symSize: 0x14 }
  - { offsetInCU: 0x1B224, offset: 0x1B224, size: 0x8, addend: 0x0, symName: __ZNSt3__114pointer_traitsIPcE10pointer_toB8ue170006ERc, symObjAddr: 0x6AC8, symBinAddr: 0x100007C60, symSize: 0x14 }
  - { offsetInCU: 0x1B247, offset: 0x1B247, size: 0x8, addend: 0x0, symName: __ZNSt3__119ostreambuf_iteratorIcNS_11char_traitsIcEEEC2B8ue170006ERNS_13basic_ostreamIcS2_EE, symObjAddr: 0x6ADC, symBinAddr: 0x100007C74, symSize: 0x54 }
  - { offsetInCU: 0x1B27F, offset: 0x1B27F, size: 0x8, addend: 0x0, symName: __ZNKSt3__19basic_iosIcNS_11char_traitsIcEEE5rdbufB8ue170006Ev, symObjAddr: 0x6B30, symBinAddr: 0x100007CC8, symSize: 0x24 }
  - { offsetInCU: 0x1B2A7, offset: 0x1B2A7, size: 0x8, addend: 0x0, symName: __ZNKSt3__18ios_base5rdbufB8ue170006Ev, symObjAddr: 0x6B54, symBinAddr: 0x100007CEC, symSize: 0x18 }
  - { offsetInCU: 0x1B2CD, offset: 0x1B2CD, size: 0x8, addend: 0x0, symName: __ZNSt3__111char_traitsIcE11eq_int_typeB8ue170006Eii, symObjAddr: 0x6B6C, symBinAddr: 0x100007D04, symSize: 0x28 }
  - { offsetInCU: 0x1B300, offset: 0x1B300, size: 0x8, addend: 0x0, symName: __ZNSt3__111char_traitsIcE3eofB8ue170006Ev, symObjAddr: 0x6B94, symBinAddr: 0x100007D2C, symSize: 0x8 }
  - { offsetInCU: 0x1B314, offset: 0x1B314, size: 0x8, addend: 0x0, symName: __ZNKSt3__19basic_iosIcNS_11char_traitsIcEEE5widenB8ue170006Ec, symObjAddr: 0x6B9C, symBinAddr: 0x100007D34, symSize: 0x84 }
  - { offsetInCU: 0x1B37D, offset: 0x1B37D, size: 0x8, addend: 0x0, symName: __ZNKSt3__15ctypeIcE5widenB8ue170006Ec, symObjAddr: 0x6C4C, symBinAddr: 0x100007DE4, symSize: 0x38 }
  - { offsetInCU: 0x1B3B2, offset: 0x1B3B2, size: 0x8, addend: 0x0, symName: __ZNSt3__18ios_base8setstateB8ue170006Ej, symObjAddr: 0x6C84, symBinAddr: 0x100007E1C, symSize: 0x34 }
  - { offsetInCU: 0x1B3E9, offset: 0x1B3E9, size: 0x8, addend: 0x0, symName: __ZNSt3__112basic_stringIcNS_11char_traitsIcEENS_9allocatorIcEEEpLB8ue170006EPKc, symObjAddr: 0x6D1C, symBinAddr: 0x100007EB4, symSize: 0x2C }
  - { offsetInCU: 0x1B41E, offset: 0x1B41E, size: 0x8, addend: 0x0, symName: __ZNKSt3__16vectorI9PredicateNS_9allocatorIS1_EEEixB8ue170006Em, symObjAddr: 0x6D48, symBinAddr: 0x100007EE0, symSize: 0x2C }
  - { offsetInCU: 0x1B455, offset: 0x1B455, size: 0x8, addend: 0x0, symName: __ZNSt3__112basic_stringIcNS_11char_traitsIcEENS_9allocatorIcEEEpLB8ue170006ERKS5_, symObjAddr: 0x6D74, symBinAddr: 0x100007F0C, symSize: 0x2C }
  - { offsetInCU: 0x1B48A, offset: 0x1B48A, size: 0x8, addend: 0x0, symName: __ZNSt3__112basic_stringIcNS_11char_traitsIcEENS_9allocatorIcEEE6appendB8ue170006ERKS5_, symObjAddr: 0x6DA0, symBinAddr: 0x100007F38, symSize: 0x4C }
  - { offsetInCU: 0x1B4BF, offset: 0x1B4BF, size: 0x8, addend: 0x0, symName: __ZNKSt3__112basic_stringIcNS_11char_traitsIcEENS_9allocatorIcEEE4dataB8ue170006Ev, symObjAddr: 0x6DEC, symBinAddr: 0x100007F84, symSize: 0x28 }
  - { offsetInCU: 0x1B4E5, offset: 0x1B4E5, size: 0x8, addend: 0x0, symName: __ZNKSt3__112basic_stringIcNS_11char_traitsIcEENS_9allocatorIcEEE4sizeB8ue170006Ev, symObjAddr: 0x6E14, symBinAddr: 0x100007FAC, symSize: 0x54 }
  - { offsetInCU: 0x1B50B, offset: 0x1B50B, size: 0x8, addend: 0x0, symName: __ZNKSt3__112basic_stringIcNS_11char_traitsIcEENS_9allocatorIcEEE13__get_pointerB8ue170006Ev, symObjAddr: 0x6E7C, symBinAddr: 0x100008014, symSize: 0x54 }
  - { offsetInCU: 0x1B531, offset: 0x1B531, size: 0x8, addend: 0x0, symName: __ZNKSt3__112basic_stringIcNS_11char_traitsIcEENS_9allocatorIcEEE18__get_long_pointerB8ue170006Ev, symObjAddr: 0x6ED0, symBinAddr: 0x100008068, symSize: 0x28 }
  - { offsetInCU: 0x1B557, offset: 0x1B557, size: 0x8, addend: 0x0, symName: __ZNKSt3__112basic_stringIcNS_11char_traitsIcEENS_9allocatorIcEEE19__get_short_pointerB8ue170006Ev, symObjAddr: 0x6EF8, symBinAddr: 0x100008090, symSize: 0x28 }
  - { offsetInCU: 0x1B57D, offset: 0x1B57D, size: 0x8, addend: 0x0, symName: __ZNSt3__114pointer_traitsIPKcE10pointer_toB8ue170006ERS1_, symObjAddr: 0x6F20, symBinAddr: 0x1000080B8, symSize: 0x14 }
  - { offsetInCU: 0x1B5A0, offset: 0x1B5A0, size: 0x8, addend: 0x0, symName: __ZNKSt3__112basic_stringIcNS_11char_traitsIcEENS_9allocatorIcEEE15__get_long_sizeB8ue170006Ev, symObjAddr: 0x6F34, symBinAddr: 0x1000080CC, symSize: 0x28 }
  - { offsetInCU: 0x1B5C6, offset: 0x1B5C6, size: 0x8, addend: 0x0, symName: __ZNKSt3__112basic_stringIcNS_11char_traitsIcEENS_9allocatorIcEEE16__get_short_sizeB8ue170006Ev, symObjAddr: 0x6F5C, symBinAddr: 0x1000080F4, symSize: 0x34 }
  - { offsetInCU: 0x1B5EC, offset: 0x1B5EC, size: 0x8, addend: 0x0, symName: __ZNSt3__16vectorI9PredicateNS_9allocatorIS1_EEEC1ERKS4_, symObjAddr: 0x6F90, symBinAddr: 0x100008128, symSize: 0x34 }
  - { offsetInCU: 0x1B627, offset: 0x1B627, size: 0x8, addend: 0x0, symName: __ZNSt3__16vectorI9PredicateNS_9allocatorIS1_EEEC2ERKS4_, symObjAddr: 0x6FC4, symBinAddr: 0x10000815C, symSize: 0x94 }
  - { offsetInCU: 0x1B662, offset: 0x1B662, size: 0x8, addend: 0x0, symName: __ZNSt3__116allocator_traitsINS_9allocatorI9PredicateEEE37select_on_container_copy_constructionB8ue170006IS3_vvEES3_RKS3_, symObjAddr: 0x7058, symBinAddr: 0x1000081F0, symSize: 0x10 }
  - { offsetInCU: 0x1B697, offset: 0x1B697, size: 0x8, addend: 0x0, symName: __ZNSt3__117__compressed_pairIP9PredicateNS_9allocatorIS1_EEEC1B8ue170006IDnS4_EEOT_OT0_, symObjAddr: 0x7068, symBinAddr: 0x100008200, symSize: 0x3C }
  - { offsetInCU: 0x1B6EF, offset: 0x1B6EF, size: 0x8, addend: 0x0, symName: __ZNSt3__16vectorI9PredicateNS_9allocatorIS1_EEE16__init_with_sizeB8ue170006IPS1_S6_EEvT_T0_m, symObjAddr: 0x70A4, symBinAddr: 0x10000823C, symSize: 0xB8 }
  - { offsetInCU: 0x1B763, offset: 0x1B763, size: 0x8, addend: 0x0, symName: __ZNSt3__117__compressed_pairIP9PredicateNS_9allocatorIS1_EEEC2B8ue170006IDnS4_EEOT_OT0_, symObjAddr: 0x715C, symBinAddr: 0x1000082F4, symSize: 0x44 }
  - { offsetInCU: 0x1B7BB, offset: 0x1B7BB, size: 0x8, addend: 0x0, symName: __ZNSt3__122__compressed_pair_elemINS_9allocatorI9PredicateEELi1ELb1EEC2B8ue170006IS3_vEEOT_, symObjAddr: 0x71A0, symBinAddr: 0x100008338, symSize: 0x18 }
  - { offsetInCU: 0x1B7FD, offset: 0x1B7FD, size: 0x8, addend: 0x0, symName: __ZNSt3__16vectorI9PredicateNS_9allocatorIS1_EEE11__vallocateB8ue170006Em, symObjAddr: 0x71F8, symBinAddr: 0x100008390, symSize: 0xB4 }
  - { offsetInCU: 0x1B841, offset: 0x1B841, size: 0x8, addend: 0x0, symName: __ZNSt3__16vectorI9PredicateNS_9allocatorIS1_EEE18__construct_at_endIPS1_S6_EEvT_T0_m, symObjAddr: 0x72AC, symBinAddr: 0x100008444, symSize: 0x8C }
  - { offsetInCU: 0x1B8B7, offset: 0x1B8B7, size: 0x8, addend: 0x0, symName: __ZNSt3__128__exception_guard_exceptionsINS_6vectorI9PredicateNS_9allocatorIS2_EEE16__destroy_vectorEE10__completeB8ue170006Ev, symObjAddr: 0x7338, symBinAddr: 0x1000084D0, symSize: 0x1C }
  - { offsetInCU: 0x1B8DD, offset: 0x1B8DD, size: 0x8, addend: 0x0, symName: __ZNSt3__128__exception_guard_exceptionsINS_6vectorI9PredicateNS_9allocatorIS2_EEE16__destroy_vectorEED1B8ue170006Ev, symObjAddr: 0x7354, symBinAddr: 0x1000084EC, symSize: 0x2C }
  - { offsetInCU: 0x1B907, offset: 0x1B907, size: 0x8, addend: 0x0, symName: __ZNSt3__128__exception_guard_exceptionsINS_6vectorI9PredicateNS_9allocatorIS2_EEE16__destroy_vectorEEC1B8ue170006ES6_, symObjAddr: 0x7380, symBinAddr: 0x100008518, symSize: 0x34 }
  - { offsetInCU: 0x1B93F, offset: 0x1B93F, size: 0x8, addend: 0x0, symName: __ZNSt3__128__exception_guard_exceptionsINS_6vectorI9PredicateNS_9allocatorIS2_EEE16__destroy_vectorEEC2B8ue170006ES6_, symObjAddr: 0x73B4, symBinAddr: 0x10000854C, symSize: 0x24 }
  - { offsetInCU: 0x1B999, offset: 0x1B999, size: 0x8, addend: 0x0, symName: __ZNSt3__14pairIP9PredicateS2_EC1B8ue170006IS2_S2_LPv0EEEOT_OT0_, symObjAddr: 0x7644, symBinAddr: 0x1000087DC, symSize: 0x3C }
  - { offsetInCU: 0x1B9F7, offset: 0x1B9F7, size: 0x8, addend: 0x0, symName: __ZNSt3__14pairIP9PredicateS2_EC2B8ue170006IS2_S2_LPv0EEEOT_OT0_, symObjAddr: 0x7680, symBinAddr: 0x100008818, symSize: 0x34 }
  - { offsetInCU: 0x1BA55, offset: 0x1BA55, size: 0x8, addend: 0x0, symName: __ZNSt3__129_AllocatorDestroyRangeReverseINS_9allocatorI9PredicateEEPS2_EC1B8ue170006ERS3_RS4_S7_, symObjAddr: 0x7700, symBinAddr: 0x100008898, symSize: 0x44 }
  - { offsetInCU: 0x1BAAC, offset: 0x1BAAC, size: 0x8, addend: 0x0, symName: __ZNSt3__116allocator_traitsINS_9allocatorI9PredicateEEE9constructB8ue170006IS2_JRS2_EvEEvRS3_PT_DpOT0_, symObjAddr: 0x7744, symBinAddr: 0x1000088DC, symSize: 0x34 }
  - { offsetInCU: 0x1BB03, offset: 0x1BB03, size: 0x8, addend: 0x0, symName: __ZNSt3__128__exception_guard_exceptionsINS_29_AllocatorDestroyRangeReverseINS_9allocatorI9PredicateEEPS3_EEE10__completeB8ue170006Ev, symObjAddr: 0x7778, symBinAddr: 0x100008910, symSize: 0x1C }
  - { offsetInCU: 0x1BB29, offset: 0x1BB29, size: 0x8, addend: 0x0, symName: __ZNSt3__128__exception_guard_exceptionsINS_29_AllocatorDestroyRangeReverseINS_9allocatorI9PredicateEEPS3_EEED1B8ue170006Ev, symObjAddr: 0x7794, symBinAddr: 0x10000892C, symSize: 0x2C }
  - { offsetInCU: 0x1BB53, offset: 0x1BB53, size: 0x8, addend: 0x0, symName: __ZNSt3__128__exception_guard_exceptionsINS_29_AllocatorDestroyRangeReverseINS_9allocatorI9PredicateEEPS3_EEEC1B8ue170006ES6_, symObjAddr: 0x77C0, symBinAddr: 0x100008958, symSize: 0x34 }
  - { offsetInCU: 0x1BB8C, offset: 0x1BB8C, size: 0x8, addend: 0x0, symName: __ZNSt3__128__exception_guard_exceptionsINS_29_AllocatorDestroyRangeReverseINS_9allocatorI9PredicateEEPS3_EEEC2B8ue170006ES6_, symObjAddr: 0x77F4, symBinAddr: 0x10000898C, symSize: 0x30 }
  - { offsetInCU: 0x1BBC5, offset: 0x1BBC5, size: 0x8, addend: 0x0, symName: __ZNSt3__129_AllocatorDestroyRangeReverseINS_9allocatorI9PredicateEEPS2_EC2B8ue170006ERS3_RS4_S7_, symObjAddr: 0x7824, symBinAddr: 0x1000089BC, symSize: 0x38 }
  - { offsetInCU: 0x1BC1C, offset: 0x1BC1C, size: 0x8, addend: 0x0, symName: __ZNSt3__19allocatorI9PredicateE9constructB8ue170006IS1_JRS1_EEEvPT_DpOT0_, symObjAddr: 0x785C, symBinAddr: 0x1000089F4, symSize: 0x30 }
  - { offsetInCU: 0x1BC72, offset: 0x1BC72, size: 0x8, addend: 0x0, symName: __ZNSt3__128__exception_guard_exceptionsINS_29_AllocatorDestroyRangeReverseINS_9allocatorI9PredicateEEPS3_EEED2B8ue170006Ev, symObjAddr: 0x788C, symBinAddr: 0x100008A24, symSize: 0x50 }
  - { offsetInCU: 0x1BC9C, offset: 0x1BC9C, size: 0x8, addend: 0x0, symName: __ZNKSt3__129_AllocatorDestroyRangeReverseINS_9allocatorI9PredicateEEPS2_EclB8ue170006Ev, symObjAddr: 0x78DC, symBinAddr: 0x100008A74, symSize: 0x68 }
  - { offsetInCU: 0x1BCC2, offset: 0x1BCC2, size: 0x8, addend: 0x0, symName: __ZNSt3__118__unwrap_iter_implIP9PredicateLb1EE8__unwrapB8ue170006ES2_, symObjAddr: 0x79B4, symBinAddr: 0x100008B4C, symSize: 0x24 }
  - { offsetInCU: 0x1BCE5, offset: 0x1BCE5, size: 0x8, addend: 0x0, symName: __ZNSt3__118__unwrap_iter_implIP9PredicateLb1EE8__rewrapB8ue170006ES2_S2_, symObjAddr: 0x79D8, symBinAddr: 0x100008B70, symSize: 0x58 }
  - { offsetInCU: 0x1BD16, offset: 0x1BD16, size: 0x8, addend: 0x0, symName: __ZNSt3__128__exception_guard_exceptionsINS_6vectorI9PredicateNS_9allocatorIS2_EEE16__destroy_vectorEED2B8ue170006Ev, symObjAddr: 0x7A30, symBinAddr: 0x100008BC8, symSize: 0x48 }
  - { offsetInCU: 0x1BD40, offset: 0x1BD40, size: 0x8, addend: 0x0, symName: __ZNSt3__16vectorI9PredicateNS_9allocatorIS1_EEE11__make_iterB8ue170006EPS1_, symObjAddr: 0x7A78, symBinAddr: 0x100008C10, symSize: 0x30 }
  - { offsetInCU: 0x1BD75, offset: 0x1BD75, size: 0x8, addend: 0x0, symName: __ZNSt3__111__wrap_iterIP9PredicateEC1B8ue170006ES2_, symObjAddr: 0x7AA8, symBinAddr: 0x100008C40, symSize: 0x34 }
  - { offsetInCU: 0x1BDAD, offset: 0x1BDAD, size: 0x8, addend: 0x0, symName: __ZNSt3__111__wrap_iterIP9PredicateEC2B8ue170006ES2_, symObjAddr: 0x7ADC, symBinAddr: 0x100008C74, symSize: 0x20 }
  - { offsetInCU: 0x1BDE5, offset: 0x1BDE5, size: 0x8, addend: 0x0, symName: __ZNKSt3__111__wrap_iterIP9PredicateE4baseB8ue170006Ev, symObjAddr: 0x7B44, symBinAddr: 0x100008CDC, symSize: 0x18 }
  - { offsetInCU: 0x1BE16, offset: 0x1BE16, size: 0x8, addend: 0x0, symName: __ZNSt3__116allocator_traitsINS_9allocatorIcEEE37select_on_container_copy_constructionB8ue170006IS2_vvEES2_RKS2_, symObjAddr: 0x7C78, symBinAddr: 0x100008E10, symSize: 0x10 }
  - { offsetInCU: 0x1BE45, offset: 0x1BE45, size: 0x8, addend: 0x0, symName: __ZNKSt3__112basic_stringIcNS_11char_traitsIcEENS_9allocatorIcEEE13get_allocatorB8ue170006Ev, symObjAddr: 0x7C88, symBinAddr: 0x100008E20, symSize: 0x24 }
  - { offsetInCU: 0x1BE6B, offset: 0x1BE6B, size: 0x8, addend: 0x0, symName: __ZNSt3__112basic_stringIcNS_11char_traitsIcEENS_9allocatorIcEEEC1B8ue170006ENS_24__uninitialized_size_tagEmRKS4_, symObjAddr: 0x7CAC, symBinAddr: 0x100008E44, symSize: 0x3C }
  - { offsetInCU: 0x1BEBF, offset: 0x1BEBF, size: 0x8, addend: 0x0, symName: __ZNSt3__111char_traitsIcE4copyB8ue170006EPcPKcm, symObjAddr: 0x7CE8, symBinAddr: 0x100008E80, symSize: 0x40 }
  - { offsetInCU: 0x1BEFE, offset: 0x1BEFE, size: 0x8, addend: 0x0, symName: __ZNSt3__111char_traitsIcE6assignB8ue170006EPcmc, symObjAddr: 0x7D28, symBinAddr: 0x100008EC0, symSize: 0x44 }
  - { offsetInCU: 0x1BF3D, offset: 0x1BF3D, size: 0x8, addend: 0x0, symName: __ZNKSt3__112basic_stringIcNS_11char_traitsIcEENS_9allocatorIcEEE7__allocB8ue170006Ev, symObjAddr: 0x7D6C, symBinAddr: 0x100008F04, symSize: 0x24 }
  - { offsetInCU: 0x1BF63, offset: 0x1BF63, size: 0x8, addend: 0x0, symName: __ZNKSt3__117__compressed_pairINS_12basic_stringIcNS_11char_traitsIcEENS_9allocatorIcEEE5__repES5_E6secondB8ue170006Ev, symObjAddr: 0x7D90, symBinAddr: 0x100008F28, symSize: 0x24 }
  - { offsetInCU: 0x1BF89, offset: 0x1BF89, size: 0x8, addend: 0x0, symName: __ZNKSt3__122__compressed_pair_elemINS_9allocatorIcEELi1ELb1EE5__getB8ue170006Ev, symObjAddr: 0x7DB4, symBinAddr: 0x100008F4C, symSize: 0x14 }
  - { offsetInCU: 0x1BFAF, offset: 0x1BFAF, size: 0x8, addend: 0x0, symName: __ZNSt3__112basic_stringIcNS_11char_traitsIcEENS_9allocatorIcEEEC2B8ue170006ENS_24__uninitialized_size_tagEmRKS4_, symObjAddr: 0x7DC8, symBinAddr: 0x100008F60, symSize: 0x110 }
  - { offsetInCU: 0x1C02F, offset: 0x1C02F, size: 0x8, addend: 0x0, symName: __ZNSt3__117__compressed_pairINS_12basic_stringIcNS_11char_traitsIcEENS_9allocatorIcEEE5__repES5_EC1B8ue170006INS_18__default_init_tagERKS5_EEOT_OT0_, symObjAddr: 0x7ED8, symBinAddr: 0x100009070, symSize: 0x3C }
  - { offsetInCU: 0x1C087, offset: 0x1C087, size: 0x8, addend: 0x0, symName: __ZNKSt3__112basic_stringIcNS_11char_traitsIcEENS_9allocatorIcEEE8max_sizeB8ue170006Ev, symObjAddr: 0x7F14, symBinAddr: 0x1000090AC, symSize: 0xAC }
  - { offsetInCU: 0x1C0D9, offset: 0x1C0D9, size: 0x8, addend: 0x0, symName: __ZNKSt3__112basic_stringIcNS_11char_traitsIcEENS_9allocatorIcEEE20__throw_length_errorB8ue170006Ev, symObjAddr: 0x7FC0, symBinAddr: 0x100009158, symSize: 0x1C }
  - { offsetInCU: 0x1C0FF, offset: 0x1C0FF, size: 0x8, addend: 0x0, symName: __ZNSt3__112basic_stringIcNS_11char_traitsIcEENS_9allocatorIcEEE13__fits_in_ssoB8ue170006Em, symObjAddr: 0x7FDC, symBinAddr: 0x100009174, symSize: 0x20 }
  - { offsetInCU: 0x1C123, offset: 0x1C123, size: 0x8, addend: 0x0, symName: __ZNSt3__112basic_stringIcNS_11char_traitsIcEENS_9allocatorIcEEE16__set_short_sizeB8ue170006Em, symObjAddr: 0x7FFC, symBinAddr: 0x100009194, symSize: 0x78 }
  - { offsetInCU: 0x1C158, offset: 0x1C158, size: 0x8, addend: 0x0, symName: __ZNSt3__112basic_stringIcNS_11char_traitsIcEENS_9allocatorIcEEE11__recommendB8ue170006Em, symObjAddr: 0x8074, symBinAddr: 0x10000920C, symSize: 0x84 }
  - { offsetInCU: 0x1C18B, offset: 0x1C18B, size: 0x8, addend: 0x0, symName: __ZNSt3__116allocator_traitsINS_9allocatorIcEEE8allocateB8ue170006ERS2_m, symObjAddr: 0x80F8, symBinAddr: 0x100009290, symSize: 0x2C }
  - { offsetInCU: 0x1C1BE, offset: 0x1C1BE, size: 0x8, addend: 0x0, symName: __ZNSt3__112basic_stringIcNS_11char_traitsIcEENS_9allocatorIcEEE7__allocB8ue170006Ev, symObjAddr: 0x8124, symBinAddr: 0x1000092BC, symSize: 0x24 }
  - { offsetInCU: 0x1C1E4, offset: 0x1C1E4, size: 0x8, addend: 0x0, symName: __ZNSt3__112basic_stringIcNS_11char_traitsIcEENS_9allocatorIcEEE16__begin_lifetimeB8ue170006EPcm, symObjAddr: 0x8148, symBinAddr: 0x1000092E0, symSize: 0x14 }
  - { offsetInCU: 0x1C217, offset: 0x1C217, size: 0x8, addend: 0x0, symName: __ZNSt3__112basic_stringIcNS_11char_traitsIcEENS_9allocatorIcEEE14__set_long_capB8ue170006Em, symObjAddr: 0x815C, symBinAddr: 0x1000092F4, symSize: 0x70 }
  - { offsetInCU: 0x1C24C, offset: 0x1C24C, size: 0x8, addend: 0x0, symName: __ZNSt3__112basic_stringIcNS_11char_traitsIcEENS_9allocatorIcEEE18__set_long_pointerB8ue170006EPc, symObjAddr: 0x81CC, symBinAddr: 0x100009364, symSize: 0x38 }
  - { offsetInCU: 0x1C281, offset: 0x1C281, size: 0x8, addend: 0x0, symName: __ZNSt3__112basic_stringIcNS_11char_traitsIcEENS_9allocatorIcEEE15__set_long_sizeB8ue170006Em, symObjAddr: 0x8204, symBinAddr: 0x10000939C, symSize: 0x38 }
  - { offsetInCU: 0x1C2B6, offset: 0x1C2B6, size: 0x8, addend: 0x0, symName: __ZNSt3__117__compressed_pairINS_12basic_stringIcNS_11char_traitsIcEENS_9allocatorIcEEE5__repES5_EC2B8ue170006INS_18__default_init_tagERKS5_EEOT_OT0_, symObjAddr: 0x823C, symBinAddr: 0x1000093D4, symSize: 0x40 }
  - { offsetInCU: 0x1C30E, offset: 0x1C30E, size: 0x8, addend: 0x0, symName: __ZNSt3__122__compressed_pair_elemINS_9allocatorIcEELi1ELb1EEC2B8ue170006IRKS2_vEEOT_, symObjAddr: 0x827C, symBinAddr: 0x100009414, symSize: 0x18 }
  - { offsetInCU: 0x1C350, offset: 0x1C350, size: 0x8, addend: 0x0, symName: __ZNSt3__116allocator_traitsINS_9allocatorIcEEE8max_sizeB8ue170006IS2_vEEmRKS2_, symObjAddr: 0x8294, symBinAddr: 0x10000942C, symSize: 0x24 }
  - { offsetInCU: 0x1C37E, offset: 0x1C37E, size: 0x8, addend: 0x0, symName: __ZNSt3__114numeric_limitsImE3maxB8ue170006Ev, symObjAddr: 0x82B8, symBinAddr: 0x100009450, symSize: 0x14 }
  - { offsetInCU: 0x1C392, offset: 0x1C392, size: 0x8, addend: 0x0, symName: __ZNKSt3__19allocatorIcE8max_sizeB8ue170006Ev, symObjAddr: 0x82CC, symBinAddr: 0x100009464, symSize: 0x14 }
  - { offsetInCU: 0x1C3B8, offset: 0x1C3B8, size: 0x8, addend: 0x0, symName: __ZNSt3__123__libcpp_numeric_limitsImLb1EE3maxB8ue170006Ev, symObjAddr: 0x82E0, symBinAddr: 0x100009478, symSize: 0x8 }
  - { offsetInCU: 0x1C3CC, offset: 0x1C3CC, size: 0x8, addend: 0x0, symName: __ZNSt3__112basic_stringIcNS_11char_traitsIcEENS_9allocatorIcEEE10__align_itB8ue170006ILm16EEEmm, symObjAddr: 0x82E8, symBinAddr: 0x100009480, symSize: 0x1C }
  - { offsetInCU: 0x1C3FA, offset: 0x1C3FA, size: 0x8, addend: 0x0, symName: __ZNSt3__19allocatorIcE8allocateB8ue170006Em, symObjAddr: 0x8304, symBinAddr: 0x10000949C, symSize: 0x58 }
  - { offsetInCU: 0x1C42E, offset: 0x1C42E, size: 0x8, addend: 0x0, symName: __ZNSt3__117__compressed_pairINS_12basic_stringIcNS_11char_traitsIcEENS_9allocatorIcEEE5__repES5_E6secondB8ue170006Ev, symObjAddr: 0x835C, symBinAddr: 0x1000094F4, symSize: 0x24 }
  - { offsetInCU: 0x1C454, offset: 0x1C454, size: 0x8, addend: 0x0, symName: __ZNSt3__122__compressed_pair_elemINS_9allocatorIcEELi1ELb1EE5__getB8ue170006Ev, symObjAddr: 0x8380, symBinAddr: 0x100009518, symSize: 0x14 }
  - { offsetInCU: 0x1C4A0, offset: 0x1C4A0, size: 0x8, addend: 0x0, symName: __ZNKSt3__114__copy_trivialclB8ue170006IKccLi0EEENS_4pairIPT_PT0_EES5_S5_S7_, symObjAddr: 0x85B4, symBinAddr: 0x10000974C, symSize: 0x48 }
  - { offsetInCU: 0x1C52A, offset: 0x1C52A, size: 0x8, addend: 0x0, symName: __ZNSt3__14pairIPKcS2_EC1B8ue170006IS2_S2_LPv0EEEOT_OT0_, symObjAddr: 0x871C, symBinAddr: 0x1000098B4, symSize: 0x3C }
  - { offsetInCU: 0x1C588, offset: 0x1C588, size: 0x8, addend: 0x0, symName: __ZNSt3__14pairIPKcS2_EC2B8ue170006IS2_S2_LPv0EEEOT_OT0_, symObjAddr: 0x8758, symBinAddr: 0x1000098F0, symSize: 0x34 }
  - { offsetInCU: 0x1C5E6, offset: 0x1C5E6, size: 0x8, addend: 0x0, symName: __ZNSt3__118__unwrap_iter_implIPKcLb1EE8__unwrapB8ue170006ES2_, symObjAddr: 0x878C, symBinAddr: 0x100009924, symSize: 0x24 }
  - { offsetInCU: 0x1C615, offset: 0x1C615, size: 0x8, addend: 0x0, symName: __ZNSt3__14pairIPKcPcEC1B8ue170006IRS2_S3_LPv0EEEOT_OT0_, symObjAddr: 0x88C4, symBinAddr: 0x100009A5C, symSize: 0x3C }
  - { offsetInCU: 0x1C673, offset: 0x1C673, size: 0x8, addend: 0x0, symName: __ZNSt3__14pairIPKcPcEC2B8ue170006IRS2_S3_LPv0EEEOT_OT0_, symObjAddr: 0x8900, symBinAddr: 0x100009A98, symSize: 0x34 }
  - { offsetInCU: 0x1C6D1, offset: 0x1C6D1, size: 0x8, addend: 0x0, symName: __ZNSt3__118__unwrap_iter_implIPcLb1EE8__unwrapB8ue170006ES1_, symObjAddr: 0x8934, symBinAddr: 0x100009ACC, symSize: 0x24 }
  - { offsetInCU: 0x1C6F4, offset: 0x1C6F4, size: 0x8, addend: 0x0, symName: __ZNSt3__14pairIPKcPcEC1B8ue170006IS2_S3_LPv0EEEOT_OT0_, symObjAddr: 0x8958, symBinAddr: 0x100009AF0, symSize: 0x3C }
  - { offsetInCU: 0x1C752, offset: 0x1C752, size: 0x8, addend: 0x0, symName: __ZNSt3__14pairIPKcPcEC2B8ue170006IS2_S3_LPv0EEEOT_OT0_, symObjAddr: 0x8994, symBinAddr: 0x100009B2C, symSize: 0x34 }
  - { offsetInCU: 0x1C7B0, offset: 0x1C7B0, size: 0x8, addend: 0x0, symName: __ZNSt3__118__unwrap_iter_implIPKcLb1EE8__rewrapB8ue170006ES2_S2_, symObjAddr: 0x8A04, symBinAddr: 0x100009B9C, symSize: 0x48 }
  - { offsetInCU: 0x1C7E1, offset: 0x1C7E1, size: 0x8, addend: 0x0, symName: __ZNSt3__118__unwrap_iter_implIPcLb1EE8__rewrapB8ue170006ES1_S1_, symObjAddr: 0x8A4C, symBinAddr: 0x100009BE4, symSize: 0x48 }
  - { offsetInCU: 0x1C812, offset: 0x1C812, size: 0x8, addend: 0x0, symName: __ZNSt3__111char_traitsIcE7compareB8ue170006EPKcS3_m, symObjAddr: 0x8B50, symBinAddr: 0x100009CE8, symSize: 0x34 }
  - { offsetInCU: 0x1C851, offset: 0x1C851, size: 0x8, addend: 0x0, symName: __ZN4Node7addEdgeEi, symObjAddr: 0x8B84, symBinAddr: 0x100009D1C, symSize: 0x38 }
  - { offsetInCU: 0x1C885, offset: 0x1C885, size: 0x8, addend: 0x0, symName: __ZNSt3__13setIiNS_4lessIiEENS_9allocatorIiEEE6insertB8ue170006ERKi, symObjAddr: 0x8BBC, symBinAddr: 0x100009D54, symSize: 0x4C }
  - { offsetInCU: 0x1C8BA, offset: 0x1C8BA, size: 0x8, addend: 0x0, symName: __ZNSt3__16__treeIiNS_4lessIiEENS_9allocatorIiEEE15__insert_uniqueB8ue170006ERKi, symObjAddr: 0x8C08, symBinAddr: 0x100009DA0, symSize: 0x50 }
  - { offsetInCU: 0x1C8EF, offset: 0x1C8EF, size: 0x8, addend: 0x0, symName: __ZNSt3__14pairINS_21__tree_const_iteratorIiPNS_11__tree_nodeIiPvEElEEbEC1B8ue170006INS_15__tree_iteratorIiS5_lEEbLS3_0EEEONS0_IT_T0_EE, symObjAddr: 0x8C58, symBinAddr: 0x100009DF0, symSize: 0x34 }
  - { offsetInCU: 0x1C940, offset: 0x1C940, size: 0x8, addend: 0x0, symName: __ZNSt3__16__treeIiNS_4lessIiEENS_9allocatorIiEEE25__emplace_unique_key_argsIiJRKiEEENS_4pairINS_15__tree_iteratorIiPNS_11__tree_nodeIiPvEElEEbEERKT_DpOT0_, symObjAddr: 0x8C8C, symBinAddr: 0x100009E24, symSize: 0xF0 }
  - { offsetInCU: 0x1C9EC, offset: 0x1C9EC, size: 0x8, addend: 0x0, symName: __ZNSt3__122__tree_key_value_typesIiE9__get_keyB8ue170006ERKi, symObjAddr: 0x8D7C, symBinAddr: 0x100009F14, symSize: 0x14 }
  - { offsetInCU: 0x1CA10, offset: 0x1CA10, size: 0x8, addend: 0x0, symName: __ZNSt3__16__treeIiNS_4lessIiEENS_9allocatorIiEEE12__find_equalIiEERPNS_16__tree_node_baseIPvEERPNS_15__tree_end_nodeISA_EERKT_, symObjAddr: 0x8D90, symBinAddr: 0x100009F28, symSize: 0x184 }
  - { offsetInCU: 0x1CA7D, offset: 0x1CA7D, size: 0x8, addend: 0x0, symName: __ZNSt3__16__treeIiNS_4lessIiEENS_9allocatorIiEEE16__construct_nodeIJRKiEEENS_10unique_ptrINS_11__tree_nodeIiPvEENS_22__tree_node_destructorINS3_ISC_EEEEEEDpOT_, symObjAddr: 0x8F14, symBinAddr: 0x10000A0AC, symSize: 0x108 }
  - { offsetInCU: 0x1CADE, offset: 0x1CADE, size: 0x8, addend: 0x0, symName: __ZNSt3__16__treeIiNS_4lessIiEENS_9allocatorIiEEE16__insert_node_atEPNS_15__tree_end_nodeIPNS_16__tree_node_baseIPvEEEERSA_SA_, symObjAddr: 0x901C, symBinAddr: 0x10000A1B4, symSize: 0xCC }
  - { offsetInCU: 0x1CB33, offset: 0x1CB33, size: 0x8, addend: 0x0, symName: __ZNKSt3__110unique_ptrINS_11__tree_nodeIiPvEENS_22__tree_node_destructorINS_9allocatorIS3_EEEEE3getB8ue170006Ev, symObjAddr: 0x90E8, symBinAddr: 0x10000A280, symSize: 0x28 }
  - { offsetInCU: 0x1CB59, offset: 0x1CB59, size: 0x8, addend: 0x0, symName: __ZNSt3__110unique_ptrINS_11__tree_nodeIiPvEENS_22__tree_node_destructorINS_9allocatorIS3_EEEEE7releaseB8ue170006Ev, symObjAddr: 0x9110, symBinAddr: 0x10000A2A8, symSize: 0x44 }
  - { offsetInCU: 0x1CB8E, offset: 0x1CB8E, size: 0x8, addend: 0x0, symName: __ZNSt3__110unique_ptrINS_11__tree_nodeIiPvEENS_22__tree_node_destructorINS_9allocatorIS3_EEEEED1B8ue170006Ev, symObjAddr: 0x9154, symBinAddr: 0x10000A2EC, symSize: 0x2C }
  - { offsetInCU: 0x1CBB8, offset: 0x1CBB8, size: 0x8, addend: 0x0, symName: __ZNSt3__115__tree_iteratorIiPNS_11__tree_nodeIiPvEElEC1B8ue170006ES4_, symObjAddr: 0x9180, symBinAddr: 0x10000A318, symSize: 0x34 }
  - { offsetInCU: 0x1CBF7, offset: 0x1CBF7, size: 0x8, addend: 0x0, symName: __ZNSt3__14pairINS_15__tree_iteratorIiPNS_11__tree_nodeIiPvEElEEbEC1B8ue170006IS6_RbLS3_0EEEOT_OT0_, symObjAddr: 0x91B4, symBinAddr: 0x10000A34C, symSize: 0x3C }
  - { offsetInCU: 0x1CC55, offset: 0x1CC55, size: 0x8, addend: 0x0, symName: __ZNKSt3__16__treeIiNS_4lessIiEENS_9allocatorIiEEE10__root_ptrB8ue170006Ev, symObjAddr: 0x91F0, symBinAddr: 0x10000A388, symSize: 0x24 }
  - { offsetInCU: 0x1CC7B, offset: 0x1CC7B, size: 0x8, addend: 0x0, symName: __ZNSt3__16__treeIiNS_4lessIiEENS_9allocatorIiEEE10value_compB8ue170006Ev, symObjAddr: 0x9214, symBinAddr: 0x10000A3AC, symSize: 0x28 }
  - { offsetInCU: 0x1CCA1, offset: 0x1CCA1, size: 0x8, addend: 0x0, symName: __ZNSt3__117__compressed_pairImNS_4lessIiEEE6secondB8ue170006Ev, symObjAddr: 0x923C, symBinAddr: 0x10000A3D4, symSize: 0x24 }
  - { offsetInCU: 0x1CCC7, offset: 0x1CCC7, size: 0x8, addend: 0x0, symName: __ZNSt3__122__compressed_pair_elemINS_4lessIiEELi1ELb1EE5__getB8ue170006Ev, symObjAddr: 0x9260, symBinAddr: 0x10000A3F8, symSize: 0x14 }
  - { offsetInCU: 0x1CCED, offset: 0x1CCED, size: 0x8, addend: 0x0, symName: __ZNSt3__116allocator_traitsINS_9allocatorINS_11__tree_nodeIiPvEEEEE8allocateB8ue170006ERS5_m, symObjAddr: 0x9274, symBinAddr: 0x10000A40C, symSize: 0x2C }
  - { offsetInCU: 0x1CD20, offset: 0x1CD20, size: 0x8, addend: 0x0, symName: __ZNSt3__122__tree_node_destructorINS_9allocatorINS_11__tree_nodeIiPvEEEEEC1B8ue170006ERS5_b, symObjAddr: 0x92A0, symBinAddr: 0x10000A438, symSize: 0x48 }
  - { offsetInCU: 0x1CD6E, offset: 0x1CD6E, size: 0x8, addend: 0x0, symName: __ZNSt3__110unique_ptrINS_11__tree_nodeIiPvEENS_22__tree_node_destructorINS_9allocatorIS3_EEEEEC1B8ue170006ILb1EvEEPS3_NS_16__dependent_typeINS_27__unique_ptr_deleter_sfinaeIS7_EEXT_EE20__good_rval_ref_typeE, symObjAddr: 0x92E8, symBinAddr: 0x10000A480, symSize: 0x3C }
  - { offsetInCU: 0x1CDBF, offset: 0x1CDBF, size: 0x8, addend: 0x0, symName: __ZNSt3__116allocator_traitsINS_9allocatorINS_11__tree_nodeIiPvEEEEE9constructB8ue170006IiJRKiEvEEvRS5_PT_DpOT0_, symObjAddr: 0x9324, symBinAddr: 0x10000A4BC, symSize: 0x34 }
  - { offsetInCU: 0x1CE16, offset: 0x1CE16, size: 0x8, addend: 0x0, symName: __ZNKSt3__110unique_ptrINS_11__tree_nodeIiPvEENS_22__tree_node_destructorINS_9allocatorIS3_EEEEEptB8ue170006Ev, symObjAddr: 0x9358, symBinAddr: 0x10000A4F0, symSize: 0x28 }
  - { offsetInCU: 0x1CE3C, offset: 0x1CE3C, size: 0x8, addend: 0x0, symName: __ZNSt3__110unique_ptrINS_11__tree_nodeIiPvEENS_22__tree_node_destructorINS_9allocatorIS3_EEEEE11get_deleterB8ue170006Ev, symObjAddr: 0x9380, symBinAddr: 0x10000A518, symSize: 0x24 }
  - { offsetInCU: 0x1CE62, offset: 0x1CE62, size: 0x8, addend: 0x0, symName: __ZNSt3__19allocatorINS_11__tree_nodeIiPvEEE8allocateB8ue170006Em, symObjAddr: 0x93A4, symBinAddr: 0x10000A53C, symSize: 0x58 }
  - { offsetInCU: 0x1CEA1, offset: 0x1CEA1, size: 0x8, addend: 0x0, symName: __ZNSt3__116allocator_traitsINS_9allocatorINS_11__tree_nodeIiPvEEEEE8max_sizeB8ue170006IS5_vEEmRKS5_, symObjAddr: 0x93FC, symBinAddr: 0x10000A594, symSize: 0x24 }
  - { offsetInCU: 0x1CECF, offset: 0x1CECF, size: 0x8, addend: 0x0, symName: __ZNKSt3__19allocatorINS_11__tree_nodeIiPvEEE8max_sizeB8ue170006Ev, symObjAddr: 0x9420, symBinAddr: 0x10000A5B8, symSize: 0x14 }
  - { offsetInCU: 0x1CEF5, offset: 0x1CEF5, size: 0x8, addend: 0x0, symName: __ZNSt3__122__tree_node_destructorINS_9allocatorINS_11__tree_nodeIiPvEEEEEC2B8ue170006ERS5_b, symObjAddr: 0x9434, symBinAddr: 0x10000A5CC, symSize: 0x38 }
  - { offsetInCU: 0x1CF3D, offset: 0x1CF3D, size: 0x8, addend: 0x0, symName: __ZNSt3__110unique_ptrINS_11__tree_nodeIiPvEENS_22__tree_node_destructorINS_9allocatorIS3_EEEEEC2B8ue170006ILb1EvEEPS3_NS_16__dependent_typeINS_27__unique_ptr_deleter_sfinaeIS7_EEXT_EE20__good_rval_ref_typeE, symObjAddr: 0x946C, symBinAddr: 0x10000A604, symSize: 0x48 }
  - { offsetInCU: 0x1CF8E, offset: 0x1CF8E, size: 0x8, addend: 0x0, symName: __ZNSt3__117__compressed_pairIPNS_11__tree_nodeIiPvEENS_22__tree_node_destructorINS_9allocatorIS3_EEEEEC1B8ue170006IRS4_S8_EEOT_OT0_, symObjAddr: 0x94B4, symBinAddr: 0x10000A64C, symSize: 0x3C }
  - { offsetInCU: 0x1CFE6, offset: 0x1CFE6, size: 0x8, addend: 0x0, symName: __ZNSt3__117__compressed_pairIPNS_11__tree_nodeIiPvEENS_22__tree_node_destructorINS_9allocatorIS3_EEEEEC2B8ue170006IRS4_S8_EEOT_OT0_, symObjAddr: 0x94F0, symBinAddr: 0x10000A688, symSize: 0x48 }
  - { offsetInCU: 0x1D03E, offset: 0x1D03E, size: 0x8, addend: 0x0, symName: __ZNSt3__122__compressed_pair_elemIPNS_11__tree_nodeIiPvEELi0ELb0EEC2B8ue170006IRS4_vEEOT_, symObjAddr: 0x9538, symBinAddr: 0x10000A6D0, symSize: 0x24 }
  - { offsetInCU: 0x1D080, offset: 0x1D080, size: 0x8, addend: 0x0, symName: __ZNSt3__122__compressed_pair_elemINS_22__tree_node_destructorINS_9allocatorINS_11__tree_nodeIiPvEEEEEELi1ELb0EEC2B8ue170006IS7_vEEOT_, symObjAddr: 0x955C, symBinAddr: 0x10000A6F4, symSize: 0x24 }
  - { offsetInCU: 0x1D0C2, offset: 0x1D0C2, size: 0x8, addend: 0x0, symName: __ZNSt3__19allocatorINS_11__tree_nodeIiPvEEE9constructB8ue170006IiJRKiEEEvPT_DpOT0_, symObjAddr: 0x9580, symBinAddr: 0x10000A718, symSize: 0x28 }
  - { offsetInCU: 0x1D118, offset: 0x1D118, size: 0x8, addend: 0x0, symName: __ZNKSt3__117__compressed_pairIPNS_11__tree_nodeIiPvEENS_22__tree_node_destructorINS_9allocatorIS3_EEEEE5firstB8ue170006Ev, symObjAddr: 0x95A8, symBinAddr: 0x10000A740, symSize: 0x24 }
  - { offsetInCU: 0x1D13E, offset: 0x1D13E, size: 0x8, addend: 0x0, symName: __ZNKSt3__122__compressed_pair_elemIPNS_11__tree_nodeIiPvEELi0ELb0EE5__getB8ue170006Ev, symObjAddr: 0x95CC, symBinAddr: 0x10000A764, symSize: 0x14 }
  - { offsetInCU: 0x1D164, offset: 0x1D164, size: 0x8, addend: 0x0, symName: __ZNSt3__117__compressed_pairIPNS_11__tree_nodeIiPvEENS_22__tree_node_destructorINS_9allocatorIS3_EEEEE6secondB8ue170006Ev, symObjAddr: 0x95E0, symBinAddr: 0x10000A778, symSize: 0x28 }
  - { offsetInCU: 0x1D18A, offset: 0x1D18A, size: 0x8, addend: 0x0, symName: __ZNSt3__122__compressed_pair_elemINS_22__tree_node_destructorINS_9allocatorINS_11__tree_nodeIiPvEEEEEELi1ELb0EE5__getB8ue170006Ev, symObjAddr: 0x9608, symBinAddr: 0x10000A7A0, symSize: 0x14 }
  - { offsetInCU: 0x1D1B0, offset: 0x1D1B0, size: 0x8, addend: 0x0, symName: __ZNSt3__117__compressed_pairIPNS_11__tree_nodeIiPvEENS_22__tree_node_destructorINS_9allocatorIS3_EEEEE5firstB8ue170006Ev, symObjAddr: 0x961C, symBinAddr: 0x10000A7B4, symSize: 0x24 }
  - { offsetInCU: 0x1D1D6, offset: 0x1D1D6, size: 0x8, addend: 0x0, symName: __ZNSt3__122__compressed_pair_elemIPNS_11__tree_nodeIiPvEELi0ELb0EE5__getB8ue170006Ev, symObjAddr: 0x9640, symBinAddr: 0x10000A7D8, symSize: 0x14 }
  - { offsetInCU: 0x1D1FC, offset: 0x1D1FC, size: 0x8, addend: 0x0, symName: __ZNSt3__110unique_ptrINS_11__tree_nodeIiPvEENS_22__tree_node_destructorINS_9allocatorIS3_EEEEED2B8ue170006Ev, symObjAddr: 0x9654, symBinAddr: 0x10000A7EC, symSize: 0x30 }
  - { offsetInCU: 0x1D226, offset: 0x1D226, size: 0x8, addend: 0x0, symName: __ZNSt3__110unique_ptrINS_11__tree_nodeIiPvEENS_22__tree_node_destructorINS_9allocatorIS3_EEEEE5resetB8ue170006EPS3_, symObjAddr: 0x9684, symBinAddr: 0x10000A81C, symSize: 0x78 }
  - { offsetInCU: 0x1D26A, offset: 0x1D26A, size: 0x8, addend: 0x0, symName: __ZNSt3__122__tree_node_destructorINS_9allocatorINS_11__tree_nodeIiPvEEEEEclB8ue170006EPS4_, symObjAddr: 0x96FC, symBinAddr: 0x10000A894, symSize: 0x88 }
  - { offsetInCU: 0x1D29F, offset: 0x1D29F, size: 0x8, addend: 0x0, symName: __ZNSt3__115__tree_iteratorIiPNS_11__tree_nodeIiPvEElEC2B8ue170006ES4_, symObjAddr: 0x9784, symBinAddr: 0x10000A91C, symSize: 0x20 }
  - { offsetInCU: 0x1D2D8, offset: 0x1D2D8, size: 0x8, addend: 0x0, symName: __ZNSt3__14pairINS_15__tree_iteratorIiPNS_11__tree_nodeIiPvEElEEbEC2B8ue170006IS6_RbLS3_0EEEOT_OT0_, symObjAddr: 0x97A4, symBinAddr: 0x10000A93C, symSize: 0x38 }
  - { offsetInCU: 0x1D336, offset: 0x1D336, size: 0x8, addend: 0x0, symName: __ZNSt3__14pairINS_21__tree_const_iteratorIiPNS_11__tree_nodeIiPvEElEEbEC2B8ue170006INS_15__tree_iteratorIiS5_lEEbLS3_0EEEONS0_IT_T0_EE, symObjAddr: 0x97DC, symBinAddr: 0x10000A974, symSize: 0x50 }
  - { offsetInCU: 0x1D387, offset: 0x1D387, size: 0x8, addend: 0x0, symName: __ZNSt3__121__tree_const_iteratorIiPNS_11__tree_nodeIiPvEElEC1B8ue170006ENS_15__tree_iteratorIiS4_lEE, symObjAddr: 0x982C, symBinAddr: 0x10000A9C4, symSize: 0x34 }
  - { offsetInCU: 0x1D3C0, offset: 0x1D3C0, size: 0x8, addend: 0x0, symName: __ZNSt3__121__tree_const_iteratorIiPNS_11__tree_nodeIiPvEElEC2B8ue170006ENS_15__tree_iteratorIiS4_lEE, symObjAddr: 0x9860, symBinAddr: 0x10000A9F8, symSize: 0x20 }
  - { offsetInCU: 0x1D3F9, offset: 0x1D3F9, size: 0x8, addend: 0x0, symName: __ZNSt3__112basic_stringIcNS_11char_traitsIcEENS_9allocatorIcEEEC1B8ue170006Ev, symObjAddr: 0x9880, symBinAddr: 0x10000AA18, symSize: 0x2C }
  - { offsetInCU: 0x1D423, offset: 0x1D423, size: 0x8, addend: 0x0, symName: __ZNKSt3__13mapIi4NodeNS_4lessIiEENS_9allocatorINS_4pairIKiS1_EEEEE5beginB8ue170006Ev, symObjAddr: 0x98AC, symBinAddr: 0x10000AA44, symSize: 0x38 }
  - { offsetInCU: 0x1D449, offset: 0x1D449, size: 0x8, addend: 0x0, symName: __ZNKSt3__13mapIi4NodeNS_4lessIiEENS_9allocatorINS_4pairIKiS1_EEEEE3endB8ue170006Ev, symObjAddr: 0x98E4, symBinAddr: 0x10000AA7C, symSize: 0x38 }
  - { offsetInCU: 0x1D46F, offset: 0x1D46F, size: 0x8, addend: 0x0, symName: __ZNKSt3__120__map_const_iteratorINS_21__tree_const_iteratorINS_12__value_typeIi4NodeEEPNS_11__tree_nodeIS4_PvEElEEEdeB8ue170006Ev, symObjAddr: 0x994C, symBinAddr: 0x10000AAE4, symSize: 0x28 }
  - { offsetInCU: 0x1D495, offset: 0x1D495, size: 0x8, addend: 0x0, symName: __ZNK4Node8toStringEv, symObjAddr: 0x99B8, symBinAddr: 0x10000AB50, symSize: 0x1BC }
  - { offsetInCU: 0x1D4E6, offset: 0x1D4E6, size: 0x8, addend: 0x0, symName: __ZNSt3__120__map_const_iteratorINS_21__tree_const_iteratorINS_12__value_typeIi4NodeEEPNS_11__tree_nodeIS4_PvEElEEEppB8ue170006Ev, symObjAddr: 0x9B74, symBinAddr: 0x10000AD0C, symSize: 0x2C }
  - { offsetInCU: 0x1D50C, offset: 0x1D50C, size: 0x8, addend: 0x0, symName: __ZNSt3__112basic_stringIcNS_11char_traitsIcEENS_9allocatorIcEEEC2B8ue170006Ev, symObjAddr: 0x9BA0, symBinAddr: 0x10000AD38, symSize: 0x44 }
  - { offsetInCU: 0x1D536, offset: 0x1D536, size: 0x8, addend: 0x0, symName: __ZNKSt3__16__treeINS_12__value_typeIi4NodeEENS_19__map_value_compareIiS3_NS_4lessIiEELb1EEENS_9allocatorIS3_EEE5beginB8ue170006Ev, symObjAddr: 0x9BE4, symBinAddr: 0x10000AD7C, symSize: 0x34 }
  - { offsetInCU: 0x1D55C, offset: 0x1D55C, size: 0x8, addend: 0x0, symName: __ZNSt3__120__map_const_iteratorINS_21__tree_const_iteratorINS_12__value_typeIi4NodeEEPNS_11__tree_nodeIS4_PvEElEEEC1B8ue170006ES9_, symObjAddr: 0x9C18, symBinAddr: 0x10000ADB0, symSize: 0x34 }
  - { offsetInCU: 0x1D595, offset: 0x1D595, size: 0x8, addend: 0x0, symName: __ZNKSt3__16__treeINS_12__value_typeIi4NodeEENS_19__map_value_compareIiS3_NS_4lessIiEELb1EEENS_9allocatorIS3_EEE12__begin_nodeB8ue170006Ev, symObjAddr: 0x9C4C, symBinAddr: 0x10000ADE4, symSize: 0x14 }
  - { offsetInCU: 0x1D5BB, offset: 0x1D5BB, size: 0x8, addend: 0x0, symName: __ZNSt3__121__tree_const_iteratorINS_12__value_typeIi4NodeEEPNS_11__tree_nodeIS3_PvEElEC1B8ue170006EPNS_15__tree_end_nodeIPNS_16__tree_node_baseIS5_EEEE, symObjAddr: 0x9C60, symBinAddr: 0x10000ADF8, symSize: 0x34 }
  - { offsetInCU: 0x1D5F4, offset: 0x1D5F4, size: 0x8, addend: 0x0, symName: __ZNSt3__121__tree_const_iteratorINS_12__value_typeIi4NodeEEPNS_11__tree_nodeIS3_PvEElEC2B8ue170006EPNS_15__tree_end_nodeIPNS_16__tree_node_baseIS5_EEEE, symObjAddr: 0x9C94, symBinAddr: 0x10000AE2C, symSize: 0x20 }
  - { offsetInCU: 0x1D62D, offset: 0x1D62D, size: 0x8, addend: 0x0, symName: __ZNSt3__120__map_const_iteratorINS_21__tree_const_iteratorINS_12__value_typeIi4NodeEEPNS_11__tree_nodeIS4_PvEElEEEC2B8ue170006ES9_, symObjAddr: 0x9CB4, symBinAddr: 0x10000AE4C, symSize: 0x20 }
  - { offsetInCU: 0x1D666, offset: 0x1D666, size: 0x8, addend: 0x0, symName: __ZNKSt3__16__treeINS_12__value_typeIi4NodeEENS_19__map_value_compareIiS3_NS_4lessIiEELb1EEENS_9allocatorIS3_EEE3endB8ue170006Ev, symObjAddr: 0x9CD4, symBinAddr: 0x10000AE6C, symSize: 0x34 }
  - { offsetInCU: 0x1D68C, offset: 0x1D68C, size: 0x8, addend: 0x0, symName: __ZNKSt3__121__tree_const_iteratorINS_12__value_typeIi4NodeEEPNS_11__tree_nodeIS3_PvEElEptB8ue170006Ev, symObjAddr: 0x9D6C, symBinAddr: 0x10000AF04, symSize: 0x2C }
  - { offsetInCU: 0x1D6B2, offset: 0x1D6B2, size: 0x8, addend: 0x0, symName: __ZNSt3__114pointer_traitsIPKNS_12__value_typeIi4NodeEEE10pointer_toB8ue170006ERS4_, symObjAddr: 0x9D98, symBinAddr: 0x10000AF30, symSize: 0x14 }
  - { offsetInCU: 0x1D6D5, offset: 0x1D6D5, size: 0x8, addend: 0x0, symName: __ZNKSt3__121__tree_const_iteratorINS_12__value_typeIi4NodeEEPNS_11__tree_nodeIS3_PvEElE8__get_npB8ue170006Ev, symObjAddr: 0x9DAC, symBinAddr: 0x10000AF44, symSize: 0x18 }
  - { offsetInCU: 0x1D6FB, offset: 0x1D6FB, size: 0x8, addend: 0x0, symName: __ZNKSt3__13setIiNS_4lessIiEENS_9allocatorIiEEE5beginB8ue170006Ev, symObjAddr: 0x9DC4, symBinAddr: 0x10000AF5C, symSize: 0x2C }
  - { offsetInCU: 0x1D721, offset: 0x1D721, size: 0x8, addend: 0x0, symName: __ZNKSt3__13setIiNS_4lessIiEENS_9allocatorIiEEE3endB8ue170006Ev, symObjAddr: 0x9E24, symBinAddr: 0x10000AFBC, symSize: 0x2C }
  - { offsetInCU: 0x1D747, offset: 0x1D747, size: 0x8, addend: 0x0, symName: __ZNKSt3__121__tree_const_iteratorIiPNS_11__tree_nodeIiPvEElEdeB8ue170006Ev, symObjAddr: 0x9E50, symBinAddr: 0x10000AFE8, symSize: 0x28 }
  - { offsetInCU: 0x1D76D, offset: 0x1D76D, size: 0x8, addend: 0x0, symName: __ZNSt3__121__tree_const_iteratorIiPNS_11__tree_nodeIiPvEElEppB8ue170006Ev, symObjAddr: 0x9E78, symBinAddr: 0x10000B010, symSize: 0x38 }
  - { offsetInCU: 0x1D793, offset: 0x1D793, size: 0x8, addend: 0x0, symName: __ZNKSt3__16__treeIiNS_4lessIiEENS_9allocatorIiEEE5beginB8ue170006Ev, symObjAddr: 0x9EB0, symBinAddr: 0x10000B048, symSize: 0x34 }
  - { offsetInCU: 0x1D7B9, offset: 0x1D7B9, size: 0x8, addend: 0x0, symName: __ZNKSt3__16__treeIiNS_4lessIiEENS_9allocatorIiEEE12__begin_nodeB8ue170006Ev, symObjAddr: 0x9EE4, symBinAddr: 0x10000B07C, symSize: 0x14 }
  - { offsetInCU: 0x1D7DF, offset: 0x1D7DF, size: 0x8, addend: 0x0, symName: __ZNSt3__121__tree_const_iteratorIiPNS_11__tree_nodeIiPvEElEC1B8ue170006EPNS_15__tree_end_nodeIPNS_16__tree_node_baseIS2_EEEE, symObjAddr: 0x9EF8, symBinAddr: 0x10000B090, symSize: 0x34 }
  - { offsetInCU: 0x1D818, offset: 0x1D818, size: 0x8, addend: 0x0, symName: __ZNSt3__121__tree_const_iteratorIiPNS_11__tree_nodeIiPvEElEC2B8ue170006EPNS_15__tree_end_nodeIPNS_16__tree_node_baseIS2_EEEE, symObjAddr: 0x9F2C, symBinAddr: 0x10000B0C4, symSize: 0x20 }
  - { offsetInCU: 0x1D851, offset: 0x1D851, size: 0x8, addend: 0x0, symName: __ZNKSt3__16__treeIiNS_4lessIiEENS_9allocatorIiEEE3endB8ue170006Ev, symObjAddr: 0x9F7C, symBinAddr: 0x10000B114, symSize: 0x34 }
  - { offsetInCU: 0x1D877, offset: 0x1D877, size: 0x8, addend: 0x0, symName: __ZNKSt3__121__tree_const_iteratorIiPNS_11__tree_nodeIiPvEElE8__get_npB8ue170006Ev, symObjAddr: 0x9FB0, symBinAddr: 0x10000B148, symSize: 0x18 }
  - { offsetInCU: 0x1D89D, offset: 0x1D89D, size: 0x8, addend: 0x0, symName: __ZNSt3__121__tree_const_iteratorINS_12__value_typeIi4NodeEEPNS_11__tree_nodeIS3_PvEElEppB8ue170006Ev, symObjAddr: 0xA088, symBinAddr: 0x10000B220, symSize: 0x38 }
  - { offsetInCU: 0x1D8C3, offset: 0x1D8C3, size: 0x8, addend: 0x0, symName: __ZN5GraphD2Ev, symObjAddr: 0xA0C0, symBinAddr: 0x10000B258, symSize: 0x2C }
  - { offsetInCU: 0x1D8EF, offset: 0x1D8EF, size: 0x8, addend: 0x0, symName: __ZNSt3__16vectorINS_12basic_stringIcNS_11char_traitsIcEENS_9allocatorIcEEEENS4_IS6_EEED2B8ue170006Ev, symObjAddr: 0xA0EC, symBinAddr: 0x10000B284, symSize: 0x44 }
  - { offsetInCU: 0x1D919, offset: 0x1D919, size: 0x8, addend: 0x0, symName: __ZNSt3__16vectorINS_12basic_stringIcNS_11char_traitsIcEENS_9allocatorIcEEEENS4_IS6_EEE16__destroy_vectorC1B8ue170006ERS8_, symObjAddr: 0xA130, symBinAddr: 0x10000B2C8, symSize: 0x34 }
  - { offsetInCU: 0x1D952, offset: 0x1D952, size: 0x8, addend: 0x0, symName: __ZNSt3__16vectorINS_12basic_stringIcNS_11char_traitsIcEENS_9allocatorIcEEEENS4_IS6_EEE16__destroy_vectorclB8ue170006Ev, symObjAddr: 0xA164, symBinAddr: 0x10000B2FC, symSize: 0x90 }
  - { offsetInCU: 0x1D978, offset: 0x1D978, size: 0x8, addend: 0x0, symName: __ZNSt3__16vectorINS_12basic_stringIcNS_11char_traitsIcEENS_9allocatorIcEEEENS4_IS6_EEE16__destroy_vectorC2B8ue170006ERS8_, symObjAddr: 0xA1F4, symBinAddr: 0x10000B38C, symSize: 0x20 }
  - { offsetInCU: 0x1D9B1, offset: 0x1D9B1, size: 0x8, addend: 0x0, symName: __ZNSt3__16vectorINS_12basic_stringIcNS_11char_traitsIcEENS_9allocatorIcEEEENS4_IS6_EEE7__clearB8ue170006Ev, symObjAddr: 0xA214, symBinAddr: 0x10000B3AC, symSize: 0x28 }
  - { offsetInCU: 0x1D9D7, offset: 0x1D9D7, size: 0x8, addend: 0x0, symName: __ZNKSt3__16vectorINS_12basic_stringIcNS_11char_traitsIcEENS_9allocatorIcEEEENS4_IS6_EEE17__annotate_deleteB8ue170006Ev, symObjAddr: 0xA23C, symBinAddr: 0x10000B3D4, symSize: 0xD4 }
  - { offsetInCU: 0x1D9FD, offset: 0x1D9FD, size: 0x8, addend: 0x0, symName: __ZNSt3__116allocator_traitsINS_9allocatorINS_12basic_stringIcNS_11char_traitsIcEENS1_IcEEEEEEE10deallocateB8ue170006ERS7_PS6_m, symObjAddr: 0xA310, symBinAddr: 0x10000B4A8, symSize: 0x34 }
  - { offsetInCU: 0x1DA3F, offset: 0x1DA3F, size: 0x8, addend: 0x0, symName: __ZNSt3__16vectorINS_12basic_stringIcNS_11char_traitsIcEENS_9allocatorIcEEEENS4_IS6_EEE7__allocB8ue170006Ev, symObjAddr: 0xA344, symBinAddr: 0x10000B4DC, symSize: 0x28 }
  - { offsetInCU: 0x1DA65, offset: 0x1DA65, size: 0x8, addend: 0x0, symName: __ZNKSt3__16vectorINS_12basic_stringIcNS_11char_traitsIcEENS_9allocatorIcEEEENS4_IS6_EEE8capacityB8ue170006Ev, symObjAddr: 0xA36C, symBinAddr: 0x10000B504, symSize: 0x40 }
  - { offsetInCU: 0x1DA8B, offset: 0x1DA8B, size: 0x8, addend: 0x0, symName: __ZNSt3__16vectorINS_12basic_stringIcNS_11char_traitsIcEENS_9allocatorIcEEEENS4_IS6_EEE22__base_destruct_at_endB8ue170006EPS6_, symObjAddr: 0xA3AC, symBinAddr: 0x10000B544, symSize: 0x8C }
  - { offsetInCU: 0x1DACF, offset: 0x1DACF, size: 0x8, addend: 0x0, symName: __ZNSt3__116allocator_traitsINS_9allocatorINS_12basic_stringIcNS_11char_traitsIcEENS1_IcEEEEEEE7destroyB8ue170006IS6_vEEvRS7_PT_, symObjAddr: 0xA438, symBinAddr: 0x10000B5D0, symSize: 0x2C }
  - { offsetInCU: 0x1DB0C, offset: 0x1DB0C, size: 0x8, addend: 0x0, symName: __ZNSt3__19allocatorINS_12basic_stringIcNS_11char_traitsIcEENS0_IcEEEEE7destroyB8ue170006EPS5_, symObjAddr: 0xA478, symBinAddr: 0x10000B610, symSize: 0x28 }
  - { offsetInCU: 0x1DB40, offset: 0x1DB40, size: 0x8, addend: 0x0, symName: __ZNKSt3__16vectorINS_12basic_stringIcNS_11char_traitsIcEENS_9allocatorIcEEEENS4_IS6_EEE31__annotate_contiguous_containerB8ue170006EPKvSA_SA_SA_, symObjAddr: 0xA4A0, symBinAddr: 0x10000B638, symSize: 0x20 }
  - { offsetInCU: 0x1DB96, offset: 0x1DB96, size: 0x8, addend: 0x0, symName: __ZNKSt3__16vectorINS_12basic_stringIcNS_11char_traitsIcEENS_9allocatorIcEEEENS4_IS6_EEE4dataB8ue170006Ev, symObjAddr: 0xA4C0, symBinAddr: 0x10000B658, symSize: 0x28 }
  - { offsetInCU: 0x1DBBC, offset: 0x1DBBC, size: 0x8, addend: 0x0, symName: __ZNKSt3__16vectorINS_12basic_stringIcNS_11char_traitsIcEENS_9allocatorIcEEEENS4_IS6_EEE4sizeB8ue170006Ev, symObjAddr: 0xA4E8, symBinAddr: 0x10000B680, symSize: 0x28 }
  - { offsetInCU: 0x1DBE2, offset: 0x1DBE2, size: 0x8, addend: 0x0, symName: __ZNSt3__19allocatorINS_12basic_stringIcNS_11char_traitsIcEENS0_IcEEEEE10deallocateB8ue170006EPS5_m, symObjAddr: 0xA510, symBinAddr: 0x10000B6A8, symSize: 0x44 }
  - { offsetInCU: 0x1DC24, offset: 0x1DC24, size: 0x8, addend: 0x0, symName: __ZNSt3__117__compressed_pairIPNS_12basic_stringIcNS_11char_traitsIcEENS_9allocatorIcEEEENS4_IS6_EEE6secondB8ue170006Ev, symObjAddr: 0xA554, symBinAddr: 0x10000B6EC, symSize: 0x24 }
  - { offsetInCU: 0x1DC4A, offset: 0x1DC4A, size: 0x8, addend: 0x0, symName: __ZNSt3__122__compressed_pair_elemINS_9allocatorINS_12basic_stringIcNS_11char_traitsIcEENS1_IcEEEEEELi1ELb1EE5__getB8ue170006Ev, symObjAddr: 0xA578, symBinAddr: 0x10000B710, symSize: 0x14 }
  - { offsetInCU: 0x1DC70, offset: 0x1DC70, size: 0x8, addend: 0x0, symName: __ZNKSt3__16vectorINS_12basic_stringIcNS_11char_traitsIcEENS_9allocatorIcEEEENS4_IS6_EEE9__end_capB8ue170006Ev, symObjAddr: 0xA58C, symBinAddr: 0x10000B724, symSize: 0x28 }
  - { offsetInCU: 0x1DC96, offset: 0x1DC96, size: 0x8, addend: 0x0, symName: __ZNKSt3__117__compressed_pairIPNS_12basic_stringIcNS_11char_traitsIcEENS_9allocatorIcEEEENS4_IS6_EEE5firstB8ue170006Ev, symObjAddr: 0xA5B4, symBinAddr: 0x10000B74C, symSize: 0x24 }
  - { offsetInCU: 0x1DCBC, offset: 0x1DCBC, size: 0x8, addend: 0x0, symName: __ZNKSt3__122__compressed_pair_elemIPNS_12basic_stringIcNS_11char_traitsIcEENS_9allocatorIcEEEELi0ELb0EE5__getB8ue170006Ev, symObjAddr: 0xA5D8, symBinAddr: 0x10000B770, symSize: 0x14 }
  - { offsetInCU: 0x1DCE2, offset: 0x1DCE2, size: 0x8, addend: 0x0, symName: __ZNSt3__112basic_stringIcNS_11char_traitsIcEENS_9allocatorIcEEEC2B8ue170006ILi0EEEPKc, symObjAddr: 0xA5EC, symBinAddr: 0x10000B784, symSize: 0x58 }
  - { offsetInCU: 0x1DD21, offset: 0x1DD21, size: 0x8, addend: 0x0, symName: __ZNSt3__16vectorINS_12basic_stringIcNS_11char_traitsIcEENS_9allocatorIcEEEENS4_IS6_EEEC2B8ue170006ESt16initializer_listIS6_E, symObjAddr: 0xA644, symBinAddr: 0x10000B7DC, symSize: 0x120 }
  - { offsetInCU: 0x1DD71, offset: 0x1DD71, size: 0x8, addend: 0x0, symName: __ZNSt3__117__compressed_pairIPNS_12basic_stringIcNS_11char_traitsIcEENS_9allocatorIcEEEENS4_IS6_EEEC1B8ue170006IDnNS_18__default_init_tagEEEOT_OT0_, symObjAddr: 0xA764, symBinAddr: 0x10000B8FC, symSize: 0x3C }
  - { offsetInCU: 0x1DDC9, offset: 0x1DDC9, size: 0x8, addend: 0x0, symName: __ZNKSt16initializer_listINSt3__112basic_stringIcNS0_11char_traitsIcEENS0_9allocatorIcEEEEE4sizeB8ue170006Ev, symObjAddr: 0xA7E0, symBinAddr: 0x10000B978, symSize: 0x18 }
  - { offsetInCU: 0x1DDEF, offset: 0x1DDEF, size: 0x8, addend: 0x0, symName: __ZNSt3__16vectorINS_12basic_stringIcNS_11char_traitsIcEENS_9allocatorIcEEEENS4_IS6_EEE11__vallocateB8ue170006Em, symObjAddr: 0xA7F8, symBinAddr: 0x10000B990, symSize: 0xB4 }
  - { offsetInCU: 0x1DE33, offset: 0x1DE33, size: 0x8, addend: 0x0, symName: __ZNSt3__16vectorINS_12basic_stringIcNS_11char_traitsIcEENS_9allocatorIcEEEENS4_IS6_EEE18__construct_at_endIPKS6_SB_EEvT_T0_m, symObjAddr: 0xA8AC, symBinAddr: 0x10000BA44, symSize: 0x8C }
  - { offsetInCU: 0x1DEA9, offset: 0x1DEA9, size: 0x8, addend: 0x0, symName: __ZNKSt16initializer_listINSt3__112basic_stringIcNS0_11char_traitsIcEENS0_9allocatorIcEEEEE5beginB8ue170006Ev, symObjAddr: 0xA938, symBinAddr: 0x10000BAD0, symSize: 0x18 }
  - { offsetInCU: 0x1DECF, offset: 0x1DECF, size: 0x8, addend: 0x0, symName: __ZNKSt16initializer_listINSt3__112basic_stringIcNS0_11char_traitsIcEENS0_9allocatorIcEEEEE3endB8ue170006Ev, symObjAddr: 0xA950, symBinAddr: 0x10000BAE8, symSize: 0x28 }
  - { offsetInCU: 0x1DEF5, offset: 0x1DEF5, size: 0x8, addend: 0x0, symName: __ZNSt3__128__exception_guard_exceptionsINS_6vectorINS_12basic_stringIcNS_11char_traitsIcEENS_9allocatorIcEEEENS5_IS7_EEE16__destroy_vectorEE10__completeB8ue170006Ev, symObjAddr: 0xA978, symBinAddr: 0x10000BB10, symSize: 0x1C }
  - { offsetInCU: 0x1DF1B, offset: 0x1DF1B, size: 0x8, addend: 0x0, symName: __ZNSt3__128__exception_guard_exceptionsINS_6vectorINS_12basic_stringIcNS_11char_traitsIcEENS_9allocatorIcEEEENS5_IS7_EEE16__destroy_vectorEED1B8ue170006Ev, symObjAddr: 0xA994, symBinAddr: 0x10000BB2C, symSize: 0x2C }
  - { offsetInCU: 0x1DF45, offset: 0x1DF45, size: 0x8, addend: 0x0, symName: __ZNSt3__117__compressed_pairIPNS_12basic_stringIcNS_11char_traitsIcEENS_9allocatorIcEEEENS4_IS6_EEEC2B8ue170006IDnNS_18__default_init_tagEEEOT_OT0_, symObjAddr: 0xA9C0, symBinAddr: 0x10000BB58, symSize: 0x40 }
  - { offsetInCU: 0x1DF9D, offset: 0x1DF9D, size: 0x8, addend: 0x0, symName: __ZNSt3__122__compressed_pair_elemIPNS_12basic_stringIcNS_11char_traitsIcEENS_9allocatorIcEEEELi0ELb0EEC2B8ue170006IDnvEEOT_, symObjAddr: 0xAA00, symBinAddr: 0x10000BB98, symSize: 0x1C }
  - { offsetInCU: 0x1DFDF, offset: 0x1DFDF, size: 0x8, addend: 0x0, symName: __ZNSt3__122__compressed_pair_elemINS_9allocatorINS_12basic_stringIcNS_11char_traitsIcEENS1_IcEEEEEELi1ELb1EEC2B8ue170006ENS_18__default_init_tagE, symObjAddr: 0xAA1C, symBinAddr: 0x10000BBB4, symSize: 0x2C }
  - { offsetInCU: 0x1E014, offset: 0x1E014, size: 0x8, addend: 0x0, symName: __ZNSt3__19allocatorINS_12basic_stringIcNS_11char_traitsIcEENS0_IcEEEEEC2B8ue170006Ev, symObjAddr: 0xAA48, symBinAddr: 0x10000BBE0, symSize: 0x2C }
  - { offsetInCU: 0x1E03E, offset: 0x1E03E, size: 0x8, addend: 0x0, symName: __ZNSt3__116__non_trivial_ifILb1ENS_9allocatorINS_12basic_stringIcNS_11char_traitsIcEENS1_IcEEEEEEEC2B8ue170006Ev, symObjAddr: 0xAA74, symBinAddr: 0x10000BC0C, symSize: 0x14 }
  - { offsetInCU: 0x1E068, offset: 0x1E068, size: 0x8, addend: 0x0, symName: __ZNSt3__128__exception_guard_exceptionsINS_6vectorINS_12basic_stringIcNS_11char_traitsIcEENS_9allocatorIcEEEENS5_IS7_EEE16__destroy_vectorEEC1B8ue170006ESA_, symObjAddr: 0xAA88, symBinAddr: 0x10000BC20, symSize: 0x34 }
  - { offsetInCU: 0x1E0A0, offset: 0x1E0A0, size: 0x8, addend: 0x0, symName: __ZNSt3__128__exception_guard_exceptionsINS_6vectorINS_12basic_stringIcNS_11char_traitsIcEENS_9allocatorIcEEEENS5_IS7_EEE16__destroy_vectorEEC2B8ue170006ESA_, symObjAddr: 0xAABC, symBinAddr: 0x10000BC54, symSize: 0x24 }
  - { offsetInCU: 0x1E0D8, offset: 0x1E0D8, size: 0x8, addend: 0x0, symName: __ZNKSt3__16vectorINS_12basic_stringIcNS_11char_traitsIcEENS_9allocatorIcEEEENS4_IS6_EEE8max_sizeEv, symObjAddr: 0xAAE0, symBinAddr: 0x10000BC78, symSize: 0x60 }
  - { offsetInCU: 0x1E100, offset: 0x1E100, size: 0x8, addend: 0x0, symName: __ZNKSt3__16vectorINS_12basic_stringIcNS_11char_traitsIcEENS_9allocatorIcEEEENS4_IS6_EEE20__throw_length_errorB8ue170006Ev, symObjAddr: 0xAB40, symBinAddr: 0x10000BCD8, symSize: 0x1C }
  - { offsetInCU: 0x1E126, offset: 0x1E126, size: 0x8, addend: 0x0, symName: __ZNSt3__16vectorINS_12basic_stringIcNS_11char_traitsIcEENS_9allocatorIcEEEENS4_IS6_EEE9__end_capB8ue170006Ev, symObjAddr: 0xAB9C, symBinAddr: 0x10000BD34, symSize: 0x28 }
  - { offsetInCU: 0x1E14C, offset: 0x1E14C, size: 0x8, addend: 0x0, symName: __ZNKSt3__16vectorINS_12basic_stringIcNS_11char_traitsIcEENS_9allocatorIcEEEENS4_IS6_EEE14__annotate_newB8ue170006Em, symObjAddr: 0xABC4, symBinAddr: 0x10000BD5C, symSize: 0xC8 }
  - { offsetInCU: 0x1E18C, offset: 0x1E18C, size: 0x8, addend: 0x0, symName: __ZNSt3__116allocator_traitsINS_9allocatorINS_12basic_stringIcNS_11char_traitsIcEENS1_IcEEEEEEE8max_sizeB8ue170006IS7_vEEmRKS7_, symObjAddr: 0xAC8C, symBinAddr: 0x10000BE24, symSize: 0x24 }
  - { offsetInCU: 0x1E1BA, offset: 0x1E1BA, size: 0x8, addend: 0x0, symName: __ZNKSt3__16vectorINS_12basic_stringIcNS_11char_traitsIcEENS_9allocatorIcEEEENS4_IS6_EEE7__allocB8ue170006Ev, symObjAddr: 0xACB0, symBinAddr: 0x10000BE48, symSize: 0x28 }
  - { offsetInCU: 0x1E1E0, offset: 0x1E1E0, size: 0x8, addend: 0x0, symName: __ZNKSt3__19allocatorINS_12basic_stringIcNS_11char_traitsIcEENS0_IcEEEEE8max_sizeB8ue170006Ev, symObjAddr: 0xACD8, symBinAddr: 0x10000BE70, symSize: 0x18 }
  - { offsetInCU: 0x1E206, offset: 0x1E206, size: 0x8, addend: 0x0, symName: __ZNKSt3__117__compressed_pairIPNS_12basic_stringIcNS_11char_traitsIcEENS_9allocatorIcEEEENS4_IS6_EEE6secondB8ue170006Ev, symObjAddr: 0xACF0, symBinAddr: 0x10000BE88, symSize: 0x24 }
  - { offsetInCU: 0x1E22C, offset: 0x1E22C, size: 0x8, addend: 0x0, symName: __ZNKSt3__122__compressed_pair_elemINS_9allocatorINS_12basic_stringIcNS_11char_traitsIcEENS1_IcEEEEEELi1ELb1EE5__getB8ue170006Ev, symObjAddr: 0xAD14, symBinAddr: 0x10000BEAC, symSize: 0x14 }
  - { offsetInCU: 0x1E252, offset: 0x1E252, size: 0x8, addend: 0x0, symName: __ZNSt3__19allocatorINS_12basic_stringIcNS_11char_traitsIcEENS0_IcEEEEE8allocateB8ue170006Em, symObjAddr: 0xAD28, symBinAddr: 0x10000BEC0, symSize: 0x5C }
  - { offsetInCU: 0x1E286, offset: 0x1E286, size: 0x8, addend: 0x0, symName: __ZNSt3__117__compressed_pairIPNS_12basic_stringIcNS_11char_traitsIcEENS_9allocatorIcEEEENS4_IS6_EEE5firstB8ue170006Ev, symObjAddr: 0xAD84, symBinAddr: 0x10000BF1C, symSize: 0x24 }
  - { offsetInCU: 0x1E2AC, offset: 0x1E2AC, size: 0x8, addend: 0x0, symName: __ZNSt3__122__compressed_pair_elemIPNS_12basic_stringIcNS_11char_traitsIcEENS_9allocatorIcEEEELi0ELb0EE5__getB8ue170006Ev, symObjAddr: 0xADA8, symBinAddr: 0x10000BF40, symSize: 0x14 }
  - { offsetInCU: 0x1E2ED, offset: 0x1E2ED, size: 0x8, addend: 0x0, symName: __ZNSt3__16vectorINS_12basic_stringIcNS_11char_traitsIcEENS_9allocatorIcEEEENS4_IS6_EEE21_ConstructTransactionC1B8ue170006ERS8_m, symObjAddr: 0xADBC, symBinAddr: 0x10000BF54, symSize: 0x3C }
  - { offsetInCU: 0x1E335, offset: 0x1E335, size: 0x8, addend: 0x0, symName: __ZNSt3__16vectorINS_12basic_stringIcNS_11char_traitsIcEENS_9allocatorIcEEEENS4_IS6_EEE21_ConstructTransactionD1B8ue170006Ev, symObjAddr: 0xAE78, symBinAddr: 0x10000C010, symSize: 0x2C }
  - { offsetInCU: 0x1E35F, offset: 0x1E35F, size: 0x8, addend: 0x0, symName: __ZNSt3__16vectorINS_12basic_stringIcNS_11char_traitsIcEENS_9allocatorIcEEEENS4_IS6_EEE21_ConstructTransactionC2B8ue170006ERS8_m, symObjAddr: 0xAEA4, symBinAddr: 0x10000C03C, symSize: 0x4C }
  - { offsetInCU: 0x1E3C9, offset: 0x1E3C9, size: 0x8, addend: 0x0, symName: __ZNSt3__14pairIPKNS_12basic_stringIcNS_11char_traitsIcEENS_9allocatorIcEEEES8_EC1B8ue170006IS8_S8_LPv0EEEOT_OT0_, symObjAddr: 0xB100, symBinAddr: 0x10000C298, symSize: 0x3C }
  - { offsetInCU: 0x1E427, offset: 0x1E427, size: 0x8, addend: 0x0, symName: __ZNSt3__14pairIPKNS_12basic_stringIcNS_11char_traitsIcEENS_9allocatorIcEEEES8_EC2B8ue170006IS8_S8_LPv0EEEOT_OT0_, symObjAddr: 0xB13C, symBinAddr: 0x10000C2D4, symSize: 0x34 }
  - { offsetInCU: 0x1E485, offset: 0x1E485, size: 0x8, addend: 0x0, symName: __ZNSt3__118__unwrap_iter_implIPKNS_12basic_stringIcNS_11char_traitsIcEENS_9allocatorIcEEEELb1EE8__unwrapB8ue170006ES8_, symObjAddr: 0xB170, symBinAddr: 0x10000C308, symSize: 0x24 }
  - { offsetInCU: 0x1E4A8, offset: 0x1E4A8, size: 0x8, addend: 0x0, symName: __ZNSt3__129_AllocatorDestroyRangeReverseINS_9allocatorINS_12basic_stringIcNS_11char_traitsIcEENS1_IcEEEEEEPS6_EC1B8ue170006ERS7_RS8_SB_, symObjAddr: 0xB1F4, symBinAddr: 0x10000C38C, symSize: 0x44 }
  - { offsetInCU: 0x1E4FF, offset: 0x1E4FF, size: 0x8, addend: 0x0, symName: __ZNSt3__116allocator_traitsINS_9allocatorINS_12basic_stringIcNS_11char_traitsIcEENS1_IcEEEEEEE9constructB8ue170006IS6_JRKS6_EvEEvRS7_PT_DpOT0_, symObjAddr: 0xB238, symBinAddr: 0x10000C3D0, symSize: 0x34 }
  - { offsetInCU: 0x1E556, offset: 0x1E556, size: 0x8, addend: 0x0, symName: __ZNSt3__128__exception_guard_exceptionsINS_29_AllocatorDestroyRangeReverseINS_9allocatorINS_12basic_stringIcNS_11char_traitsIcEENS2_IcEEEEEEPS7_EEE10__completeB8ue170006Ev, symObjAddr: 0xB26C, symBinAddr: 0x10000C404, symSize: 0x1C }
  - { offsetInCU: 0x1E57C, offset: 0x1E57C, size: 0x8, addend: 0x0, symName: __ZNSt3__128__exception_guard_exceptionsINS_29_AllocatorDestroyRangeReverseINS_9allocatorINS_12basic_stringIcNS_11char_traitsIcEENS2_IcEEEEEEPS7_EEED1B8ue170006Ev, symObjAddr: 0xB288, symBinAddr: 0x10000C420, symSize: 0x2C }
  - { offsetInCU: 0x1E5A6, offset: 0x1E5A6, size: 0x8, addend: 0x0, symName: __ZNSt3__128__exception_guard_exceptionsINS_29_AllocatorDestroyRangeReverseINS_9allocatorINS_12basic_stringIcNS_11char_traitsIcEENS2_IcEEEEEEPS7_EEEC1B8ue170006ESA_, symObjAddr: 0xB2B4, symBinAddr: 0x10000C44C, symSize: 0x34 }
  - { offsetInCU: 0x1E5DF, offset: 0x1E5DF, size: 0x8, addend: 0x0, symName: __ZNSt3__128__exception_guard_exceptionsINS_29_AllocatorDestroyRangeReverseINS_9allocatorINS_12basic_stringIcNS_11char_traitsIcEENS2_IcEEEEEEPS7_EEEC2B8ue170006ESA_, symObjAddr: 0xB2E8, symBinAddr: 0x10000C480, symSize: 0x30 }
  - { offsetInCU: 0x1E618, offset: 0x1E618, size: 0x8, addend: 0x0, symName: __ZNSt3__129_AllocatorDestroyRangeReverseINS_9allocatorINS_12basic_stringIcNS_11char_traitsIcEENS1_IcEEEEEEPS6_EC2B8ue170006ERS7_RS8_SB_, symObjAddr: 0xB318, symBinAddr: 0x10000C4B0, symSize: 0x38 }
  - { offsetInCU: 0x1E66F, offset: 0x1E66F, size: 0x8, addend: 0x0, symName: __ZNSt3__19allocatorINS_12basic_stringIcNS_11char_traitsIcEENS0_IcEEEEE9constructB8ue170006IS5_JRKS5_EEEvPT_DpOT0_, symObjAddr: 0xB350, symBinAddr: 0x10000C4E8, symSize: 0x30 }
  - { offsetInCU: 0x1E6C5, offset: 0x1E6C5, size: 0x8, addend: 0x0, symName: __ZNSt3__128__exception_guard_exceptionsINS_29_AllocatorDestroyRangeReverseINS_9allocatorINS_12basic_stringIcNS_11char_traitsIcEENS2_IcEEEEEEPS7_EEED2B8ue170006Ev, symObjAddr: 0xB380, symBinAddr: 0x10000C518, symSize: 0x50 }
  - { offsetInCU: 0x1E6EF, offset: 0x1E6EF, size: 0x8, addend: 0x0, symName: __ZNKSt3__129_AllocatorDestroyRangeReverseINS_9allocatorINS_12basic_stringIcNS_11char_traitsIcEENS1_IcEEEEEEPS6_EclB8ue170006Ev, symObjAddr: 0xB3D0, symBinAddr: 0x10000C568, symSize: 0x68 }
  - { offsetInCU: 0x1E715, offset: 0x1E715, size: 0x8, addend: 0x0, symName: __ZNSt3__116reverse_iteratorIPNS_12basic_stringIcNS_11char_traitsIcEENS_9allocatorIcEEEEEC1B8ue170006ES7_, symObjAddr: 0xB4A8, symBinAddr: 0x10000C640, symSize: 0x34 }
  - { offsetInCU: 0x1E74D, offset: 0x1E74D, size: 0x8, addend: 0x0, symName: __ZNSt3__116reverse_iteratorIPNS_12basic_stringIcNS_11char_traitsIcEENS_9allocatorIcEEEEEppB8ue170006Ev, symObjAddr: 0xB548, symBinAddr: 0x10000C6E0, symSize: 0x20 }
  - { offsetInCU: 0x1E773, offset: 0x1E773, size: 0x8, addend: 0x0, symName: __ZNKSt3__116reverse_iteratorIPNS_12basic_stringIcNS_11char_traitsIcEENS_9allocatorIcEEEEE4baseB8ue170006Ev, symObjAddr: 0xB568, symBinAddr: 0x10000C700, symSize: 0x18 }
  - { offsetInCU: 0x1E79F, offset: 0x1E79F, size: 0x8, addend: 0x0, symName: __ZNSt3__119__to_address_helperINS_16reverse_iteratorIPNS_12basic_stringIcNS_11char_traitsIcEENS_9allocatorIcEEEEEEvE6__callB8ue170006ERKS9_, symObjAddr: 0xB580, symBinAddr: 0x10000C718, symSize: 0x38 }
  - { offsetInCU: 0x1E7C2, offset: 0x1E7C2, size: 0x8, addend: 0x0, symName: __ZNKSt3__116reverse_iteratorIPNS_12basic_stringIcNS_11char_traitsIcEENS_9allocatorIcEEEEEptB8ue170006Ev, symObjAddr: 0xB5B8, symBinAddr: 0x10000C750, symSize: 0x24 }
  - { offsetInCU: 0x1E7E8, offset: 0x1E7E8, size: 0x8, addend: 0x0, symName: __ZNKSt3__116reverse_iteratorIPNS_12basic_stringIcNS_11char_traitsIcEENS_9allocatorIcEEEEEdeB8ue170006Ev, symObjAddr: 0xB5DC, symBinAddr: 0x10000C774, symSize: 0x28 }
  - { offsetInCU: 0x1E81C, offset: 0x1E81C, size: 0x8, addend: 0x0, symName: __ZNSt3__116reverse_iteratorIPNS_12basic_stringIcNS_11char_traitsIcEENS_9allocatorIcEEEEEC2B8ue170006ES7_, symObjAddr: 0xB604, symBinAddr: 0x10000C79C, symSize: 0x28 }
  - { offsetInCU: 0x1E854, offset: 0x1E854, size: 0x8, addend: 0x0, symName: __ZNSt3__118__unwrap_iter_implIPNS_12basic_stringIcNS_11char_traitsIcEENS_9allocatorIcEEEELb1EE8__unwrapB8ue170006ES7_, symObjAddr: 0xB62C, symBinAddr: 0x10000C7C4, symSize: 0x24 }
  - { offsetInCU: 0x1E877, offset: 0x1E877, size: 0x8, addend: 0x0, symName: __ZNSt3__118__unwrap_iter_implIPNS_12basic_stringIcNS_11char_traitsIcEENS_9allocatorIcEEEELb1EE8__rewrapB8ue170006ES7_S7_, symObjAddr: 0xB650, symBinAddr: 0x10000C7E8, symSize: 0x58 }
  - { offsetInCU: 0x1E8A8, offset: 0x1E8A8, size: 0x8, addend: 0x0, symName: __ZNSt3__16vectorINS_12basic_stringIcNS_11char_traitsIcEENS_9allocatorIcEEEENS4_IS6_EEE21_ConstructTransactionD2B8ue170006Ev, symObjAddr: 0xB6A8, symBinAddr: 0x10000C840, symSize: 0x20 }
  - { offsetInCU: 0x1E8D2, offset: 0x1E8D2, size: 0x8, addend: 0x0, symName: __ZNSt3__128__exception_guard_exceptionsINS_6vectorINS_12basic_stringIcNS_11char_traitsIcEENS_9allocatorIcEEEENS5_IS7_EEE16__destroy_vectorEED2B8ue170006Ev, symObjAddr: 0xB6C8, symBinAddr: 0x10000C860, symSize: 0x48 }
  - { offsetInCU: 0x1E8FC, offset: 0x1E8FC, size: 0x8, addend: 0x0, symName: __ZNSt3__16vectorINS_12basic_stringIcNS_11char_traitsIcEENS_9allocatorIcEEEENS4_IS6_EEEC2ERKS8_, symObjAddr: 0xB710, symBinAddr: 0x10000C8A8, symSize: 0x94 }
  - { offsetInCU: 0x1E937, offset: 0x1E937, size: 0x8, addend: 0x0, symName: __ZNSt3__116allocator_traitsINS_9allocatorINS_12basic_stringIcNS_11char_traitsIcEENS1_IcEEEEEEE37select_on_container_copy_constructionB8ue170006IS7_vvEES7_RKS7_, symObjAddr: 0xB7A4, symBinAddr: 0x10000C93C, symSize: 0x10 }
  - { offsetInCU: 0x1E96C, offset: 0x1E96C, size: 0x8, addend: 0x0, symName: __ZNSt3__117__compressed_pairIPNS_12basic_stringIcNS_11char_traitsIcEENS_9allocatorIcEEEENS4_IS6_EEEC1B8ue170006IDnS8_EEOT_OT0_, symObjAddr: 0xB7B4, symBinAddr: 0x10000C94C, symSize: 0x3C }
  - { offsetInCU: 0x1E9C4, offset: 0x1E9C4, size: 0x8, addend: 0x0, symName: __ZNSt3__16vectorINS_12basic_stringIcNS_11char_traitsIcEENS_9allocatorIcEEEENS4_IS6_EEE16__init_with_sizeB8ue170006IPS6_SA_EEvT_T0_m, symObjAddr: 0xB7F0, symBinAddr: 0x10000C988, symSize: 0xB8 }
  - { offsetInCU: 0x1EA38, offset: 0x1EA38, size: 0x8, addend: 0x0, symName: __ZNSt3__117__compressed_pairIPNS_12basic_stringIcNS_11char_traitsIcEENS_9allocatorIcEEEENS4_IS6_EEEC2B8ue170006IDnS8_EEOT_OT0_, symObjAddr: 0xB8A8, symBinAddr: 0x10000CA40, symSize: 0x44 }
  - { offsetInCU: 0x1EA90, offset: 0x1EA90, size: 0x8, addend: 0x0, symName: __ZNSt3__122__compressed_pair_elemINS_9allocatorINS_12basic_stringIcNS_11char_traitsIcEENS1_IcEEEEEELi1ELb1EEC2B8ue170006IS7_vEEOT_, symObjAddr: 0xB8EC, symBinAddr: 0x10000CA84, symSize: 0x18 }
  - { offsetInCU: 0x1EAD2, offset: 0x1EAD2, size: 0x8, addend: 0x0, symName: __ZNSt3__16vectorINS_12basic_stringIcNS_11char_traitsIcEENS_9allocatorIcEEEENS4_IS6_EEE18__construct_at_endIPS6_SA_EEvT_T0_m, symObjAddr: 0xB904, symBinAddr: 0x10000CA9C, symSize: 0x8C }
  - { offsetInCU: 0x1EB6A, offset: 0x1EB6A, size: 0x8, addend: 0x0, symName: __ZNSt3__14pairIPNS_12basic_stringIcNS_11char_traitsIcEENS_9allocatorIcEEEES7_EC1B8ue170006IS7_S7_LPv0EEEOT_OT0_, symObjAddr: 0xBB9C, symBinAddr: 0x10000CD34, symSize: 0x3C }
  - { offsetInCU: 0x1EBC8, offset: 0x1EBC8, size: 0x8, addend: 0x0, symName: __ZNSt3__14pairIPNS_12basic_stringIcNS_11char_traitsIcEENS_9allocatorIcEEEES7_EC2B8ue170006IS7_S7_LPv0EEEOT_OT0_, symObjAddr: 0xBBD8, symBinAddr: 0x10000CD70, symSize: 0x34 }
  - { offsetInCU: 0x1EC26, offset: 0x1EC26, size: 0x8, addend: 0x0, symName: __ZNSt3__116allocator_traitsINS_9allocatorINS_12basic_stringIcNS_11char_traitsIcEENS1_IcEEEEEEE9constructB8ue170006IS6_JRS6_EvEEvRS7_PT_DpOT0_, symObjAddr: 0xBC0C, symBinAddr: 0x10000CDA4, symSize: 0x34 }
  - { offsetInCU: 0x1EC7D, offset: 0x1EC7D, size: 0x8, addend: 0x0, symName: __ZNSt3__19allocatorINS_12basic_stringIcNS_11char_traitsIcEENS0_IcEEEEE9constructB8ue170006IS5_JRS5_EEEvPT_DpOT0_, symObjAddr: 0xBC40, symBinAddr: 0x10000CDD8, symSize: 0x30 }
  - { offsetInCU: 0x1ECD3, offset: 0x1ECD3, size: 0x8, addend: 0x0, symName: __ZNSt3__16vectorI4RuleNS_9allocatorIS1_EEEC2B8ue170006Ev, symObjAddr: 0xBC70, symBinAddr: 0x10000CE08, symSize: 0x4C }
  - { offsetInCU: 0x1ECFD, offset: 0x1ECFD, size: 0x8, addend: 0x0, symName: __ZNSt3__117__compressed_pairIP4RuleNS_9allocatorIS1_EEEC1B8ue170006IDnNS_18__default_init_tagEEEOT_OT0_, symObjAddr: 0xBCBC, symBinAddr: 0x10000CE54, symSize: 0x3C }
  - { offsetInCU: 0x1ED55, offset: 0x1ED55, size: 0x8, addend: 0x0, symName: __ZNSt3__117__compressed_pairIP4RuleNS_9allocatorIS1_EEEC2B8ue170006IDnNS_18__default_init_tagEEEOT_OT0_, symObjAddr: 0xBCF8, symBinAddr: 0x10000CE90, symSize: 0x40 }
  - { offsetInCU: 0x1EDAD, offset: 0x1EDAD, size: 0x8, addend: 0x0, symName: __ZNSt3__122__compressed_pair_elemIP4RuleLi0ELb0EEC2B8ue170006IDnvEEOT_, symObjAddr: 0xBD38, symBinAddr: 0x10000CED0, symSize: 0x1C }
  - { offsetInCU: 0x1EDEF, offset: 0x1EDEF, size: 0x8, addend: 0x0, symName: __ZNSt3__122__compressed_pair_elemINS_9allocatorI4RuleEELi1ELb1EEC2B8ue170006ENS_18__default_init_tagE, symObjAddr: 0xBD54, symBinAddr: 0x10000CEEC, symSize: 0x2C }
  - { offsetInCU: 0x1EE24, offset: 0x1EE24, size: 0x8, addend: 0x0, symName: __ZNSt3__19allocatorI4RuleEC2B8ue170006Ev, symObjAddr: 0xBD80, symBinAddr: 0x10000CF18, symSize: 0x2C }
  - { offsetInCU: 0x1EE4E, offset: 0x1EE4E, size: 0x8, addend: 0x0, symName: __ZNSt3__116__non_trivial_ifILb1ENS_9allocatorI4RuleEEEC2B8ue170006Ev, symObjAddr: 0xBDAC, symBinAddr: 0x10000CF44, symSize: 0x14 }
  - { offsetInCU: 0x1EE78, offset: 0x1EE78, size: 0x8, addend: 0x0, symName: __ZNSt3__16vectorI4RuleNS_9allocatorIS1_EEED2B8ue170006Ev, symObjAddr: 0xBDC0, symBinAddr: 0x10000CF58, symSize: 0x44 }
  - { offsetInCU: 0x1EEA2, offset: 0x1EEA2, size: 0x8, addend: 0x0, symName: __ZNSt3__16vectorI4RuleNS_9allocatorIS1_EEE16__destroy_vectorC1B8ue170006ERS4_, symObjAddr: 0xBE04, symBinAddr: 0x10000CF9C, symSize: 0x34 }
  - { offsetInCU: 0x1EEDB, offset: 0x1EEDB, size: 0x8, addend: 0x0, symName: __ZNSt3__16vectorI4RuleNS_9allocatorIS1_EEE16__destroy_vectorclB8ue170006Ev, symObjAddr: 0xBE38, symBinAddr: 0x10000CFD0, symSize: 0x90 }
  - { offsetInCU: 0x1EF01, offset: 0x1EF01, size: 0x8, addend: 0x0, symName: __ZNSt3__16vectorI4RuleNS_9allocatorIS1_EEE16__destroy_vectorC2B8ue170006ERS4_, symObjAddr: 0xBEC8, symBinAddr: 0x10000D060, symSize: 0x20 }
  - { offsetInCU: 0x1EF3A, offset: 0x1EF3A, size: 0x8, addend: 0x0, symName: __ZNSt3__16vectorI4RuleNS_9allocatorIS1_EEE7__clearB8ue170006Ev, symObjAddr: 0xBEE8, symBinAddr: 0x10000D080, symSize: 0x28 }
  - { offsetInCU: 0x1EF60, offset: 0x1EF60, size: 0x8, addend: 0x0, symName: __ZNKSt3__16vectorI4RuleNS_9allocatorIS1_EEE17__annotate_deleteB8ue170006Ev, symObjAddr: 0xBF10, symBinAddr: 0x10000D0A8, symSize: 0xD4 }
  - { offsetInCU: 0x1EF86, offset: 0x1EF86, size: 0x8, addend: 0x0, symName: __ZNSt3__116allocator_traitsINS_9allocatorI4RuleEEE10deallocateB8ue170006ERS3_PS2_m, symObjAddr: 0xBFE4, symBinAddr: 0x10000D17C, symSize: 0x34 }
  - { offsetInCU: 0x1EFC8, offset: 0x1EFC8, size: 0x8, addend: 0x0, symName: __ZNSt3__16vectorI4RuleNS_9allocatorIS1_EEE7__allocB8ue170006Ev, symObjAddr: 0xC018, symBinAddr: 0x10000D1B0, symSize: 0x28 }
  - { offsetInCU: 0x1EFEE, offset: 0x1EFEE, size: 0x8, addend: 0x0, symName: __ZNKSt3__16vectorI4RuleNS_9allocatorIS1_EEE8capacityB8ue170006Ev, symObjAddr: 0xC040, symBinAddr: 0x10000D1D8, symSize: 0x40 }
  - { offsetInCU: 0x1F014, offset: 0x1F014, size: 0x8, addend: 0x0, symName: __ZNSt3__16vectorI4RuleNS_9allocatorIS1_EEE22__base_destruct_at_endB8ue170006EPS1_, symObjAddr: 0xC080, symBinAddr: 0x10000D218, symSize: 0x8C }
  - { offsetInCU: 0x1F058, offset: 0x1F058, size: 0x8, addend: 0x0, symName: __ZNSt3__116allocator_traitsINS_9allocatorI4RuleEEE7destroyB8ue170006IS2_vEEvRS3_PT_, symObjAddr: 0xC10C, symBinAddr: 0x10000D2A4, symSize: 0x2C }
  - { offsetInCU: 0x1F095, offset: 0x1F095, size: 0x8, addend: 0x0, symName: __ZNSt3__19allocatorI4RuleE7destroyB8ue170006EPS1_, symObjAddr: 0xC14C, symBinAddr: 0x10000D2E4, symSize: 0x28 }
  - { offsetInCU: 0x1F0C9, offset: 0x1F0C9, size: 0x8, addend: 0x0, symName: __ZNKSt3__16vectorI4RuleNS_9allocatorIS1_EEE31__annotate_contiguous_containerB8ue170006EPKvS6_S6_S6_, symObjAddr: 0xC174, symBinAddr: 0x10000D30C, symSize: 0x20 }
  - { offsetInCU: 0x1F11F, offset: 0x1F11F, size: 0x8, addend: 0x0, symName: __ZNKSt3__16vectorI4RuleNS_9allocatorIS1_EEE4dataB8ue170006Ev, symObjAddr: 0xC194, symBinAddr: 0x10000D32C, symSize: 0x28 }
  - { offsetInCU: 0x1F145, offset: 0x1F145, size: 0x8, addend: 0x0, symName: __ZNSt3__19allocatorI4RuleE10deallocateB8ue170006EPS1_m, symObjAddr: 0xC1BC, symBinAddr: 0x10000D354, symSize: 0x44 }
  - { offsetInCU: 0x1F187, offset: 0x1F187, size: 0x8, addend: 0x0, symName: __ZNSt3__117__compressed_pairIP4RuleNS_9allocatorIS1_EEE6secondB8ue170006Ev, symObjAddr: 0xC200, symBinAddr: 0x10000D398, symSize: 0x24 }
  - { offsetInCU: 0x1F1AD, offset: 0x1F1AD, size: 0x8, addend: 0x0, symName: __ZNSt3__122__compressed_pair_elemINS_9allocatorI4RuleEELi1ELb1EE5__getB8ue170006Ev, symObjAddr: 0xC224, symBinAddr: 0x10000D3BC, symSize: 0x14 }
  - { offsetInCU: 0x1F1D3, offset: 0x1F1D3, size: 0x8, addend: 0x0, symName: __ZNKSt3__16vectorI4RuleNS_9allocatorIS1_EEE9__end_capB8ue170006Ev, symObjAddr: 0xC238, symBinAddr: 0x10000D3D0, symSize: 0x28 }
  - { offsetInCU: 0x1F1F9, offset: 0x1F1F9, size: 0x8, addend: 0x0, symName: __ZNKSt3__117__compressed_pairIP4RuleNS_9allocatorIS1_EEE5firstB8ue170006Ev, symObjAddr: 0xC260, symBinAddr: 0x10000D3F8, symSize: 0x24 }
  - { offsetInCU: 0x1F21F, offset: 0x1F21F, size: 0x8, addend: 0x0, symName: __ZNKSt3__122__compressed_pair_elemIP4RuleLi0ELb0EE5__getB8ue170006Ev, symObjAddr: 0xC284, symBinAddr: 0x10000D41C, symSize: 0x14 }
  - { offsetInCU: 0x1F245, offset: 0x1F245, size: 0x8, addend: 0x0, symName: __ZNSt3__16vectorINS_12basic_stringIcNS_11char_traitsIcEENS_9allocatorIcEEEENS4_IS6_EEE11__make_iterB8ue170006EPS6_, symObjAddr: 0xC298, symBinAddr: 0x10000D430, symSize: 0x30 }
  - { offsetInCU: 0x1F27A, offset: 0x1F27A, size: 0x8, addend: 0x0, symName: __ZNSt3__111__wrap_iterIPNS_12basic_stringIcNS_11char_traitsIcEENS_9allocatorIcEEEEEC1B8ue170006ES7_, symObjAddr: 0xC2C8, symBinAddr: 0x10000D460, symSize: 0x34 }
  - { offsetInCU: 0x1F2B2, offset: 0x1F2B2, size: 0x8, addend: 0x0, symName: __ZNSt3__111__wrap_iterIPNS_12basic_stringIcNS_11char_traitsIcEENS_9allocatorIcEEEEEC2B8ue170006ES7_, symObjAddr: 0xC2FC, symBinAddr: 0x10000D494, symSize: 0x20 }
  - { offsetInCU: 0x1F2EA, offset: 0x1F2EA, size: 0x8, addend: 0x0, symName: __ZNSt3__16vectorI4RuleNS_9allocatorIS1_EEE9__end_capB8ue170006Ev, symObjAddr: 0xC31C, symBinAddr: 0x10000D4B4, symSize: 0x28 }
  - { offsetInCU: 0x1F310, offset: 0x1F310, size: 0x8, addend: 0x0, symName: __ZNSt3__16vectorI4RuleNS_9allocatorIS1_EEE22__construct_one_at_endB8ue170006IJRKS1_EEEvDpOT_, symObjAddr: 0xC344, symBinAddr: 0x10000D4DC, symSize: 0x90 }
  - { offsetInCU: 0x1F35F, offset: 0x1F35F, size: 0x8, addend: 0x0, symName: __ZNSt3__16vectorI4RuleNS_9allocatorIS1_EEE21__push_back_slow_pathIRKS1_EEvOT_, symObjAddr: 0xC3D4, symBinAddr: 0x10000D56C, symSize: 0xD8 }
  - { offsetInCU: 0x1F3BD, offset: 0x1F3BD, size: 0x8, addend: 0x0, symName: __ZNSt3__117__compressed_pairIP4RuleNS_9allocatorIS1_EEE5firstB8ue170006Ev, symObjAddr: 0xC4AC, symBinAddr: 0x10000D644, symSize: 0x24 }
  - { offsetInCU: 0x1F3E3, offset: 0x1F3E3, size: 0x8, addend: 0x0, symName: __ZNSt3__122__compressed_pair_elemIP4RuleLi0ELb0EE5__getB8ue170006Ev, symObjAddr: 0xC4D0, symBinAddr: 0x10000D668, symSize: 0x14 }
  - { offsetInCU: 0x1F424, offset: 0x1F424, size: 0x8, addend: 0x0, symName: __ZNSt3__16vectorI4RuleNS_9allocatorIS1_EEE21_ConstructTransactionC1B8ue170006ERS4_m, symObjAddr: 0xC4E4, symBinAddr: 0x10000D67C, symSize: 0x3C }
  - { offsetInCU: 0x1F46C, offset: 0x1F46C, size: 0x8, addend: 0x0, symName: __ZNSt3__116allocator_traitsINS_9allocatorI4RuleEEE9constructB8ue170006IS2_JRKS2_EvEEvRS3_PT_DpOT0_, symObjAddr: 0xC520, symBinAddr: 0x10000D6B8, symSize: 0x34 }
  - { offsetInCU: 0x1F4C3, offset: 0x1F4C3, size: 0x8, addend: 0x0, symName: __ZNSt3__16vectorI4RuleNS_9allocatorIS1_EEE21_ConstructTransactionD1B8ue170006Ev, symObjAddr: 0xC554, symBinAddr: 0x10000D6EC, symSize: 0x2C }
  - { offsetInCU: 0x1F4ED, offset: 0x1F4ED, size: 0x8, addend: 0x0, symName: __ZNSt3__16vectorI4RuleNS_9allocatorIS1_EEE21_ConstructTransactionC2B8ue170006ERS4_m, symObjAddr: 0xC580, symBinAddr: 0x10000D718, symSize: 0x4C }
  - { offsetInCU: 0x1F535, offset: 0x1F535, size: 0x8, addend: 0x0, symName: __ZNSt3__19allocatorI4RuleE9constructB8ue170006IS1_JRKS1_EEEvPT_DpOT0_, symObjAddr: 0xC5CC, symBinAddr: 0x10000D764, symSize: 0x30 }
  - { offsetInCU: 0x1F58B, offset: 0x1F58B, size: 0x8, addend: 0x0, symName: __ZN4RuleC1ERKS_, symObjAddr: 0xC5FC, symBinAddr: 0x10000D794, symSize: 0x34 }
  - { offsetInCU: 0x1F5C0, offset: 0x1F5C0, size: 0x8, addend: 0x0, symName: __ZN4RuleC2ERKS_, symObjAddr: 0xC630, symBinAddr: 0x10000D7C8, symSize: 0x70 }
  - { offsetInCU: 0x1F5F5, offset: 0x1F5F5, size: 0x8, addend: 0x0, symName: __ZNSt3__16vectorI4RuleNS_9allocatorIS1_EEE21_ConstructTransactionD2B8ue170006Ev, symObjAddr: 0xC6A0, symBinAddr: 0x10000D838, symSize: 0x20 }
  - { offsetInCU: 0x1F61F, offset: 0x1F61F, size: 0x8, addend: 0x0, symName: __ZNKSt3__16vectorI4RuleNS_9allocatorIS1_EEE11__recommendB8ue170006Em, symObjAddr: 0xC6C0, symBinAddr: 0x10000D858, symSize: 0xB4 }
  - { offsetInCU: 0x1F674, offset: 0x1F674, size: 0x8, addend: 0x0, symName: __ZNSt3__114__split_bufferI4RuleRNS_9allocatorIS1_EEEC1EmmS4_, symObjAddr: 0xC774, symBinAddr: 0x10000D90C, symSize: 0x44 }
  - { offsetInCU: 0x1F6CA, offset: 0x1F6CA, size: 0x8, addend: 0x0, symName: __ZNSt3__114__split_bufferI4RuleRNS_9allocatorIS1_EEED1Ev, symObjAddr: 0xC8C8, symBinAddr: 0x10000DA60, symSize: 0x2C }
  - { offsetInCU: 0x1F6F6, offset: 0x1F6F6, size: 0x8, addend: 0x0, symName: __ZNKSt3__16vectorI4RuleNS_9allocatorIS1_EEE8max_sizeEv, symObjAddr: 0xC8F4, symBinAddr: 0x10000DA8C, symSize: 0x60 }
  - { offsetInCU: 0x1F71E, offset: 0x1F71E, size: 0x8, addend: 0x0, symName: __ZNKSt3__16vectorI4RuleNS_9allocatorIS1_EEE20__throw_length_errorB8ue170006Ev, symObjAddr: 0xC954, symBinAddr: 0x10000DAEC, symSize: 0x1C }
  - { offsetInCU: 0x1F74F, offset: 0x1F74F, size: 0x8, addend: 0x0, symName: __ZNSt3__116allocator_traitsINS_9allocatorI4RuleEEE8max_sizeB8ue170006IS3_vEEmRKS3_, symObjAddr: 0xC970, symBinAddr: 0x10000DB08, symSize: 0x24 }
  - { offsetInCU: 0x1F77D, offset: 0x1F77D, size: 0x8, addend: 0x0, symName: __ZNKSt3__16vectorI4RuleNS_9allocatorIS1_EEE7__allocB8ue170006Ev, symObjAddr: 0xC994, symBinAddr: 0x10000DB2C, symSize: 0x28 }
  - { offsetInCU: 0x1F7A3, offset: 0x1F7A3, size: 0x8, addend: 0x0, symName: __ZNKSt3__19allocatorI4RuleE8max_sizeB8ue170006Ev, symObjAddr: 0xC9BC, symBinAddr: 0x10000DB54, symSize: 0x18 }
  - { offsetInCU: 0x1F7C9, offset: 0x1F7C9, size: 0x8, addend: 0x0, symName: __ZNKSt3__117__compressed_pairIP4RuleNS_9allocatorIS1_EEE6secondB8ue170006Ev, symObjAddr: 0xC9D4, symBinAddr: 0x10000DB6C, symSize: 0x24 }
  - { offsetInCU: 0x1F7EF, offset: 0x1F7EF, size: 0x8, addend: 0x0, symName: __ZNKSt3__122__compressed_pair_elemINS_9allocatorI4RuleEELi1ELb1EE5__getB8ue170006Ev, symObjAddr: 0xC9F8, symBinAddr: 0x10000DB90, symSize: 0x14 }
  - { offsetInCU: 0x1F815, offset: 0x1F815, size: 0x8, addend: 0x0, symName: __ZNSt3__114__split_bufferI4RuleRNS_9allocatorIS1_EEEC2EmmS4_, symObjAddr: 0xCA0C, symBinAddr: 0x10000DBA4, symSize: 0xE0 }
  - { offsetInCU: 0x1F888, offset: 0x1F888, size: 0x8, addend: 0x0, symName: __ZNSt3__117__compressed_pairIP4RuleRNS_9allocatorIS1_EEEC1B8ue170006IDnS5_EEOT_OT0_, symObjAddr: 0xCAEC, symBinAddr: 0x10000DC84, symSize: 0x3C }
  - { offsetInCU: 0x1F8E0, offset: 0x1F8E0, size: 0x8, addend: 0x0, symName: __ZNSt3__114__split_bufferI4RuleRNS_9allocatorIS1_EEE7__allocB8ue170006Ev, symObjAddr: 0xCB68, symBinAddr: 0x10000DD00, symSize: 0x28 }
  - { offsetInCU: 0x1F906, offset: 0x1F906, size: 0x8, addend: 0x0, symName: __ZNSt3__114__split_bufferI4RuleRNS_9allocatorIS1_EEE9__end_capB8ue170006Ev, symObjAddr: 0xCB90, symBinAddr: 0x10000DD28, symSize: 0x28 }
  - { offsetInCU: 0x1F92C, offset: 0x1F92C, size: 0x8, addend: 0x0, symName: __ZNSt3__117__compressed_pairIP4RuleRNS_9allocatorIS1_EEEC2B8ue170006IDnS5_EEOT_OT0_, symObjAddr: 0xCBB8, symBinAddr: 0x10000DD50, symSize: 0x48 }
  - { offsetInCU: 0x1F984, offset: 0x1F984, size: 0x8, addend: 0x0, symName: __ZNSt3__122__compressed_pair_elemIRNS_9allocatorI4RuleEELi1ELb0EEC2B8ue170006IS4_vEEOT_, symObjAddr: 0xCC00, symBinAddr: 0x10000DD98, symSize: 0x20 }
  - { offsetInCU: 0x1F9C6, offset: 0x1F9C6, size: 0x8, addend: 0x0, symName: __ZNSt3__19allocatorI4RuleE8allocateB8ue170006Em, symObjAddr: 0xCC20, symBinAddr: 0x10000DDB8, symSize: 0x5C }
  - { offsetInCU: 0x1F9FA, offset: 0x1F9FA, size: 0x8, addend: 0x0, symName: __ZNSt3__117__compressed_pairIP4RuleRNS_9allocatorIS1_EEE6secondB8ue170006Ev, symObjAddr: 0xCC7C, symBinAddr: 0x10000DE14, symSize: 0x28 }
  - { offsetInCU: 0x1FA20, offset: 0x1FA20, size: 0x8, addend: 0x0, symName: __ZNSt3__122__compressed_pair_elemIRNS_9allocatorI4RuleEELi1ELb0EE5__getB8ue170006Ev, symObjAddr: 0xCCA4, symBinAddr: 0x10000DE3C, symSize: 0x18 }
  - { offsetInCU: 0x1FA46, offset: 0x1FA46, size: 0x8, addend: 0x0, symName: __ZNSt3__117__compressed_pairIP4RuleRNS_9allocatorIS1_EEE5firstB8ue170006Ev, symObjAddr: 0xCCBC, symBinAddr: 0x10000DE54, symSize: 0x24 }
  - { offsetInCU: 0x1FA6C, offset: 0x1FA6C, size: 0x8, addend: 0x0, symName: __ZNSt3__116reverse_iteratorIP4RuleEC1B8ue170006ES2_, symObjAddr: 0xCE0C, symBinAddr: 0x10000DFA4, symSize: 0x34 }
  - { offsetInCU: 0x1FAA4, offset: 0x1FAA4, size: 0x8, addend: 0x0, symName: __ZNKSt3__116reverse_iteratorIP4RuleE4baseB8ue170006Ev, symObjAddr: 0xCE40, symBinAddr: 0x10000DFD8, symSize: 0x18 }
  - { offsetInCU: 0x1FACA, offset: 0x1FACA, size: 0x8, addend: 0x0, symName: __ZNKSt3__16vectorI4RuleNS_9allocatorIS1_EEE14__annotate_newB8ue170006Em, symObjAddr: 0xCE94, symBinAddr: 0x10000E02C, symSize: 0xC8 }
  - { offsetInCU: 0x1FAFF, offset: 0x1FAFF, size: 0x8, addend: 0x0, symName: __ZNSt3__129_AllocatorDestroyRangeReverseINS_9allocatorI4RuleEENS_16reverse_iteratorIPS2_EEEC1B8ue170006ERS3_RS6_S9_, symObjAddr: 0xCFA8, symBinAddr: 0x10000E140, symSize: 0x44 }
  - { offsetInCU: 0x1FB5C, offset: 0x1FB5C, size: 0x8, addend: 0x0, symName: __ZNSt3__116allocator_traitsINS_9allocatorI4RuleEEE9constructB8ue170006IS2_JS2_EvEEvRS3_PT_DpOT0_, symObjAddr: 0xD034, symBinAddr: 0x10000E1CC, symSize: 0x34 }
  - { offsetInCU: 0x1FBB3, offset: 0x1FBB3, size: 0x8, addend: 0x0, symName: __ZNKSt3__116reverse_iteratorIP4RuleEdeB8ue170006Ev, symObjAddr: 0xD08C, symBinAddr: 0x10000E224, symSize: 0x28 }
  - { offsetInCU: 0x1FBE7, offset: 0x1FBE7, size: 0x8, addend: 0x0, symName: __ZNSt3__116reverse_iteratorIP4RuleEppB8ue170006Ev, symObjAddr: 0xD0B4, symBinAddr: 0x10000E24C, symSize: 0x20 }
  - { offsetInCU: 0x1FC0D, offset: 0x1FC0D, size: 0x8, addend: 0x0, symName: __ZNSt3__128__exception_guard_exceptionsINS_29_AllocatorDestroyRangeReverseINS_9allocatorI4RuleEENS_16reverse_iteratorIPS3_EEEEE10__completeB8ue170006Ev, symObjAddr: 0xD0D4, symBinAddr: 0x10000E26C, symSize: 0x1C }
  - { offsetInCU: 0x1FC33, offset: 0x1FC33, size: 0x8, addend: 0x0, symName: __ZNSt3__128__exception_guard_exceptionsINS_29_AllocatorDestroyRangeReverseINS_9allocatorI4RuleEENS_16reverse_iteratorIPS3_EEEEED1B8ue170006Ev, symObjAddr: 0xD0F0, symBinAddr: 0x10000E288, symSize: 0x2C }
  - { offsetInCU: 0x1FC5D, offset: 0x1FC5D, size: 0x8, addend: 0x0, symName: __ZNSt3__128__exception_guard_exceptionsINS_29_AllocatorDestroyRangeReverseINS_9allocatorI4RuleEENS_16reverse_iteratorIPS3_EEEEEC1B8ue170006ES8_, symObjAddr: 0xD11C, symBinAddr: 0x10000E2B4, symSize: 0x34 }
  - { offsetInCU: 0x1FC96, offset: 0x1FC96, size: 0x8, addend: 0x0, symName: __ZNSt3__128__exception_guard_exceptionsINS_29_AllocatorDestroyRangeReverseINS_9allocatorI4RuleEENS_16reverse_iteratorIPS3_EEEEEC2B8ue170006ES8_, symObjAddr: 0xD150, symBinAddr: 0x10000E2E8, symSize: 0x30 }
  - { offsetInCU: 0x1FCCF, offset: 0x1FCCF, size: 0x8, addend: 0x0, symName: __ZNSt3__129_AllocatorDestroyRangeReverseINS_9allocatorI4RuleEENS_16reverse_iteratorIPS2_EEEC2B8ue170006ERS3_RS6_S9_, symObjAddr: 0xD180, symBinAddr: 0x10000E318, symSize: 0x38 }
  - { offsetInCU: 0x1FD26, offset: 0x1FD26, size: 0x8, addend: 0x0, symName: __ZNSt3__19allocatorI4RuleE9constructB8ue170006IS1_JS1_EEEvPT_DpOT0_, symObjAddr: 0xD1B8, symBinAddr: 0x10000E350, symSize: 0x30 }
  - { offsetInCU: 0x1FD7C, offset: 0x1FD7C, size: 0x8, addend: 0x0, symName: __ZN4RuleC1EOS_, symObjAddr: 0xD1E8, symBinAddr: 0x10000E380, symSize: 0x34 }
  - { offsetInCU: 0x1FDB1, offset: 0x1FDB1, size: 0x8, addend: 0x0, symName: __ZN4RuleC2EOS_, symObjAddr: 0xD21C, symBinAddr: 0x10000E3B4, symSize: 0x48 }
  - { offsetInCU: 0x1FDE6, offset: 0x1FDE6, size: 0x8, addend: 0x0, symName: __ZNSt3__16vectorI9PredicateNS_9allocatorIS1_EEEC1B8ue170006EOS4_, symObjAddr: 0xD264, symBinAddr: 0x10000E3FC, symSize: 0x34 }
  - { offsetInCU: 0x1FE21, offset: 0x1FE21, size: 0x8, addend: 0x0, symName: __ZNSt3__16vectorI9PredicateNS_9allocatorIS1_EEEC2B8ue170006EOS4_, symObjAddr: 0xD298, symBinAddr: 0x10000E430, symSize: 0xC4 }
  - { offsetInCU: 0x1FE62, offset: 0x1FE62, size: 0x8, addend: 0x0, symName: __ZNSt3__119__to_address_helperINS_16reverse_iteratorIP4RuleEEvE6__callB8ue170006ERKS4_, symObjAddr: 0xD35C, symBinAddr: 0x10000E4F4, symSize: 0x38 }
  - { offsetInCU: 0x1FE85, offset: 0x1FE85, size: 0x8, addend: 0x0, symName: __ZNKSt3__116reverse_iteratorIP4RuleEptB8ue170006Ev, symObjAddr: 0xD394, symBinAddr: 0x10000E52C, symSize: 0x24 }
  - { offsetInCU: 0x1FEAB, offset: 0x1FEAB, size: 0x8, addend: 0x0, symName: __ZNSt3__128__exception_guard_exceptionsINS_29_AllocatorDestroyRangeReverseINS_9allocatorI4RuleEENS_16reverse_iteratorIPS3_EEEEED2B8ue170006Ev, symObjAddr: 0xD3B8, symBinAddr: 0x10000E550, symSize: 0x50 }
  - { offsetInCU: 0x1FED5, offset: 0x1FED5, size: 0x8, addend: 0x0, symName: __ZNKSt3__129_AllocatorDestroyRangeReverseINS_9allocatorI4RuleEENS_16reverse_iteratorIPS2_EEEclB8ue170006Ev, symObjAddr: 0xD408, symBinAddr: 0x10000E5A0, symSize: 0xB4 }
  - { offsetInCU: 0x1FEFC, offset: 0x1FEFC, size: 0x8, addend: 0x0, symName: __ZNSt3__116reverse_iteratorINS0_IP4RuleEEEC1B8ue170006ES3_, symObjAddr: 0xD52C, symBinAddr: 0x10000E6C4, symSize: 0x3C }
  - { offsetInCU: 0x1FF34, offset: 0x1FF34, size: 0x8, addend: 0x0, symName: __ZNSt3__116reverse_iteratorINS0_IP4RuleEEEppB8ue170006Ev, symObjAddr: 0xD5EC, symBinAddr: 0x10000E784, symSize: 0x30 }
  - { offsetInCU: 0x1FF5A, offset: 0x1FF5A, size: 0x8, addend: 0x0, symName: __ZNKSt3__116reverse_iteratorINS0_IP4RuleEEE4baseB8ue170006Ev, symObjAddr: 0xD61C, symBinAddr: 0x10000E7B4, symSize: 0x24 }
  - { offsetInCU: 0x1FF86, offset: 0x1FF86, size: 0x8, addend: 0x0, symName: __ZNSt3__119__to_address_helperINS_16reverse_iteratorINS1_IP4RuleEEEEvE6__callB8ue170006ERKS5_, symObjAddr: 0xD640, symBinAddr: 0x10000E7D8, symSize: 0x38 }
  - { offsetInCU: 0x1FFA9, offset: 0x1FFA9, size: 0x8, addend: 0x0, symName: __ZNKSt3__116reverse_iteratorINS0_IP4RuleEEEptB8ue170006Ev, symObjAddr: 0xD678, symBinAddr: 0x10000E810, symSize: 0x24 }
  - { offsetInCU: 0x1FFCF, offset: 0x1FFCF, size: 0x8, addend: 0x0, symName: __ZNKSt3__116reverse_iteratorINS0_IP4RuleEEEdeB8ue170006Ev, symObjAddr: 0xD69C, symBinAddr: 0x10000E834, symSize: 0x34 }
  - { offsetInCU: 0x20003, offset: 0x20003, size: 0x8, addend: 0x0, symName: __ZNSt3__116reverse_iteratorIP4RuleEmmB8ue170006Ev, symObjAddr: 0xD6D0, symBinAddr: 0x10000E868, symSize: 0x20 }
  - { offsetInCU: 0x20029, offset: 0x20029, size: 0x8, addend: 0x0, symName: __ZNSt3__116reverse_iteratorINS0_IP4RuleEEEC2B8ue170006ES3_, symObjAddr: 0xD6F0, symBinAddr: 0x10000E888, symSize: 0x2C }
  - { offsetInCU: 0x20061, offset: 0x20061, size: 0x8, addend: 0x0, symName: __ZNSt3__116reverse_iteratorIP4RuleEC2B8ue170006ES2_, symObjAddr: 0xD71C, symBinAddr: 0x10000E8B4, symSize: 0x28 }
  - { offsetInCU: 0x20099, offset: 0x20099, size: 0x8, addend: 0x0, symName: __ZNSt3__114__split_bufferI4RuleRNS_9allocatorIS1_EEED2Ev, symObjAddr: 0xD744, symBinAddr: 0x10000E8DC, symSize: 0x8C }
  - { offsetInCU: 0x200C5, offset: 0x200C5, size: 0x8, addend: 0x0, symName: __ZNSt3__114__split_bufferI4RuleRNS_9allocatorIS1_EEE5clearB8ue170006Ev, symObjAddr: 0xD7D0, symBinAddr: 0x10000E968, symSize: 0x28 }
  - { offsetInCU: 0x200EB, offset: 0x200EB, size: 0x8, addend: 0x0, symName: __ZNKSt3__114__split_bufferI4RuleRNS_9allocatorIS1_EEE8capacityB8ue170006Ev, symObjAddr: 0xD7F8, symBinAddr: 0x10000E990, symSize: 0x40 }
  - { offsetInCU: 0x20111, offset: 0x20111, size: 0x8, addend: 0x0, symName: __ZNSt3__114__split_bufferI4RuleRNS_9allocatorIS1_EEE17__destruct_at_endB8ue170006EPS1_, symObjAddr: 0xD838, symBinAddr: 0x10000E9D0, symSize: 0x2C }
  - { offsetInCU: 0x20145, offset: 0x20145, size: 0x8, addend: 0x0, symName: __ZNSt3__114__split_bufferI4RuleRNS_9allocatorIS1_EEE17__destruct_at_endB8ue170006EPS1_NS_17integral_constantIbLb0EEE, symObjAddr: 0xD864, symBinAddr: 0x10000E9FC, symSize: 0x80 }
  - { offsetInCU: 0x20186, offset: 0x20186, size: 0x8, addend: 0x0, symName: __ZNKSt3__114__split_bufferI4RuleRNS_9allocatorIS1_EEE9__end_capB8ue170006Ev, symObjAddr: 0xD8E4, symBinAddr: 0x10000EA7C, symSize: 0x28 }
  - { offsetInCU: 0x201AC, offset: 0x201AC, size: 0x8, addend: 0x0, symName: __ZNKSt3__117__compressed_pairIP4RuleRNS_9allocatorIS1_EEE5firstB8ue170006Ev, symObjAddr: 0xD90C, symBinAddr: 0x10000EAA4, symSize: 0x24 }
...
